SF:/home/steven/code/Rust/copybook-rs/copybook-bench/src/regression.rs
FN:1027,_RNCNvMs0_NtCse6didS0dbEz_14copybook_bench10regressionNtB7_18BaselineRepository13load_baseline0B9_
FN:1000,_RNCNvMs0_NtCse6didS0dbEz_14copybook_bench10regressionNtB7_18BaselineRepository3new0B9_
FN:1770,_RNCNvNtNtCse6didS0dbEz_14copybook_bench10regression5testss_18test_ci_integrator0B7_
FN:1775,_RNCNvNtNtCse6didS0dbEz_14copybook_bench10regression5testss_18test_ci_integrators_0B7_
FN:1554,_RNvNtNtCse6didS0dbEz_14copybook_bench10regression5utils18create_ci_detector
FN:1562,_RNvNtNtCse6didS0dbEz_14copybook_bench10regression5utils19create_dev_detector
FN:1549,_RNvNtNtCse6didS0dbEz_14copybook_bench10regression5utils24create_standard_detector
FN:605,_RNvMNtCse6didS0dbEz_14copybook_bench10regressionNtB2_29PerformanceRegressionDetector3new
FN:1020,_RNvMs0_NtCse6didS0dbEz_14copybook_bench10regressionNtB5_18BaselineRepository13load_baseline
FN:1011,_RNvMs0_NtCse6didS0dbEz_14copybook_bench10regressionNtB5_18BaselineRepository14store_baseline
FN:996,_RNvMs0_NtCse6didS0dbEz_14copybook_bench10regressionNtB5_18BaselineRepository3new
FN:1214,_RNvMs1_NtCse6didS0dbEz_14copybook_bench10regressionNtB5_29StatisticalRegressionAnalyzer14perform_t_test
FN:1075,_RNvMs1_NtCse6didS0dbEz_14copybook_bench10regressionNtB5_29StatisticalRegressionAnalyzer15compare_metrics
FN:1253,_RNvMs1_NtCse6didS0dbEz_14copybook_bench10regressionNtB5_29StatisticalRegressionAnalyzer21calculate_effect_size
FN:1123,_RNvMs1_NtCse6didS0dbEz_14copybook_bench10regressionNtB5_29StatisticalRegressionAnalyzer21run_statistical_tests
FN:1284,_RNvMs1_NtCse6didS0dbEz_14copybook_bench10regressionNtB5_29StatisticalRegressionAnalyzer22perform_power_analysis
FN:1161,_RNvMs1_NtCse6didS0dbEz_14copybook_bench10regressionNtB5_29StatisticalRegressionAnalyzer23calculate_metric_change
FN:1194,_RNvMs1_NtCse6didS0dbEz_14copybook_bench10regressionNtB5_29StatisticalRegressionAnalyzer24calculate_overall_change
FN:1240,_RNvMs1_NtCse6didS0dbEz_14copybook_bench10regressionNtB5_29StatisticalRegressionAnalyzer27perform_mann_whitney_u_test
FN:1062,_RNvMs1_NtCse6didS0dbEz_14copybook_bench10regressionNtB5_29StatisticalRegressionAnalyzer3new
FN:1294,_RNvMs2_NtCse6didS0dbEz_14copybook_bench10regressionNtB5_12CiIntegrator3new
FN:1406,_RNvMs3_NtCse6didS0dbEz_14copybook_bench10regressionNtB5_11AlertSystem3new
FN:1512,_RNvMs4_NtCse6didS0dbEz_14copybook_bench10regressionNtB5_17EscalationManager3new
FN:1780,_RNvNtNtCse6didS0dbEz_14copybook_bench10regression5testss_17test_alert_system
FN:1764,_RNvNtNtCse6didS0dbEz_14copybook_bench10regression5testss_18test_ci_integrator
FN:1592,_RNvNtNtCse6didS0dbEz_14copybook_bench10regression5testss_22test_detector_creation
FN:1598,_RNvNtNtCse6didS0dbEz_14copybook_bench10regression5testss_24test_baseline_repository
FN:1679,_RNvNtNtCse6didS0dbEz_14copybook_bench10regression5testss_25test_statistical_analyzer
FN:1787,_RNvNtNtCse6didS0dbEz_14copybook_bench10regression5testss_27test_utils_create_detectors
FN:937,_RNCNvMNtCse6didS0dbEz_14copybook_bench10regressionNtB4_29PerformanceRegressionDetector19determine_ci_status0B6_
FN:941,_RNCNvMNtCse6didS0dbEz_14copybook_bench10regressionNtB4_29PerformanceRegressionDetector19determine_ci_statuss_0B6_
FN:738,_RNCNvMNtCse6didS0dbEz_14copybook_bench10regressionNtB4_29PerformanceRegressionDetector23get_current_environment0B6_
FN:758,_RNCNvMNtCse6didS0dbEz_14copybook_bench10regressionNtB4_29PerformanceRegressionDetector23get_current_environments0_0B6_
FN:739,_RNCNvMNtCse6didS0dbEz_14copybook_bench10regressionNtB4_29PerformanceRegressionDetector23get_current_environments_0B6_
FN:793,_RNCNvMNtCse6didS0dbEz_14copybook_bench10regressionNtB4_29PerformanceRegressionDetector27determine_regression_status0B6_
FN:1364,_RNCNvMs2_NtCse6didS0dbEz_14copybook_bench10regressionNtB7_12CiIntegrator13evaluate_gate0B9_
FN:1374,_RNCNvMs2_NtCse6didS0dbEz_14copybook_bench10regressionNtB7_12CiIntegrator13evaluate_gates0_0B9_
FN:727,_RNvMNtCse6didS0dbEz_14copybook_bench10regressionNtB2_29PerformanceRegressionDetector14trigger_alerts
FN:974,_RNvMNtCse6didS0dbEz_14copybook_bench10regressionNtB2_29PerformanceRegressionDetector17count_regressions
FN:981,_RNvMNtCse6didS0dbEz_14copybook_bench10regressionNtB2_29PerformanceRegressionDetector18count_improvements
FN:655,_RNvMNtCse6didS0dbEz_14copybook_bench10regressionNtB2_29PerformanceRegressionDetector18establish_baseline
FN:934,_RNvMNtCse6didS0dbEz_14copybook_bench10regressionNtB2_29PerformanceRegressionDetector19determine_ci_status
FN:764,_RNvMNtCse6didS0dbEz_14copybook_bench10regressionNtB2_29PerformanceRegressionDetector20generate_baseline_id
FN:968,_RNvMNtCse6didS0dbEz_14copybook_bench10regressionNtB2_29PerformanceRegressionDetector22count_analyzed_metrics
FN:778,_RNvMNtCse6didS0dbEz_14copybook_bench10regressionNtB2_29PerformanceRegressionDetector22get_current_git_commit
FN:736,_RNvMNtCse6didS0dbEz_14copybook_bench10regressionNtB2_29PerformanceRegressionDetector23get_current_environment
FN:847,_RNvMNtCse6didS0dbEz_14copybook_bench10regressionNtB2_29PerformanceRegressionDetector24generate_recommendations
FN:816,_RNvMNtCse6didS0dbEz_14copybook_bench10regressionNtB2_29PerformanceRegressionDetector26calculate_confidence_score
FN:783,_RNvMNtCse6didS0dbEz_14copybook_bench10regressionNtB2_29PerformanceRegressionDetector27determine_regression_status
FN:957,_RNvMNtCse6didS0dbEz_14copybook_bench10regressionNtB2_29PerformanceRegressionDetector27generate_ci_recommendations
FN:895,_RNvMNtCse6didS0dbEz_14copybook_bench10regressionNtB2_29PerformanceRegressionDetector27measure_current_performance
FN:686,_RNvMNtCse6didS0dbEz_14copybook_bench10regressionNtB2_29PerformanceRegressionDetector28execute_ci_performance_check
FN:615,_RNvMNtCse6didS0dbEz_14copybook_bench10regressionNtB2_29PerformanceRegressionDetector29detect_performance_regression
FN:1030,_RNvMs0_NtCse6didS0dbEz_14copybook_bench10regressionNtB5_18BaselineRepository24find_compatible_baseline
FN:1043,_RNvMs0_NtCse6didS0dbEz_14copybook_bench10regressionNtB5_18BaselineRepository25is_environment_compatible
FN:1145,_RNvMs1_NtCse6didS0dbEz_14copybook_bench10regressionNtB5_29StatisticalRegressionAnalyzer32calculate_statistical_properties
FN:1353,_RNvMs2_NtCse6didS0dbEz_14copybook_bench10regressionNtB5_12CiIntegrator13evaluate_gate
FN:1339,_RNvMs2_NtCse6didS0dbEz_14copybook_bench10regressionNtB5_12CiIntegrator25execute_performance_gates
FN:1472,_RNvMs3_NtCse6didS0dbEz_14copybook_bench10regressionNtB5_11AlertSystem13trigger_alert
FN:1424,_RNvMs3_NtCse6didS0dbEz_14copybook_bench10regressionNtB5_11AlertSystem15evaluate_alerts
FN:1496,_RNvMs3_NtCse6didS0dbEz_14copybook_bench10regressionNtB5_11AlertSystem18send_notifications
FN:1442,_RNvMs3_NtCse6didS0dbEz_14copybook_bench10regressionNtB5_11AlertSystem20should_trigger_alert
FN:1573,_RNvNtNtCse6didS0dbEz_14copybook_bench10regression8num_cpus3get
FN:1531,_RNvXs5_NtCse6didS0dbEz_14copybook_bench10regressionNtB5_24RegressionDetectionErrorNtNtCshnvtj5zUHGu_4core3fmt7Display3fmt
FN:990,_RNvXs_NtCse6didS0dbEz_14copybook_bench10regressionNtB4_29PerformanceRegressionDetectorNtNtCshnvtj5zUHGu_4core7default7Default7default
FNDA:0,_RNCNvMs0_NtCse6didS0dbEz_14copybook_bench10regressionNtB7_18BaselineRepository13load_baseline0B9_
FNDA:5,_RNCNvMs0_NtCse6didS0dbEz_14copybook_bench10regressionNtB7_18BaselineRepository3new0B9_
FNDA:1,_RNCNvNtNtCse6didS0dbEz_14copybook_bench10regression5testss_18test_ci_integrator0B7_
FNDA:2,_RNCNvNtNtCse6didS0dbEz_14copybook_bench10regression5testss_18test_ci_integrators_0B7_
FNDA:1,_RNvNtNtCse6didS0dbEz_14copybook_bench10regression5utils18create_ci_detector
FNDA:1,_RNvNtNtCse6didS0dbEz_14copybook_bench10regression5utils19create_dev_detector
FNDA:1,_RNvNtNtCse6didS0dbEz_14copybook_bench10regression5utils24create_standard_detector
FNDA:4,_RNvMNtCse6didS0dbEz_14copybook_bench10regressionNtB2_29PerformanceRegressionDetector3new
FNDA:1,_RNvMs0_NtCse6didS0dbEz_14copybook_bench10regressionNtB5_18BaselineRepository13load_baseline
FNDA:1,_RNvMs0_NtCse6didS0dbEz_14copybook_bench10regressionNtB5_18BaselineRepository14store_baseline
FNDA:5,_RNvMs0_NtCse6didS0dbEz_14copybook_bench10regressionNtB5_18BaselineRepository3new
FNDA:1,_RNvMs1_NtCse6didS0dbEz_14copybook_bench10regressionNtB5_29StatisticalRegressionAnalyzer14perform_t_test
FNDA:1,_RNvMs1_NtCse6didS0dbEz_14copybook_bench10regressionNtB5_29StatisticalRegressionAnalyzer15compare_metrics
FNDA:1,_RNvMs1_NtCse6didS0dbEz_14copybook_bench10regressionNtB5_29StatisticalRegressionAnalyzer21calculate_effect_size
FNDA:1,_RNvMs1_NtCse6didS0dbEz_14copybook_bench10regressionNtB5_29StatisticalRegressionAnalyzer21run_statistical_tests
FNDA:1,_RNvMs1_NtCse6didS0dbEz_14copybook_bench10regressionNtB5_29StatisticalRegressionAnalyzer22perform_power_analysis
FNDA:4,_RNvMs1_NtCse6didS0dbEz_14copybook_bench10regressionNtB5_29StatisticalRegressionAnalyzer23calculate_metric_change
FNDA:1,_RNvMs1_NtCse6didS0dbEz_14copybook_bench10regressionNtB5_29StatisticalRegressionAnalyzer24calculate_overall_change
FNDA:1,_RNvMs1_NtCse6didS0dbEz_14copybook_bench10regressionNtB5_29StatisticalRegressionAnalyzer27perform_mann_whitney_u_test
FNDA:5,_RNvMs1_NtCse6didS0dbEz_14copybook_bench10regressionNtB5_29StatisticalRegressionAnalyzer3new
FNDA:5,_RNvMs2_NtCse6didS0dbEz_14copybook_bench10regressionNtB5_12CiIntegrator3new
FNDA:5,_RNvMs3_NtCse6didS0dbEz_14copybook_bench10regressionNtB5_11AlertSystem3new
FNDA:5,_RNvMs4_NtCse6didS0dbEz_14copybook_bench10regressionNtB5_17EscalationManager3new
FNDA:1,_RNvNtNtCse6didS0dbEz_14copybook_bench10regression5testss_17test_alert_system
FNDA:1,_RNvNtNtCse6didS0dbEz_14copybook_bench10regression5testss_18test_ci_integrator
FNDA:1,_RNvNtNtCse6didS0dbEz_14copybook_bench10regression5testss_22test_detector_creation
FNDA:1,_RNvNtNtCse6didS0dbEz_14copybook_bench10regression5testss_24test_baseline_repository
FNDA:1,_RNvNtNtCse6didS0dbEz_14copybook_bench10regression5testss_25test_statistical_analyzer
FNDA:1,_RNvNtNtCse6didS0dbEz_14copybook_bench10regression5testss_27test_utils_create_detectors
FNDA:0,_RNCNvMNtCse6didS0dbEz_14copybook_bench10regressionNtB4_29PerformanceRegressionDetector19determine_ci_status0B6_
FNDA:0,_RNCNvMNtCse6didS0dbEz_14copybook_bench10regressionNtB4_29PerformanceRegressionDetector19determine_ci_statuss_0B6_
FNDA:0,_RNCNvMNtCse6didS0dbEz_14copybook_bench10regressionNtB4_29PerformanceRegressionDetector23get_current_environment0B6_
FNDA:0,_RNCNvMNtCse6didS0dbEz_14copybook_bench10regressionNtB4_29PerformanceRegressionDetector23get_current_environments0_0B6_
FNDA:0,_RNCNvMNtCse6didS0dbEz_14copybook_bench10regressionNtB4_29PerformanceRegressionDetector23get_current_environments_0B6_
FNDA:0,_RNCNvMNtCse6didS0dbEz_14copybook_bench10regressionNtB4_29PerformanceRegressionDetector27determine_regression_status0B6_
FNDA:0,_RNCNvMs2_NtCse6didS0dbEz_14copybook_bench10regressionNtB7_12CiIntegrator13evaluate_gate0B9_
FNDA:0,_RNCNvMs2_NtCse6didS0dbEz_14copybook_bench10regressionNtB7_12CiIntegrator13evaluate_gates0_0B9_
FNDA:0,_RNvMNtCse6didS0dbEz_14copybook_bench10regressionNtB2_29PerformanceRegressionDetector14trigger_alerts
FNDA:0,_RNvMNtCse6didS0dbEz_14copybook_bench10regressionNtB2_29PerformanceRegressionDetector17count_regressions
FNDA:0,_RNvMNtCse6didS0dbEz_14copybook_bench10regressionNtB2_29PerformanceRegressionDetector18count_improvements
FNDA:0,_RNvMNtCse6didS0dbEz_14copybook_bench10regressionNtB2_29PerformanceRegressionDetector18establish_baseline
FNDA:0,_RNvMNtCse6didS0dbEz_14copybook_bench10regressionNtB2_29PerformanceRegressionDetector19determine_ci_status
FNDA:0,_RNvMNtCse6didS0dbEz_14copybook_bench10regressionNtB2_29PerformanceRegressionDetector20generate_baseline_id
FNDA:0,_RNvMNtCse6didS0dbEz_14copybook_bench10regressionNtB2_29PerformanceRegressionDetector22count_analyzed_metrics
FNDA:0,_RNvMNtCse6didS0dbEz_14copybook_bench10regressionNtB2_29PerformanceRegressionDetector22get_current_git_commit
FNDA:0,_RNvMNtCse6didS0dbEz_14copybook_bench10regressionNtB2_29PerformanceRegressionDetector23get_current_environment
FNDA:0,_RNvMNtCse6didS0dbEz_14copybook_bench10regressionNtB2_29PerformanceRegressionDetector24generate_recommendations
FNDA:0,_RNvMNtCse6didS0dbEz_14copybook_bench10regressionNtB2_29PerformanceRegressionDetector26calculate_confidence_score
FNDA:0,_RNvMNtCse6didS0dbEz_14copybook_bench10regressionNtB2_29PerformanceRegressionDetector27determine_regression_status
FNDA:0,_RNvMNtCse6didS0dbEz_14copybook_bench10regressionNtB2_29PerformanceRegressionDetector27generate_ci_recommendations
FNDA:0,_RNvMNtCse6didS0dbEz_14copybook_bench10regressionNtB2_29PerformanceRegressionDetector27measure_current_performance
FNDA:0,_RNvMNtCse6didS0dbEz_14copybook_bench10regressionNtB2_29PerformanceRegressionDetector28execute_ci_performance_check
FNDA:0,_RNvMNtCse6didS0dbEz_14copybook_bench10regressionNtB2_29PerformanceRegressionDetector29detect_performance_regression
FNDA:0,_RNvMs0_NtCse6didS0dbEz_14copybook_bench10regressionNtB5_18BaselineRepository24find_compatible_baseline
FNDA:0,_RNvMs0_NtCse6didS0dbEz_14copybook_bench10regressionNtB5_18BaselineRepository25is_environment_compatible
FNDA:0,_RNvMs1_NtCse6didS0dbEz_14copybook_bench10regressionNtB5_29StatisticalRegressionAnalyzer32calculate_statistical_properties
FNDA:0,_RNvMs2_NtCse6didS0dbEz_14copybook_bench10regressionNtB5_12CiIntegrator13evaluate_gate
FNDA:0,_RNvMs2_NtCse6didS0dbEz_14copybook_bench10regressionNtB5_12CiIntegrator25execute_performance_gates
FNDA:0,_RNvMs3_NtCse6didS0dbEz_14copybook_bench10regressionNtB5_11AlertSystem13trigger_alert
FNDA:0,_RNvMs3_NtCse6didS0dbEz_14copybook_bench10regressionNtB5_11AlertSystem15evaluate_alerts
FNDA:0,_RNvMs3_NtCse6didS0dbEz_14copybook_bench10regressionNtB5_11AlertSystem18send_notifications
FNDA:0,_RNvMs3_NtCse6didS0dbEz_14copybook_bench10regressionNtB5_11AlertSystem20should_trigger_alert
FNDA:0,_RNvNtNtCse6didS0dbEz_14copybook_bench10regression8num_cpus3get
FNDA:0,_RNvXs5_NtCse6didS0dbEz_14copybook_bench10regressionNtB5_24RegressionDetectionErrorNtNtCshnvtj5zUHGu_4core3fmt7Display3fmt
FNDA:0,_RNvXs_NtCse6didS0dbEz_14copybook_bench10regressionNtB4_29PerformanceRegressionDetectorNtNtCshnvtj5zUHGu_4core7default7Default7default
FNF:65
FNH:28
DA:605,4
DA:606,4
DA:607,4
DA:608,4
DA:609,4
DA:610,4
DA:611,4
DA:612,4
DA:615,0
DA:616,0
DA:617,0
DA:618,0
DA:620,0
DA:621,0
DA:622,0
DA:623,0
DA:624,0
DA:627,0
DA:628,0
DA:629,0
DA:632,0
DA:633,0
DA:634,0
DA:637,0
DA:640,0
DA:643,0
DA:645,0
DA:646,0
DA:647,0
DA:648,0
DA:649,0
DA:650,0
DA:651,0
DA:652,0
DA:655,0
DA:656,0
DA:657,0
DA:658,0
DA:659,0
DA:661,0
DA:664,0
DA:665,0
DA:666,0
DA:669,0
DA:670,0
DA:671,0
DA:672,0
DA:673,0
DA:674,0
DA:675,0
DA:676,0
DA:680,0
DA:682,0
DA:683,0
DA:686,0
DA:687,0
DA:688,0
DA:689,0
DA:692,0
DA:695,0
DA:698,0
DA:699,0
DA:700,0
DA:703,0
DA:706,0
DA:707,0
DA:710,0
DA:711,0
DA:712,0
DA:713,0
DA:714,0
DA:715,0
DA:716,0
DA:718,0
DA:719,0
DA:720,0
DA:721,0
DA:722,0
DA:723,0
DA:724,0
DA:727,0
DA:728,0
DA:729,0
DA:730,0
DA:731,0
DA:732,0
DA:736,0
DA:738,0
DA:739,0
DA:740,0
DA:741,0
DA:742,0
DA:743,0
DA:744,0
DA:745,0
DA:746,0
DA:747,0
DA:748,0
DA:749,0
DA:750,0
DA:752,0
DA:753,0
DA:755,0
DA:758,0
DA:759,0
DA:762,0
DA:764,0
DA:765,0
DA:766,0
DA:767,0
DA:768,0
DA:769,0
DA:770,0
DA:771,0
DA:772,0
DA:773,0
DA:775,0
DA:776,0
DA:778,0
DA:780,0
DA:781,0
DA:783,0
DA:784,0
DA:785,0
DA:786,0
DA:787,0
DA:788,0
DA:789,0
DA:790,0
DA:791,0
DA:792,0
DA:793,0
DA:794,0
DA:795,0
DA:797,0
DA:799,0
DA:800,0
DA:801,0
DA:802,0
DA:803,0
DA:804,0
DA:805,0
DA:806,0
DA:807,0
DA:808,0
DA:810,0
DA:811,0
DA:812,0
DA:814,0
DA:816,0
DA:817,0
DA:820,0
DA:821,0
DA:822,0
DA:825,0
DA:826,0
DA:827,0
DA:831,0
DA:832,0
DA:833,0
DA:834,0
DA:835,0
DA:836,0
DA:840,0
DA:841,0
DA:842,0
DA:844,0
DA:845,0
DA:847,0
DA:848,0
DA:849,0
DA:850,0
DA:851,0
DA:852,0
DA:854,0
DA:855,0
DA:856,0
DA:857,0
DA:858,0
DA:859,0
DA:860,0
DA:861,0
DA:862,0
DA:863,0
DA:864,0
DA:865,0
DA:866,0
DA:867,0
DA:868,0
DA:869,0
DA:870,0
DA:871,0
DA:872,0
DA:873,0
DA:874,0
DA:875,0
DA:876,0
DA:877,0
DA:878,0
DA:879,0
DA:880,0
DA:881,0
DA:882,0
DA:883,0
DA:884,0
DA:885,0
DA:886,0
DA:887,0
DA:888,0
DA:889,0
DA:892,0
DA:893,0
DA:895,0
DA:896,0
DA:897,0
DA:899,0
DA:900,0
DA:901,0
DA:902,0
DA:903,0
DA:904,0
DA:905,0
DA:906,0
DA:907,0
DA:908,0
DA:909,0
DA:910,0
DA:911,0
DA:912,0
DA:913,0
DA:914,0
DA:915,0
DA:916,0
DA:917,0
DA:918,0
DA:919,0
DA:920,0
DA:921,0
DA:922,0
DA:923,0
DA:924,0
DA:925,0
DA:926,0
DA:927,0
DA:928,0
DA:929,0
DA:930,0
DA:931,0
DA:932,0
DA:934,0
DA:935,0
DA:936,0
DA:937,0
DA:938,0
DA:939,0
DA:940,0
DA:941,0
DA:942,0
DA:944,0
DA:945,0
DA:946,0
DA:947,0
DA:948,0
DA:949,0
DA:950,0
DA:951,0
DA:953,0
DA:955,0
DA:957,0
DA:958,0
DA:959,0
DA:960,0
DA:961,0
DA:963,0
DA:964,0
DA:965,0
DA:966,0
DA:968,0
DA:969,0
DA:970,0
DA:971,0
DA:972,0
DA:974,0
DA:975,0
DA:976,0
DA:977,0
DA:979,0
DA:981,0
DA:982,0
DA:983,0
DA:984,0
DA:986,0
DA:990,0
DA:991,0
DA:992,0
DA:996,5
DA:999,5
DA:1000,5
DA:1002,5
DA:1003,5
DA:1004,5
DA:1005,5
DA:1006,5
DA:1007,5
DA:1009,5
DA:1011,1
DA:1012,1
DA:1013,1
DA:1014,1
DA:1015,1
DA:1016,1
DA:1017,1
DA:1018,1
DA:1020,1
DA:1021,1
DA:1022,1
DA:1023,1
DA:1024,1
DA:1025,1
DA:1026,1
DA:1027,1
DA:1028,1
DA:1030,0
DA:1031,0
DA:1032,0
DA:1033,0
DA:1035,0
DA:1036,0
DA:1037,0
DA:1038,0
DA:1040,0
DA:1041,0
DA:1043,0
DA:1044,0
DA:1045,0
DA:1046,0
DA:1047,0
DA:1049,0
DA:1050,0
DA:1052,0
DA:1053,0
DA:1058,0
DA:1062,5
DA:1063,5
DA:1064,5
DA:1065,5
DA:1066,5
DA:1067,5
DA:1068,5
DA:1069,5
DA:1070,5
DA:1071,5
DA:1072,5
DA:1073,5
DA:1075,1
DA:1076,1
DA:1077,1
DA:1078,1
DA:1079,1
DA:1080,1
DA:1081,1
DA:1082,1
DA:1085,1
DA:1086,1
DA:1087,1
DA:1088,1
DA:1092,1
DA:1093,1
DA:1094,1
DA:1095,1
DA:1099,1
DA:1100,1
DA:1101,1
DA:1102,1
DA:1106,1
DA:1107,1
DA:1108,1
DA:1109,1
DA:1112,1
DA:1113,1
DA:1115,1
DA:1116,1
DA:1117,1
DA:1118,1
DA:1119,1
DA:1120,1
DA:1121,1
DA:1123,1
DA:1124,1
DA:1125,1
DA:1126,1
DA:1127,1
DA:1129,1
DA:1130,1
DA:1131,1
DA:1132,0
DA:1133,1
DA:1134,1
DA:1135,1
DA:1137,1
DA:1138,1
DA:1139,1
DA:1140,1
DA:1141,1
DA:1142,1
DA:1143,1
DA:1145,0
DA:1146,0
DA:1147,0
DA:1148,0
DA:1149,0
DA:1150,0
DA:1151,0
DA:1152,0
DA:1153,0
DA:1154,0
DA:1155,0
DA:1156,0
DA:1157,0
DA:1158,0
DA:1159,0
DA:1161,4
DA:1162,4
DA:1163,4
DA:1164,4
DA:1165,4
DA:1166,4
DA:1167,4
DA:1168,4
DA:1169,2
DA:1170,0
DA:1172,2
DA:1174,2
DA:1175,1
DA:1176,1
DA:1178,0
DA:1181,1
DA:1184,4
DA:1185,4
DA:1186,4
DA:1187,4
DA:1188,4
DA:1189,4
DA:1190,4
DA:1191,4
DA:1192,4
DA:1194,1
DA:1195,1
DA:1196,1
DA:1197,1
DA:1198,1
DA:1199,1
DA:1200,1
DA:1201,1
DA:1202,1
DA:1203,1
DA:1204,1
DA:1205,1
DA:1207,1
DA:1208,0
DA:1210,1
DA:1212,1
DA:1214,1
DA:1215,1
DA:1216,1
DA:1217,1
DA:1218,1
DA:1220,1
DA:1221,1
DA:1222,1
DA:1224,1
DA:1225,1
DA:1226,1
DA:1229,1
DA:1230,1
DA:1232,1
DA:1233,1
DA:1234,1
DA:1235,1
DA:1236,1
DA:1237,1
DA:1238,1
DA:1240,1
DA:1241,1
DA:1242,1
DA:1243,1
DA:1244,1
DA:1246,1
DA:1247,1
DA:1248,1
DA:1249,1
DA:1250,1
DA:1251,1
DA:1253,1
DA:1254,1
DA:1255,1
DA:1256,1
DA:1257,1
DA:1258,1
DA:1259,1
DA:1260,1
DA:1261,1
DA:1262,1
DA:1264,1
DA:1265,1
DA:1266,1
DA:1268,1
DA:1269,1
DA:1270,1
DA:1271,0
DA:1272,0
DA:1273,0
DA:1276,1
DA:1277,1
DA:1278,1
DA:1279,1
DA:1280,1
DA:1281,1
DA:1282,1
DA:1284,1
DA:1285,1
DA:1286,1
DA:1287,1
DA:1288,1
DA:1289,1
DA:1290,1
DA:1294,5
DA:1295,5
DA:1296,5
DA:1297,5
DA:1298,5
DA:1299,5
DA:1300,5
DA:1301,5
DA:1302,5
DA:1303,5
DA:1304,5
DA:1305,5
DA:1306,5
DA:1307,5
DA:1308,5
DA:1309,5
DA:1310,5
DA:1311,5
DA:1312,5
DA:1313,5
DA:1314,5
DA:1315,5
DA:1316,5
DA:1317,5
DA:1318,5
DA:1319,5
DA:1320,5
DA:1321,5
DA:1322,5
DA:1323,5
DA:1324,5
DA:1325,5
DA:1326,5
DA:1327,5
DA:1328,5
DA:1329,5
DA:1330,5
DA:1331,5
DA:1332,5
DA:1333,5
DA:1334,5
DA:1335,5
DA:1336,5
DA:1337,5
DA:1339,0
DA:1340,0
DA:1341,0
DA:1342,0
DA:1343,0
DA:1345,0
DA:1346,0
DA:1347,0
DA:1350,0
DA:1351,0
DA:1353,0
DA:1354,0
DA:1355,0
DA:1356,0
DA:1357,0
DA:1358,0
DA:1360,0
DA:1361,0
DA:1362,0
DA:1363,0
DA:1364,0
DA:1365,0
DA:1366,0
DA:1367,0
DA:1370,0
DA:1371,0
DA:1372,0
DA:1373,0
DA:1374,0
DA:1375,0
DA:1376,0
DA:1377,0
DA:1379,0
DA:1382,0
DA:1383,0
DA:1384,0
DA:1385,0
DA:1387,0
DA:1390,0
DA:1391,0
DA:1395,0
DA:1396,0
DA:1397,0
DA:1398,0
DA:1399,0
DA:1400,0
DA:1401,0
DA:1402,0
DA:1406,5
DA:1407,5
DA:1408,5
DA:1409,5
DA:1410,5
DA:1411,5
DA:1412,5
DA:1413,5
DA:1414,5
DA:1415,5
DA:1416,5
DA:1417,5
DA:1418,5
DA:1419,5
DA:1420,5
DA:1421,5
DA:1422,5
DA:1424,0
DA:1425,0
DA:1426,0
DA:1427,0
DA:1428,0
DA:1431,0
DA:1432,0
DA:1433,0
DA:1434,0
DA:1435,0
DA:1436,0
DA:1439,0
DA:1440,0
DA:1442,0
DA:1443,0
DA:1444,0
DA:1445,0
DA:1446,0
DA:1447,0
DA:1449,0
DA:1450,0
DA:1464,0
DA:1466,0
DA:1469,0
DA:1470,0
DA:1472,0
DA:1473,0
DA:1474,0
DA:1475,0
DA:1476,0
DA:1477,0
DA:1478,0
DA:1479,0
DA:1480,0
DA:1481,0
DA:1484,0
DA:1486,0
DA:1487,0
DA:1488,0
DA:1489,0
DA:1490,0
DA:1491,0
DA:1492,0
DA:1493,0
DA:1494,0
DA:1496,0
DA:1497,0
DA:1498,0
DA:1499,0
DA:1500,0
DA:1502,0
DA:1503,0
DA:1504,0
DA:1505,0
DA:1506,0
DA:1507,0
DA:1508,0
DA:1512,5
DA:1513,5
DA:1514,5
DA:1515,5
DA:1516,5
DA:1517,5
DA:1531,0
DA:1532,0
DA:1533,0
DA:1534,0
DA:1535,0
DA:1536,0
DA:1537,0
DA:1539,0
DA:1549,1
DA:1550,1
DA:1551,1
DA:1554,1
DA:1555,1
DA:1557,1
DA:1558,1
DA:1559,1
DA:1562,1
DA:1563,1
DA:1565,1
DA:1566,1
DA:1567,1
DA:1573,0
DA:1574,0
DA:1575,0
DA:1592,1
DA:1593,1
DA:1594,1
DA:1595,1
DA:1598,1
DA:1599,1
DA:1600,1
DA:1601,1
DA:1602,1
DA:1603,1
DA:1604,1
DA:1605,1
DA:1606,1
DA:1607,1
DA:1608,1
DA:1609,1
DA:1610,1
DA:1611,1
DA:1612,1
DA:1613,1
DA:1614,1
DA:1615,1
DA:1616,1
DA:1617,1
DA:1618,1
DA:1619,1
DA:1620,1
DA:1621,1
DA:1622,1
DA:1623,1
DA:1624,1
DA:1625,1
DA:1626,1
DA:1627,1
DA:1628,1
DA:1629,1
DA:1630,1
DA:1631,1
DA:1632,1
DA:1634,1
DA:1635,1
DA:1636,1
DA:1637,1
DA:1638,1
DA:1639,1
DA:1640,1
DA:1641,1
DA:1642,1
DA:1643,1
DA:1644,1
DA:1645,1
DA:1646,1
DA:1647,1
DA:1648,1
DA:1649,1
DA:1650,1
DA:1651,1
DA:1652,1
DA:1653,1
DA:1654,1
DA:1655,1
DA:1656,1
DA:1657,1
DA:1658,1
DA:1659,1
DA:1660,1
DA:1661,1
DA:1662,1
DA:1663,1
DA:1664,1
DA:1665,1
DA:1666,1
DA:1667,1
DA:1668,1
DA:1669,1
DA:1670,1
DA:1671,1
DA:1673,1
DA:1674,1
DA:1675,1
DA:1676,1
DA:1679,1
DA:1680,1
DA:1682,1
DA:1683,1
DA:1684,1
DA:1685,1
DA:1686,1
DA:1687,1
DA:1688,1
DA:1689,1
DA:1690,1
DA:1691,1
DA:1692,1
DA:1693,1
DA:1694,1
DA:1695,1
DA:1696,1
DA:1697,1
DA:1698,1
DA:1699,1
DA:1700,1
DA:1701,1
DA:1702,1
DA:1703,1
DA:1704,1
DA:1705,1
DA:1706,1
DA:1707,1
DA:1708,1
DA:1709,1
DA:1710,1
DA:1711,1
DA:1712,1
DA:1713,1
DA:1714,1
DA:1716,1
DA:1717,1
DA:1718,1
DA:1719,1
DA:1720,1
DA:1721,1
DA:1722,1
DA:1723,1
DA:1724,1
DA:1725,1
DA:1726,1
DA:1727,1
DA:1728,1
DA:1729,1
DA:1730,1
DA:1731,1
DA:1732,1
DA:1733,1
DA:1734,1
DA:1735,1
DA:1736,1
DA:1737,1
DA:1738,1
DA:1739,1
DA:1740,1
DA:1741,1
DA:1742,1
DA:1743,1
DA:1744,1
DA:1745,1
DA:1746,1
DA:1747,1
DA:1748,1
DA:1750,1
DA:1751,1
DA:1752,1
DA:1753,1
DA:1754,1
DA:1755,1
DA:1757,1
DA:1758,1
DA:1759,1
DA:1760,1
DA:1761,1
DA:1764,1
DA:1765,1
DA:1766,1
DA:1767,1
DA:1768,1
DA:1769,1
DA:1770,1
DA:1772,1
DA:1773,1
DA:1774,1
DA:1775,2
DA:1777,1
DA:1780,1
DA:1781,1
DA:1782,1
DA:1783,1
DA:1784,1
DA:1787,1
DA:1788,1
DA:1789,1
DA:1790,1
DA:1792,1
DA:1793,1
DA:1794,1
DA:1796,1
BRF:0
BRH:0
LF:919
LH:465
end_of_record
SF:/home/steven/code/Rust/copybook-rs/copybook-cli/src/commands/decode.rs
FN:87,_RNCNvNtNtCsi2GSroy6duf_8copybook8commands6decode3run0B7_
FN:33,_RNvNtNtCsi2GSroy6duf_8copybook8commands6decode3run
FN:87,_RNCNvNtNtCsc1gJwZrSs2L_8copybook8commands6decode3run0B7_
FN:33,_RNvNtNtCsc1gJwZrSs2L_8copybook8commands6decode3run
FNDA:8,_RNCNvNtNtCsi2GSroy6duf_8copybook8commands6decode3run0B7_
FNDA:9,_RNvNtNtCsi2GSroy6duf_8copybook8commands6decode3run
FNDA:0,_RNCNvNtNtCsc1gJwZrSs2L_8copybook8commands6decode3run0B7_
FNDA:0,_RNvNtNtCsc1gJwZrSs2L_8copybook8commands6decode3run
FNF:2
FNH:2
DA:33,9
DA:34,9
DA:36,9
DA:37,0
DA:38,9
DA:41,9
DA:42,1
DA:44,1
DA:45,1
DA:46,1
DA:47,8
DA:50,8
DA:53,8
DA:54,8
DA:55,8
DA:56,8
DA:57,8
DA:58,8
DA:59,8
DA:60,8
DA:63,8
DA:64,8
DA:65,0
DA:67,8
DA:70,8
DA:71,8
DA:72,8
DA:73,8
DA:74,8
DA:75,8
DA:76,8
DA:77,8
DA:78,8
DA:79,8
DA:80,8
DA:81,8
DA:82,8
DA:85,7
DA:86,8
DA:87,8
DA:88,8
DA:89,7
DA:90,7
DA:91,7
DA:92,7
DA:93,7
DA:94,8
DA:95,7
DA:99,7
DA:100,7
DA:101,7
DA:102,7
DA:103,7
DA:104,7
DA:105,7
DA:107,7
DA:108,0
DA:109,7
DA:112,7
DA:113,1
DA:114,6
DA:116,7
DA:119,7
DA:120,7
DA:121,9
BRF:0
BRH:0
LF:67
LH:64
end_of_record
SF:/home/steven/code/Rust/copybook-rs/copybook-cli/src/commands/encode.rs
FN:27,_RNvNtNtCsi2GSroy6duf_8copybook8commands6encode3run
FN:74,_RNCNvNtNtCsi2GSroy6duf_8copybook8commands6encode3run0B7_
FN:74,_RNCNvNtNtCsc1gJwZrSs2L_8copybook8commands6encode3run0B7_
FN:27,_RNvNtNtCsc1gJwZrSs2L_8copybook8commands6encode3run
FNDA:3,_RNvNtNtCsi2GSroy6duf_8copybook8commands6encode3run
FNDA:3,_RNCNvNtNtCsi2GSroy6duf_8copybook8commands6encode3run0B7_
FNDA:0,_RNCNvNtNtCsc1gJwZrSs2L_8copybook8commands6encode3run0B7_
FNDA:0,_RNvNtNtCsc1gJwZrSs2L_8copybook8commands6encode3run
FNF:2
FNH:2
DA:27,3
DA:28,3
DA:29,3
DA:30,3
DA:31,3
DA:32,3
DA:33,3
DA:35,3
DA:36,0
DA:37,3
DA:40,3
DA:43,3
DA:44,3
DA:45,3
DA:46,3
DA:47,3
DA:48,3
DA:49,3
DA:50,3
DA:53,3
DA:54,3
DA:55,3
DA:57,0
DA:60,3
DA:61,3
DA:62,3
DA:63,3
DA:64,3
DA:65,3
DA:66,3
DA:67,3
DA:68,3
DA:69,3
DA:72,3
DA:73,3
DA:74,3
DA:75,3
DA:76,3
DA:77,3
DA:78,3
DA:79,3
DA:80,3
DA:82,3
DA:83,3
DA:84,3
DA:85,3
DA:87,3
DA:88,3
DA:89,0
DA:91,0
DA:92,0
DA:95,0
DA:96,0
DA:97,0
DA:99,0
DA:104,3
DA:107,3
DA:108,3
DA:109,3
DA:110,1
DA:111,2
DA:112,3
DA:113,0
DA:114,3
DA:115,3
DA:116,3
DA:117,3
DA:120,3
DA:121,0
DA:122,0
DA:123,0
DA:124,0
DA:125,0
DA:126,0
DA:127,0
DA:128,3
DA:129,0
DA:130,0
DA:131,0
DA:132,0
DA:133,0
DA:134,0
DA:135,3
DA:138,3
DA:139,1
DA:140,1
DA:143,1
DA:144,1
DA:145,2
DA:147,2
DA:150,2
DA:151,2
DA:152,3
BRF:0
BRH:0
LF:94
LH:71
end_of_record
SF:/home/steven/code/Rust/copybook-rs/copybook-cli/src/commands/inspect.rs
FN:9,_RNvNtNtCsi2GSroy6duf_8copybook8commands7inspect3run
FN:9,_RNvNtNtCsc1gJwZrSs2L_8copybook8commands7inspect3run
FNDA:11,_RNvNtNtCsi2GSroy6duf_8copybook8commands7inspect3run
FNDA:0,_RNvNtNtCsc1gJwZrSs2L_8copybook8commands7inspect3run
FNF:1
FNH:1
DA:9,11
DA:10,11
DA:11,11
DA:12,11
DA:13,11
DA:14,11
DA:15,11
DA:17,11
DA:18,2
DA:19,9
DA:22,11
DA:25,11
DA:26,11
DA:27,11
DA:28,11
DA:29,11
DA:30,11
DA:31,11
DA:32,11
DA:35,8
DA:36,8
DA:37,8
DA:38,8
DA:39,8
DA:41,8
DA:42,8
DA:45,8
DA:47,25
DA:48,25
DA:49,9
DA:51,6
DA:52,6
DA:53,6
DA:55,6
DA:56,0
DA:58,6
DA:61,0
DA:62,0
DA:65,2
DA:66,2
DA:67,2
DA:69,2
DA:70,1
DA:72,1
DA:75,8
DA:76,0
DA:77,0
DA:81,25
DA:82,2
DA:83,0
DA:85,2
DA:86,2
DA:87,2
DA:89,2
DA:93,23
DA:96,25
DA:97,25
DA:102,8
DA:103,8
DA:104,11
BRF:0
BRH:0
LF:60
LH:54
end_of_record
SF:/home/steven/code/Rust/copybook-rs/copybook-cli/src/commands/parse.rs
FN:8,_RNvNtNtCsi2GSroy6duf_8copybook8commands5parse3run
FN:39,_RNCNvNtNtCsi2GSroy6duf_8copybook8commands5parse3run0B7_
FN:39,_RNCNvNtNtCsc1gJwZrSs2L_8copybook8commands5parse3run0B7_
FN:8,_RNvNtNtCsc1gJwZrSs2L_8copybook8commands5parse3run
FNDA:2,_RNvNtNtCsi2GSroy6duf_8copybook8commands5parse3run
FNDA:0,_RNCNvNtNtCsi2GSroy6duf_8copybook8commands5parse3run0B7_
FNDA:0,_RNCNvNtNtCsc1gJwZrSs2L_8copybook8commands5parse3run0B7_
FNDA:0,_RNvNtNtCsc1gJwZrSs2L_8copybook8commands5parse3run
FNF:2
FNH:1
DA:8,2
DA:9,2
DA:10,2
DA:11,2
DA:12,2
DA:13,2
DA:14,2
DA:16,2
DA:17,0
DA:18,2
DA:21,2
DA:24,2
DA:25,2
DA:26,2
DA:27,2
DA:28,2
DA:29,2
DA:30,2
DA:31,2
DA:34,2
DA:37,2
DA:38,0
DA:39,0
DA:41,2
DA:42,2
DA:43,2
DA:46,2
DA:47,2
DA:48,2
BRF:0
BRH:0
LF:30
LH:26
end_of_record
SF:/home/steven/code/Rust/copybook-rs/copybook-cli/src/commands/verify.rs
FN:35,_RNvNtNtCsi2GSroy6duf_8copybook8commands6verify10hex_window
FN:55,_RNvNtNtCsi2GSroy6duf_8copybook8commands6verify3run
FN:25,_RNvNtNtCsi2GSroy6duf_8copybook8commands6verify9hex_bytes
FN:40,_RNCNvNtNtCsi2GSroy6duf_8copybook8commands6verify10hex_window0B7_
FN:202,_RNCNvNtNtCsi2GSroy6duf_8copybook8commands6verify3runs0_0B7_
FN:263,_RNCNvNtNtCsi2GSroy6duf_8copybook8commands6verify3runs1_0B7_
FN:188,_RNCNvNtNtCsi2GSroy6duf_8copybook8commands6verify3runs_0B7_
FN:29,_RNCNvNtNtCsi2GSroy6duf_8copybook8commands6verify9hex_bytes0B7_
FN:40,_RNCNvNtNtCsc1gJwZrSs2L_8copybook8commands6verify10hex_window0B7_
FN:202,_RNCNvNtNtCsc1gJwZrSs2L_8copybook8commands6verify3runs0_0B7_
FN:263,_RNCNvNtNtCsc1gJwZrSs2L_8copybook8commands6verify3runs1_0B7_
FN:188,_RNCNvNtNtCsc1gJwZrSs2L_8copybook8commands6verify3runs_0B7_
FN:29,_RNCNvNtNtCsc1gJwZrSs2L_8copybook8commands6verify9hex_bytes0B7_
FN:35,_RNvNtNtCsc1gJwZrSs2L_8copybook8commands6verify10hex_window
FN:55,_RNvNtNtCsc1gJwZrSs2L_8copybook8commands6verify3run
FN:25,_RNvNtNtCsc1gJwZrSs2L_8copybook8commands6verify9hex_bytes
FNDA:0,_RNvNtNtCsi2GSroy6duf_8copybook8commands6verify10hex_window
FNDA:3,_RNvNtNtCsi2GSroy6duf_8copybook8commands6verify3run
FNDA:10,_RNvNtNtCsi2GSroy6duf_8copybook8commands6verify9hex_bytes
FNDA:0,_RNCNvNtNtCsi2GSroy6duf_8copybook8commands6verify10hex_window0B7_
FNDA:0,_RNCNvNtNtCsi2GSroy6duf_8copybook8commands6verify3runs0_0B7_
FNDA:1,_RNCNvNtNtCsi2GSroy6duf_8copybook8commands6verify3runs1_0B7_
FNDA:5,_RNCNvNtNtCsi2GSroy6duf_8copybook8commands6verify3runs_0B7_
FNDA:436,_RNCNvNtNtCsi2GSroy6duf_8copybook8commands6verify9hex_bytes0B7_
FNDA:0,_RNCNvNtNtCsc1gJwZrSs2L_8copybook8commands6verify10hex_window0B7_
FNDA:0,_RNCNvNtNtCsc1gJwZrSs2L_8copybook8commands6verify3runs0_0B7_
FNDA:0,_RNCNvNtNtCsc1gJwZrSs2L_8copybook8commands6verify3runs1_0B7_
FNDA:0,_RNCNvNtNtCsc1gJwZrSs2L_8copybook8commands6verify3runs_0B7_
FNDA:0,_RNCNvNtNtCsc1gJwZrSs2L_8copybook8commands6verify9hex_bytes0B7_
FNDA:0,_RNvNtNtCsc1gJwZrSs2L_8copybook8commands6verify10hex_window
FNDA:0,_RNvNtNtCsc1gJwZrSs2L_8copybook8commands6verify3run
FNDA:0,_RNvNtNtCsc1gJwZrSs2L_8copybook8commands6verify9hex_bytes
FNF:8
FNH:5
DA:25,10
DA:26,10
DA:27,10
DA:28,10
DA:29,436
DA:30,10
DA:31,10
DA:35,0
DA:36,0
DA:37,0
DA:38,0
DA:39,0
DA:40,0
DA:41,0
DA:42,0
DA:55,3
DA:56,3
DA:57,3
DA:58,3
DA:59,3
DA:60,3
DA:61,3
DA:63,3
DA:64,0
DA:65,3
DA:68,3
DA:71,3
DA:72,3
DA:73,3
DA:74,3
DA:75,3
DA:76,3
DA:77,3
DA:78,3
DA:81,3
DA:82,3
DA:85,3
DA:86,3
DA:87,3
DA:88,3
DA:89,3
DA:90,3
DA:91,3
DA:92,3
DA:93,3
DA:94,3
DA:95,3
DA:96,3
DA:97,3
DA:100,3
DA:102,3
DA:104,3
DA:105,0
DA:106,0
DA:109,3
DA:111,0
DA:112,0
DA:113,0
DA:114,0
DA:117,0
DA:118,0
DA:119,0
DA:123,3
DA:126,3
DA:127,3
DA:128,3
DA:129,3
DA:130,3
DA:131,3
DA:132,3
DA:135,3
DA:136,3
DA:137,3
DA:138,3
DA:139,3
DA:140,3
DA:144,3
DA:147,3
DA:148,3
DA:151,3
DA:154,3
DA:157,8
DA:158,5
DA:160,5
DA:161,0
DA:162,0
DA:163,0
DA:164,5
DA:166,5
DA:168,5
DA:170,5
DA:172,5
DA:173,5
DA:174,5
DA:175,0
DA:178,0
DA:183,0
DA:187,5
DA:188,5
DA:189,5
DA:190,0
DA:192,5
DA:194,5
DA:196,5
DA:197,5
DA:198,5
DA:199,5
DA:200,5
DA:201,5
DA:202,5
DA:203,5
DA:204,5
DA:205,5
DA:209,5
DA:212,5
DA:213,5
DA:214,5
DA:215,5
DA:216,5
DA:217,5
DA:218,5
DA:221,5
DA:222,5
DA:223,5
DA:232,3
DA:235,3
DA:236,3
DA:237,3
DA:238,3
DA:239,3
DA:240,3
DA:241,3
DA:242,3
DA:243,3
DA:245,3
DA:247,3
DA:248,0
DA:249,0
DA:250,0
DA:251,0
DA:252,3
DA:253,8
DA:254,5
DA:255,5
DA:256,0
DA:257,0
DA:258,0
DA:261,3
DA:262,1
DA:263,1
DA:264,1
DA:265,1
DA:266,1
DA:267,2
DA:270,3
DA:272,3
DA:273,3
DA:274,3
BRF:0
BRH:0
LF:164
LH:129
end_of_record
SF:/home/steven/code/Rust/copybook-rs/copybook-cli/src/commands/verify_report.rs
FN:108,_RNvMNtNtCsi2GSroy6duf_8copybook8commands13verify_reportNtB2_12VerifyReport10add_sample
FN:115,_RNvMNtNtCsi2GSroy6duf_8copybook8commands13verify_reportNtB2_12VerifyReport17set_records_total
FN:75,_RNvMNtNtCsi2GSroy6duf_8copybook8commands13verify_reportNtB2_12VerifyReport3new
FN:98,_RNvMNtNtCsi2GSroy6duf_8copybook8commands13verify_reportNtB2_12VerifyReport9add_error
FN:120,_RNvMNtNtCsi2GSroy6duf_8copybook8commands13verify_reportNtB2_12VerifyReport9exit_code
FN:108,_RNvMNtNtCsc1gJwZrSs2L_8copybook8commands13verify_reportNtB2_12VerifyReport10add_sample
FN:115,_RNvMNtNtCsc1gJwZrSs2L_8copybook8commands13verify_reportNtB2_12VerifyReport17set_records_total
FN:75,_RNvMNtNtCsc1gJwZrSs2L_8copybook8commands13verify_reportNtB2_12VerifyReport3new
FN:98,_RNvMNtNtCsc1gJwZrSs2L_8copybook8commands13verify_reportNtB2_12VerifyReport9add_error
FN:120,_RNvMNtNtCsc1gJwZrSs2L_8copybook8commands13verify_reportNtB2_12VerifyReport9exit_code
FNDA:5,_RNvMNtNtCsi2GSroy6duf_8copybook8commands13verify_reportNtB2_12VerifyReport10add_sample
FNDA:3,_RNvMNtNtCsi2GSroy6duf_8copybook8commands13verify_reportNtB2_12VerifyReport17set_records_total
FNDA:3,_RNvMNtNtCsi2GSroy6duf_8copybook8commands13verify_reportNtB2_12VerifyReport3new
FNDA:5,_RNvMNtNtCsi2GSroy6duf_8copybook8commands13verify_reportNtB2_12VerifyReport9add_error
FNDA:3,_RNvMNtNtCsi2GSroy6duf_8copybook8commands13verify_reportNtB2_12VerifyReport9exit_code
FNDA:0,_RNvMNtNtCsc1gJwZrSs2L_8copybook8commands13verify_reportNtB2_12VerifyReport10add_sample
FNDA:0,_RNvMNtNtCsc1gJwZrSs2L_8copybook8commands13verify_reportNtB2_12VerifyReport17set_records_total
FNDA:0,_RNvMNtNtCsc1gJwZrSs2L_8copybook8commands13verify_reportNtB2_12VerifyReport3new
FNDA:0,_RNvMNtNtCsc1gJwZrSs2L_8copybook8commands13verify_reportNtB2_12VerifyReport9add_error
FNDA:0,_RNvMNtNtCsc1gJwZrSs2L_8copybook8commands13verify_reportNtB2_12VerifyReport9exit_code
FNF:5
FNH:5
DA:75,3
DA:76,3
DA:77,3
DA:78,3
DA:79,3
DA:80,3
DA:81,3
DA:82,3
DA:83,3
DA:84,3
DA:85,3
DA:86,3
DA:87,3
DA:88,3
DA:89,3
DA:90,3
DA:91,3
DA:92,3
DA:93,3
DA:94,3
DA:95,3
DA:98,5
DA:99,5
DA:100,5
DA:101,5
DA:102,0
DA:103,0
DA:104,5
DA:105,5
DA:108,5
DA:109,5
DA:110,5
DA:111,5
DA:112,5
DA:115,3
DA:116,3
DA:117,3
DA:120,3
DA:121,3
DA:122,3
DA:124,0
DA:126,3
BRF:0
BRH:0
LF:42
LH:39
end_of_record
SF:/home/steven/code/Rust/copybook-rs/copybook-cli/src/main.rs
FN:199,_RNvCsi2GSroy6duf_8copybook4main
FN:199,_RNvCsc1gJwZrSs2L_8copybook4main
FNDA:40,_RNvCsi2GSroy6duf_8copybook4main
FNDA:0,_RNvCsc1gJwZrSs2L_8copybook4main
FNF:1
FNH:1
DA:199,40
DA:200,40
DA:203,40
DA:204,40
DA:205,40
DA:206,40
DA:208,40
DA:210,14
DA:211,14
DA:212,14
DA:213,14
DA:214,14
DA:216,11
DA:217,11
DA:218,11
DA:219,11
DA:220,11
DA:222,9
DA:223,9
DA:224,9
DA:225,9
DA:226,9
DA:227,9
DA:228,9
DA:229,9
DA:230,9
DA:231,9
DA:232,9
DA:233,9
DA:234,9
DA:235,9
DA:236,9
DA:237,9
DA:238,9
DA:239,9
DA:240,9
DA:241,9
DA:242,9
DA:243,9
DA:244,9
DA:245,9
DA:246,9
DA:247,9
DA:248,9
DA:249,9
DA:250,9
DA:251,9
DA:252,9
DA:253,9
DA:254,9
DA:255,9
DA:256,9
DA:257,9
DA:259,3
DA:260,3
DA:261,3
DA:262,3
DA:263,3
DA:264,3
DA:265,3
DA:266,3
DA:267,3
DA:268,3
DA:269,3
DA:270,3
DA:271,3
DA:272,3
DA:273,3
DA:274,3
DA:275,3
DA:276,3
DA:277,3
DA:278,3
DA:279,3
DA:280,3
DA:281,3
DA:282,3
DA:283,3
DA:284,3
DA:285,3
DA:286,3
DA:287,3
DA:288,3
DA:289,3
DA:292,3
DA:293,3
DA:294,3
DA:295,3
DA:296,3
DA:297,3
DA:298,3
DA:299,3
DA:300,3
DA:302,3
DA:303,3
DA:304,3
DA:305,3
DA:306,3
DA:307,3
DA:308,3
DA:309,3
DA:310,3
DA:314,40
DA:315,35
DA:316,35
DA:318,5
DA:319,5
DA:320,5
BRF:0
BRH:0
LF:108
LH:108
end_of_record
SF:/home/steven/code/Rust/copybook-rs/copybook-cli/src/utils.rs
FN:76,_RNvNtCsi2GSroy6duf_8copybook5utils10emit_fatal
FN:71,_RNvNtCsi2GSroy6duf_8copybook5utils19determine_exit_code
FN:18,_RINvNtCsi2GSroy6duf_8copybook5utils12atomic_writeNtNtCs4eoO4cHkFdT_3std4path7PathBufNCNvNtNtB4_8commands5parse3run0EB4_
FN:18,_RINvNtCsi2GSroy6duf_8copybook5utils12atomic_writeRNtNtCs4eoO4cHkFdT_3std4path4PathNCNvNtNtB4_8commands6encode3run0EB4_
FN:18,_RINvNtCsi2GSroy6duf_8copybook5utils12atomic_writeRNtNtCs4eoO4cHkFdT_3std4path7PathBufNCNvNtNtB4_8commands6decode3run0EB4_
FN:18,_RINvNtCsi2GSroy6duf_8copybook5utils12atomic_writeRNtNtCs4eoO4cHkFdT_3std4path7PathBufNCNvNtNtB4_8commands6verify3runs1_0EB4_
FN:89,_RINvNtCsi2GSroy6duf_8copybook5utils18read_file_or_stdinRNtNtCs4eoO4cHkFdT_3std4path4PathEB4_
FN:89,_RINvNtCsi2GSroy6duf_8copybook5utils18read_file_or_stdinRNtNtCs4eoO4cHkFdT_3std4path7PathBufEB4_
FN:25,_RNCINvNtCsi2GSroy6duf_8copybook5utils12atomic_writeNtNtCs4eoO4cHkFdT_3std4path7PathBufNCNvNtNtB6_8commands5parse3run0E0B6_
FN:25,_RNCINvNtCsi2GSroy6duf_8copybook5utils12atomic_writeRNtNtCs4eoO4cHkFdT_3std4path4PathNCNvNtNtB6_8commands6encode3run0E0B6_
FN:25,_RNCINvNtCsi2GSroy6duf_8copybook5utils12atomic_writeRNtNtCs4eoO4cHkFdT_3std4path7PathBufNCNvNtNtB6_8commands6decode3run0E0B6_
FN:25,_RNCINvNtCsi2GSroy6duf_8copybook5utils12atomic_writeRNtNtCs4eoO4cHkFdT_3std4path7PathBufNCNvNtNtB6_8commands6verify3runs1_0E0B6_
FN:145,_RNvNtNtCsc1gJwZrSs2L_8copybook5utils5testss_18test_temp_path_for
FN:137,_RNvNtNtCsc1gJwZrSs2L_8copybook5utils5testss_24test_determine_exit_code
FN:110,_RNvNtNtCsc1gJwZrSs2L_8copybook5utils5testss_25test_atomic_write_success
FN:124,_RNvNtNtCsc1gJwZrSs2L_8copybook5utils5testss_40test_atomic_write_failure_leaves_no_file
FN:49,_RNvNtCsc1gJwZrSs2L_8copybook5utils13temp_path_for
FN:71,_RNvNtCsc1gJwZrSs2L_8copybook5utils19determine_exit_code
FN:114,_RNCNvNtNtCsc1gJwZrSs2L_8copybook5utils5testss_25test_atomic_write_success0B7_
FN:128,_RNCNvNtNtCsc1gJwZrSs2L_8copybook5utils5testss_40test_atomic_write_failure_leaves_no_file0B7_
FN:89,_RINvNtCsc1gJwZrSs2L_8copybook5utils18read_file_or_stdinpEB4_
FN:76,_RNvNtCsc1gJwZrSs2L_8copybook5utils10emit_fatal
FN:18,_RINvNtCsc1gJwZrSs2L_8copybook5utils12atomic_writeRNtNtCs4eoO4cHkFdT_3std4path7PathBufNCNvNtB2_5testss_25test_atomic_write_success0EB4_
FN:18,_RINvNtCsc1gJwZrSs2L_8copybook5utils12atomic_writeRNtNtCs4eoO4cHkFdT_3std4path7PathBufNCNvNtB2_5testss_40test_atomic_write_failure_leaves_no_file0EB4_
FN:25,_RNCINvNtCsc1gJwZrSs2L_8copybook5utils12atomic_writeRNtNtCs4eoO4cHkFdT_3std4path7PathBufNCNvNtB4_5testss_25test_atomic_write_success0E0B6_
FN:25,_RNCINvNtCsc1gJwZrSs2L_8copybook5utils12atomic_writeRNtNtCs4eoO4cHkFdT_3std4path7PathBufNCNvNtB4_5testss_40test_atomic_write_failure_leaves_no_file0E0B6_
FN:52,_RNCNvNtCsc1gJwZrSs2L_8copybook5utils13temp_path_for0B5_
FNDA:6,_RNvNtCsi2GSroy6duf_8copybook5utils10emit_fatal
FNDA:9,_RNvNtCsi2GSroy6duf_8copybook5utils19determine_exit_code
FNDA:0,_RINvNtCsi2GSroy6duf_8copybook5utils12atomic_writeNtNtCs4eoO4cHkFdT_3std4path7PathBufNCNvNtNtB4_8commands5parse3run0EB4_
FNDA:3,_RINvNtCsi2GSroy6duf_8copybook5utils12atomic_writeRNtNtCs4eoO4cHkFdT_3std4path4PathNCNvNtNtB4_8commands6encode3run0EB4_
FNDA:8,_RINvNtCsi2GSroy6duf_8copybook5utils12atomic_writeRNtNtCs4eoO4cHkFdT_3std4path7PathBufNCNvNtNtB4_8commands6decode3run0EB4_
FNDA:1,_RINvNtCsi2GSroy6duf_8copybook5utils12atomic_writeRNtNtCs4eoO4cHkFdT_3std4path7PathBufNCNvNtNtB4_8commands6verify3runs1_0EB4_
FNDA:3,_RINvNtCsi2GSroy6duf_8copybook5utils18read_file_or_stdinRNtNtCs4eoO4cHkFdT_3std4path4PathEB4_
FNDA:24,_RINvNtCsi2GSroy6duf_8copybook5utils18read_file_or_stdinRNtNtCs4eoO4cHkFdT_3std4path7PathBufEB4_
FNDA:0,_RNCINvNtCsi2GSroy6duf_8copybook5utils12atomic_writeNtNtCs4eoO4cHkFdT_3std4path7PathBufNCNvNtNtB6_8commands5parse3run0E0B6_
FNDA:0,_RNCINvNtCsi2GSroy6duf_8copybook5utils12atomic_writeRNtNtCs4eoO4cHkFdT_3std4path4PathNCNvNtNtB6_8commands6encode3run0E0B6_
FNDA:0,_RNCINvNtCsi2GSroy6duf_8copybook5utils12atomic_writeRNtNtCs4eoO4cHkFdT_3std4path7PathBufNCNvNtNtB6_8commands6decode3run0E0B6_
FNDA:0,_RNCINvNtCsi2GSroy6duf_8copybook5utils12atomic_writeRNtNtCs4eoO4cHkFdT_3std4path7PathBufNCNvNtNtB6_8commands6verify3runs1_0E0B6_
FNDA:1,_RNvNtNtCsc1gJwZrSs2L_8copybook5utils5testss_18test_temp_path_for
FNDA:1,_RNvNtNtCsc1gJwZrSs2L_8copybook5utils5testss_24test_determine_exit_code
FNDA:1,_RNvNtNtCsc1gJwZrSs2L_8copybook5utils5testss_25test_atomic_write_success
FNDA:1,_RNvNtNtCsc1gJwZrSs2L_8copybook5utils5testss_40test_atomic_write_failure_leaves_no_file
FNDA:2,_RNvNtCsc1gJwZrSs2L_8copybook5utils13temp_path_for
FNDA:4,_RNvNtCsc1gJwZrSs2L_8copybook5utils19determine_exit_code
FNDA:1,_RNCNvNtNtCsc1gJwZrSs2L_8copybook5utils5testss_25test_atomic_write_success0B7_
FNDA:1,_RNCNvNtNtCsc1gJwZrSs2L_8copybook5utils5testss_40test_atomic_write_failure_leaves_no_file0B7_
FNDA:0,_RINvNtCsc1gJwZrSs2L_8copybook5utils18read_file_or_stdinpEB4_
FNDA:0,_RNvNtCsc1gJwZrSs2L_8copybook5utils10emit_fatal
FNDA:1,_RINvNtCsc1gJwZrSs2L_8copybook5utils12atomic_writeRNtNtCs4eoO4cHkFdT_3std4path7PathBufNCNvNtB2_5testss_25test_atomic_write_success0EB4_
FNDA:1,_RINvNtCsc1gJwZrSs2L_8copybook5utils12atomic_writeRNtNtCs4eoO4cHkFdT_3std4path7PathBufNCNvNtB2_5testss_40test_atomic_write_failure_leaves_no_file0EB4_
FNDA:0,_RNCINvNtCsc1gJwZrSs2L_8copybook5utils12atomic_writeRNtNtCs4eoO4cHkFdT_3std4path7PathBufNCNvNtB4_5testss_25test_atomic_write_success0E0B6_
FNDA:0,_RNCINvNtCsc1gJwZrSs2L_8copybook5utils12atomic_writeRNtNtCs4eoO4cHkFdT_3std4path7PathBufNCNvNtB4_5testss_40test_atomic_write_failure_leaves_no_file0E0B6_
FNDA:0,_RNCNvNtCsc1gJwZrSs2L_8copybook5utils13temp_path_for0B5_
FNF:13
FNH:11
DA:18,14
DA:19,14
DA:20,14
DA:22,14
DA:25,14
DA:26,14
DA:28,14
DA:31,14
DA:34,12
DA:35,12
DA:38,12
DA:39,12
DA:41,12
DA:42,14
DA:49,2
DA:50,2
DA:51,2
DA:52,2
DA:53,2
DA:54,2
DA:56,2
DA:57,2
DA:59,0
DA:61,2
DA:71,13
DA:72,13
DA:73,13
DA:76,6
DA:77,6
DA:78,6
DA:79,6
DA:89,27
DA:90,27
DA:92,27
DA:93,2
DA:94,2
DA:95,2
DA:96,2
DA:98,25
DA:99,25
DA:101,27
DA:110,1
DA:111,1
DA:112,1
DA:114,1
DA:116,1
DA:117,1
DA:119,1
DA:120,1
DA:121,1
DA:124,1
DA:125,1
DA:126,1
DA:128,1
DA:129,1
DA:130,1
DA:132,1
DA:133,1
DA:134,1
DA:137,1
DA:138,1
DA:139,1
DA:140,1
DA:141,1
DA:142,1
DA:145,1
DA:146,1
DA:147,1
DA:148,1
DA:150,1
DA:151,1
DA:152,1
DA:153,1
BRF:0
BRH:0
LF:77
LH:74
end_of_record
SF:/home/steven/code/Rust/copybook-rs/copybook-codec/src/charset.rs
FN:350,_RNvNtCs8M7rtMEmd2k_14copybook_codec7charset14ebcdic_to_utf8
FN:419,_RNvNtCs8M7rtMEmd2k_14copybook_codec7charset14utf8_to_ebcdic
FN:325,_RNvNtCs8M7rtMEmd2k_14copybook_codec7charset16get_ebcdic_table
FN:338,_RNvNtCs8M7rtMEmd2k_14copybook_codec7charset20get_zoned_sign_table
FN:356,_RNCNvNtCs8M7rtMEmd2k_14copybook_codec7charset14ebcdic_to_utf80B5_
FN:425,_RNCNvNtCs8M7rtMEmd2k_14copybook_codec7charset14utf8_to_ebcdic0B5_
FN:356,_RNCNvNtCs7MLK0KUMdQf_14copybook_codec7charset14ebcdic_to_utf80B5_
FN:425,_RNCNvNtCs7MLK0KUMdQf_14copybook_codec7charset14utf8_to_ebcdic0B5_
FN:350,_RNvNtCs7MLK0KUMdQf_14copybook_codec7charset14ebcdic_to_utf8
FN:419,_RNvNtCs7MLK0KUMdQf_14copybook_codec7charset14utf8_to_ebcdic
FN:325,_RNvNtCs7MLK0KUMdQf_14copybook_codec7charset16get_ebcdic_table
FN:338,_RNvNtCs7MLK0KUMdQf_14copybook_codec7charset20get_zoned_sign_table
FNDA:223306,_RNvNtCs8M7rtMEmd2k_14copybook_codec7charset14ebcdic_to_utf8
FNDA:22,_RNvNtCs8M7rtMEmd2k_14copybook_codec7charset14utf8_to_ebcdic
FNDA:20041,_RNvNtCs8M7rtMEmd2k_14copybook_codec7charset16get_ebcdic_table
FNDA:139420,_RNvNtCs8M7rtMEmd2k_14copybook_codec7charset20get_zoned_sign_table
FNDA:0,_RNCNvNtCs8M7rtMEmd2k_14copybook_codec7charset14ebcdic_to_utf80B5_
FNDA:0,_RNCNvNtCs8M7rtMEmd2k_14copybook_codec7charset14utf8_to_ebcdic0B5_
FNDA:0,_RNCNvNtCs7MLK0KUMdQf_14copybook_codec7charset14ebcdic_to_utf80B5_
FNDA:0,_RNCNvNtCs7MLK0KUMdQf_14copybook_codec7charset14utf8_to_ebcdic0B5_
FNDA:3,_RNvNtCs7MLK0KUMdQf_14copybook_codec7charset14ebcdic_to_utf8
FNDA:3,_RNvNtCs7MLK0KUMdQf_14copybook_codec7charset14utf8_to_ebcdic
FNDA:1,_RNvNtCs7MLK0KUMdQf_14copybook_codec7charset16get_ebcdic_table
FNDA:3,_RNvNtCs7MLK0KUMdQf_14copybook_codec7charset20get_zoned_sign_table
FNF:6
FNH:4
DA:325,20042
DA:326,20042
DA:327,0
DA:328,20032
DA:329,2
DA:330,2
DA:331,4
DA:332,2
DA:334,20042
DA:338,139423
DA:339,139423
DA:340,105583
DA:341,33840
DA:343,139423
DA:350,223309
DA:352,223309
DA:353,203274
DA:354,20035
DA:356,20035
DA:357,0
DA:358,0
DA:359,0
DA:361,0
DA:366,20035
DA:368,330473
DA:369,310438
DA:372,310438
DA:374,310438
DA:375,310438
DA:376,310438
DA:378,0
DA:380,0
DA:381,0
DA:382,0
DA:383,0
DA:385,0
DA:386,0
DA:387,0
DA:388,0
DA:391,0
DA:392,0
DA:393,0
DA:394,0
DA:396,0
DA:398,0
DA:399,0
DA:400,0
DA:401,0
DA:403,0
DA:404,0
DA:405,0
DA:406,0
DA:411,20035
DA:412,223309
DA:419,25
DA:421,25
DA:422,18
DA:423,7
DA:425,7
DA:426,0
DA:427,0
DA:428,0
DA:430,0
DA:433,7
DA:434,1792
DA:435,1792
DA:436,1792
DA:437,1792
DA:438,1792
DA:439,1792
DA:440,1792
DA:443,7
DA:445,116
DA:446,116
DA:447,116
DA:448,116
DA:449,0
DA:450,0
DA:451,0
DA:452,0
DA:456,7
DA:457,25
BRF:0
BRH:0
LF:86
LH:47
end_of_record
SF:/home/steven/code/Rust/copybook-rs/copybook-codec/src/fidelity.rs
FN:892,_RNCNvNtNtCs8M7rtMEmd2k_14copybook_codec8fidelity5utils23calculate_batch_metrics0B7_
FN:900,_RNCNvNtNtCs8M7rtMEmd2k_14copybook_codec8fidelity5utils23calculate_batch_metricss0_0B7_
FN:905,_RNCNvNtNtCs8M7rtMEmd2k_14copybook_codec8fidelity5utils23calculate_batch_metricss1_0B7_
FN:896,_RNCNvNtNtCs8M7rtMEmd2k_14copybook_codec8fidelity5utils23calculate_batch_metricss_0B7_
FN:679,_RNCNvMNtCs8M7rtMEmd2k_14copybook_codec8fidelityNtB4_23BinaryFidelityValidator19generate_edge_cases0B6_
FN:512,_RNvMNtCs8M7rtMEmd2k_14copybook_codec8fidelityNtB2_23BinaryFidelityValidator14get_field_size
FN:687,_RNvMNtCs8M7rtMEmd2k_14copybook_codec8fidelityNtB2_23BinaryFidelityValidator14test_edge_case
FN:451,_RNvMNtCs8M7rtMEmd2k_14copybook_codec8fidelityNtB2_23BinaryFidelityValidator16calculate_sha256
FN:584,_RNvMNtCs8M7rtMEmd2k_14copybook_codec8fidelityNtB2_23BinaryFidelityValidator16get_field_offset
FN:589,_RNvMNtCs8M7rtMEmd2k_14copybook_codec8fidelityNtB2_23BinaryFidelityValidator16is_numeric_field
FN:670,_RNvMNtCs8M7rtMEmd2k_14copybook_codec8fidelityNtB2_23BinaryFidelityValidator19generate_edge_cases
FN:633,_RNvMNtCs8M7rtMEmd2k_14copybook_codec8fidelityNtB2_23BinaryFidelityValidator20get_cobol_field_type
FN:695,_RNvMNtCs8M7rtMEmd2k_14copybook_codec8fidelityNtB2_23BinaryFidelityValidator21count_different_bytes
FN:458,_RNvMNtCs8M7rtMEmd2k_14copybook_codec8fidelityNtB2_23BinaryFidelityValidator21find_byte_differences
FN:239,_RNvMNtCs8M7rtMEmd2k_14copybook_codec8fidelityNtB2_23BinaryFidelityValidator21with_precision_config
FN:601,_RNvMNtCs8M7rtMEmd2k_14copybook_codec8fidelityNtB2_23BinaryFidelityValidator23analyze_field_precision
FN:711,_RNvMNtCs8M7rtMEmd2k_14copybook_codec8fidelityNtB2_23BinaryFidelityValidator24determine_overall_status
FN:767,_RNvMNtCs8M7rtMEmd2k_14copybook_codec8fidelityNtB2_23BinaryFidelityValidator24estimate_memory_overhead
FN:750,_RNvMNtCs8M7rtMEmd2k_14copybook_codec8fidelityNtB2_23BinaryFidelityValidator26calculate_field_deviations
FN:773,_RNvMNtCs8M7rtMEmd2k_14copybook_codec8fidelityNtB2_23BinaryFidelityValidator27calculate_throughput_impact
FN:423,_RNvMNtCs8M7rtMEmd2k_14copybook_codec8fidelityNtB2_23BinaryFidelityValidator27validate_edge_case_handling
FN:395,_RNvMNtCs8M7rtMEmd2k_14copybook_codec8fidelityNtB2_23BinaryFidelityValidator27validate_format_consistency
FN:498,_RNvMNtCs8M7rtMEmd2k_14copybook_codec8fidelityNtB2_23BinaryFidelityValidator28get_field_context_for_offset
FN:619,_RNvMNtCs8M7rtMEmd2k_14copybook_codec8fidelityNtB2_23BinaryFidelityValidator29is_within_precision_tolerance
FN:651,_RNvMNtCs8M7rtMEmd2k_14copybook_codec8fidelityNtB2_23BinaryFidelityValidator30check_field_boundary_alignment
FN:331,_RNvMNtCs8M7rtMEmd2k_14copybook_codec8fidelityNtB2_23BinaryFidelityValidator30validate_field_level_integrity
FN:311,_RNvMNtCs8M7rtMEmd2k_14copybook_codec8fidelityNtB2_23BinaryFidelityValidator30validate_lossless_preservation
FN:661,_RNvMNtCs8M7rtMEmd2k_14copybook_codec8fidelityNtB2_23BinaryFidelityValidator31check_cobol_format_preservation
FN:245,_RNvMNtCs8M7rtMEmd2k_14copybook_codec8fidelityNtB2_23BinaryFidelityValidator31validate_comprehensive_fidelity
FN:361,_RNvMNtCs8M7rtMEmd2k_14copybook_codec8fidelityNtB2_23BinaryFidelityValidator31validate_precision_preservation
FN:524,_RNvMNtCs8M7rtMEmd2k_14copybook_codec8fidelityNtB2_23BinaryFidelityValidator31validate_single_field_integrity
FN:227,_RNvMNtCs8M7rtMEmd2k_14copybook_codec8fidelityNtB2_23BinaryFidelityValidator3new
FN:834,_RNvXs0_NtCs8M7rtMEmd2k_14copybook_codec8fidelityNtB5_12CodecOptionsNtNtCshnvtj5zUHGu_4core7default7Default7default
FN:782,_RNvXs_NtCs8M7rtMEmd2k_14copybook_codec8fidelityNtB4_15PrecisionConfigNtNtCshnvtj5zUHGu_4core7default7Default7default
FN:850,_RNvNtNtCs7MLK0KUMdQf_14copybook_codec8fidelity5utils25create_standard_validator
FN:679,_RNCNvMNtCs7MLK0KUMdQf_14copybook_codec8fidelityNtB4_23BinaryFidelityValidator19generate_edge_cases0B6_
FN:892,_RNCNvNtNtCs7MLK0KUMdQf_14copybook_codec8fidelity5utils23calculate_batch_metrics0B7_
FN:900,_RNCNvNtNtCs7MLK0KUMdQf_14copybook_codec8fidelity5utils23calculate_batch_metricss0_0B7_
FN:905,_RNCNvNtNtCs7MLK0KUMdQf_14copybook_codec8fidelity5utils23calculate_batch_metricss1_0B7_
FN:896,_RNCNvNtNtCs7MLK0KUMdQf_14copybook_codec8fidelity5utils23calculate_batch_metricss_0B7_
FN:687,_RNvMNtCs7MLK0KUMdQf_14copybook_codec8fidelityNtB2_23BinaryFidelityValidator14test_edge_case
FN:584,_RNvMNtCs7MLK0KUMdQf_14copybook_codec8fidelityNtB2_23BinaryFidelityValidator16get_field_offset
FN:589,_RNvMNtCs7MLK0KUMdQf_14copybook_codec8fidelityNtB2_23BinaryFidelityValidator16is_numeric_field
FN:670,_RNvMNtCs7MLK0KUMdQf_14copybook_codec8fidelityNtB2_23BinaryFidelityValidator19generate_edge_cases
FN:633,_RNvMNtCs7MLK0KUMdQf_14copybook_codec8fidelityNtB2_23BinaryFidelityValidator20get_cobol_field_type
FN:695,_RNvMNtCs7MLK0KUMdQf_14copybook_codec8fidelityNtB2_23BinaryFidelityValidator21count_different_bytes
FN:239,_RNvMNtCs7MLK0KUMdQf_14copybook_codec8fidelityNtB2_23BinaryFidelityValidator21with_precision_config
FN:601,_RNvMNtCs7MLK0KUMdQf_14copybook_codec8fidelityNtB2_23BinaryFidelityValidator23analyze_field_precision
FN:711,_RNvMNtCs7MLK0KUMdQf_14copybook_codec8fidelityNtB2_23BinaryFidelityValidator24determine_overall_status
FN:767,_RNvMNtCs7MLK0KUMdQf_14copybook_codec8fidelityNtB2_23BinaryFidelityValidator24estimate_memory_overhead
FN:750,_RNvMNtCs7MLK0KUMdQf_14copybook_codec8fidelityNtB2_23BinaryFidelityValidator26calculate_field_deviations
FN:773,_RNvMNtCs7MLK0KUMdQf_14copybook_codec8fidelityNtB2_23BinaryFidelityValidator27calculate_throughput_impact
FN:423,_RNvMNtCs7MLK0KUMdQf_14copybook_codec8fidelityNtB2_23BinaryFidelityValidator27validate_edge_case_handling
FN:395,_RNvMNtCs7MLK0KUMdQf_14copybook_codec8fidelityNtB2_23BinaryFidelityValidator27validate_format_consistency
FN:619,_RNvMNtCs7MLK0KUMdQf_14copybook_codec8fidelityNtB2_23BinaryFidelityValidator29is_within_precision_tolerance
FN:651,_RNvMNtCs7MLK0KUMdQf_14copybook_codec8fidelityNtB2_23BinaryFidelityValidator30check_field_boundary_alignment
FN:331,_RNvMNtCs7MLK0KUMdQf_14copybook_codec8fidelityNtB2_23BinaryFidelityValidator30validate_field_level_integrity
FN:311,_RNvMNtCs7MLK0KUMdQf_14copybook_codec8fidelityNtB2_23BinaryFidelityValidator30validate_lossless_preservation
FN:661,_RNvMNtCs7MLK0KUMdQf_14copybook_codec8fidelityNtB2_23BinaryFidelityValidator31check_cobol_format_preservation
FN:245,_RNvMNtCs7MLK0KUMdQf_14copybook_codec8fidelityNtB2_23BinaryFidelityValidator31validate_comprehensive_fidelity
FN:361,_RNvMNtCs7MLK0KUMdQf_14copybook_codec8fidelityNtB2_23BinaryFidelityValidator31validate_precision_preservation
FN:524,_RNvMNtCs7MLK0KUMdQf_14copybook_codec8fidelityNtB2_23BinaryFidelityValidator31validate_single_field_integrity
FN:888,_RNvNtNtCs7MLK0KUMdQf_14copybook_codec8fidelity5utils23calculate_batch_metrics
FN:873,_RNvNtNtCs7MLK0KUMdQf_14copybook_codec8fidelity5utils23validate_batch_fidelity
FN:855,_RNvNtNtCs7MLK0KUMdQf_14copybook_codec8fidelity5utils26create_financial_validator
FN:958,_RNvNtNtCs7MLK0KUMdQf_14copybook_codec8fidelity5testss_21test_byte_differences
FN:948,_RNvNtNtCs7MLK0KUMdQf_14copybook_codec8fidelity5testss_23test_sha256_calculation
FN:1000,_RNvNtNtCs7MLK0KUMdQf_14copybook_codec8fidelity5testss_27test_field_size_calculation
FN:991,_RNvNtNtCs7MLK0KUMdQf_14copybook_codec8fidelity5testss_29test_utils_standard_validator
FN:938,_RNvNtNtCs7MLK0KUMdQf_14copybook_codec8fidelity5testss_32test_fidelity_validator_creation
FN:974,_RNvNtNtCs7MLK0KUMdQf_14copybook_codec8fidelity5testss_33test_precision_tolerance_defaults
FN:512,_RNvMNtCs7MLK0KUMdQf_14copybook_codec8fidelityNtB2_23BinaryFidelityValidator14get_field_size
FN:451,_RNvMNtCs7MLK0KUMdQf_14copybook_codec8fidelityNtB2_23BinaryFidelityValidator16calculate_sha256
FN:458,_RNvMNtCs7MLK0KUMdQf_14copybook_codec8fidelityNtB2_23BinaryFidelityValidator21find_byte_differences
FN:498,_RNvMNtCs7MLK0KUMdQf_14copybook_codec8fidelityNtB2_23BinaryFidelityValidator28get_field_context_for_offset
FN:227,_RNvMNtCs7MLK0KUMdQf_14copybook_codec8fidelityNtB2_23BinaryFidelityValidator3new
FN:834,_RNvXs0_NtCs7MLK0KUMdQf_14copybook_codec8fidelityNtB5_12CodecOptionsNtNtCshnvtj5zUHGu_4core7default7Default7default
FN:782,_RNvXs_NtCs7MLK0KUMdQf_14copybook_codec8fidelityNtB4_15PrecisionConfigNtNtCshnvtj5zUHGu_4core7default7Default7default
FNDA:0,_RNCNvNtNtCs8M7rtMEmd2k_14copybook_codec8fidelity5utils23calculate_batch_metrics0B7_
FNDA:0,_RNCNvNtNtCs8M7rtMEmd2k_14copybook_codec8fidelity5utils23calculate_batch_metricss0_0B7_
FNDA:0,_RNCNvNtNtCs8M7rtMEmd2k_14copybook_codec8fidelity5utils23calculate_batch_metricss1_0B7_
FNDA:0,_RNCNvNtNtCs8M7rtMEmd2k_14copybook_codec8fidelity5utils23calculate_batch_metricss_0B7_
FNDA:0,_RNCNvMNtCs8M7rtMEmd2k_14copybook_codec8fidelityNtB4_23BinaryFidelityValidator19generate_edge_cases0B6_
FNDA:0,_RNvMNtCs8M7rtMEmd2k_14copybook_codec8fidelityNtB2_23BinaryFidelityValidator14get_field_size
FNDA:0,_RNvMNtCs8M7rtMEmd2k_14copybook_codec8fidelityNtB2_23BinaryFidelityValidator14test_edge_case
FNDA:0,_RNvMNtCs8M7rtMEmd2k_14copybook_codec8fidelityNtB2_23BinaryFidelityValidator16calculate_sha256
FNDA:0,_RNvMNtCs8M7rtMEmd2k_14copybook_codec8fidelityNtB2_23BinaryFidelityValidator16get_field_offset
FNDA:0,_RNvMNtCs8M7rtMEmd2k_14copybook_codec8fidelityNtB2_23BinaryFidelityValidator16is_numeric_field
FNDA:0,_RNvMNtCs8M7rtMEmd2k_14copybook_codec8fidelityNtB2_23BinaryFidelityValidator19generate_edge_cases
FNDA:0,_RNvMNtCs8M7rtMEmd2k_14copybook_codec8fidelityNtB2_23BinaryFidelityValidator20get_cobol_field_type
FNDA:0,_RNvMNtCs8M7rtMEmd2k_14copybook_codec8fidelityNtB2_23BinaryFidelityValidator21count_different_bytes
FNDA:0,_RNvMNtCs8M7rtMEmd2k_14copybook_codec8fidelityNtB2_23BinaryFidelityValidator21find_byte_differences
FNDA:0,_RNvMNtCs8M7rtMEmd2k_14copybook_codec8fidelityNtB2_23BinaryFidelityValidator21with_precision_config
FNDA:0,_RNvMNtCs8M7rtMEmd2k_14copybook_codec8fidelityNtB2_23BinaryFidelityValidator23analyze_field_precision
FNDA:0,_RNvMNtCs8M7rtMEmd2k_14copybook_codec8fidelityNtB2_23BinaryFidelityValidator24determine_overall_status
FNDA:0,_RNvMNtCs8M7rtMEmd2k_14copybook_codec8fidelityNtB2_23BinaryFidelityValidator24estimate_memory_overhead
FNDA:0,_RNvMNtCs8M7rtMEmd2k_14copybook_codec8fidelityNtB2_23BinaryFidelityValidator26calculate_field_deviations
FNDA:0,_RNvMNtCs8M7rtMEmd2k_14copybook_codec8fidelityNtB2_23BinaryFidelityValidator27calculate_throughput_impact
FNDA:0,_RNvMNtCs8M7rtMEmd2k_14copybook_codec8fidelityNtB2_23BinaryFidelityValidator27validate_edge_case_handling
FNDA:0,_RNvMNtCs8M7rtMEmd2k_14copybook_codec8fidelityNtB2_23BinaryFidelityValidator27validate_format_consistency
FNDA:0,_RNvMNtCs8M7rtMEmd2k_14copybook_codec8fidelityNtB2_23BinaryFidelityValidator28get_field_context_for_offset
FNDA:0,_RNvMNtCs8M7rtMEmd2k_14copybook_codec8fidelityNtB2_23BinaryFidelityValidator29is_within_precision_tolerance
FNDA:0,_RNvMNtCs8M7rtMEmd2k_14copybook_codec8fidelityNtB2_23BinaryFidelityValidator30check_field_boundary_alignment
FNDA:0,_RNvMNtCs8M7rtMEmd2k_14copybook_codec8fidelityNtB2_23BinaryFidelityValidator30validate_field_level_integrity
FNDA:0,_RNvMNtCs8M7rtMEmd2k_14copybook_codec8fidelityNtB2_23BinaryFidelityValidator30validate_lossless_preservation
FNDA:0,_RNvMNtCs8M7rtMEmd2k_14copybook_codec8fidelityNtB2_23BinaryFidelityValidator31check_cobol_format_preservation
FNDA:0,_RNvMNtCs8M7rtMEmd2k_14copybook_codec8fidelityNtB2_23BinaryFidelityValidator31validate_comprehensive_fidelity
FNDA:0,_RNvMNtCs8M7rtMEmd2k_14copybook_codec8fidelityNtB2_23BinaryFidelityValidator31validate_precision_preservation
FNDA:0,_RNvMNtCs8M7rtMEmd2k_14copybook_codec8fidelityNtB2_23BinaryFidelityValidator31validate_single_field_integrity
FNDA:0,_RNvMNtCs8M7rtMEmd2k_14copybook_codec8fidelityNtB2_23BinaryFidelityValidator3new
FNDA:0,_RNvXs0_NtCs8M7rtMEmd2k_14copybook_codec8fidelityNtB5_12CodecOptionsNtNtCshnvtj5zUHGu_4core7default7Default7default
FNDA:0,_RNvXs_NtCs8M7rtMEmd2k_14copybook_codec8fidelityNtB4_15PrecisionConfigNtNtCshnvtj5zUHGu_4core7default7Default7default
FNDA:1,_RNvNtNtCs7MLK0KUMdQf_14copybook_codec8fidelity5utils25create_standard_validator
FNDA:0,_RNCNvMNtCs7MLK0KUMdQf_14copybook_codec8fidelityNtB4_23BinaryFidelityValidator19generate_edge_cases0B6_
FNDA:0,_RNCNvNtNtCs7MLK0KUMdQf_14copybook_codec8fidelity5utils23calculate_batch_metrics0B7_
FNDA:0,_RNCNvNtNtCs7MLK0KUMdQf_14copybook_codec8fidelity5utils23calculate_batch_metricss0_0B7_
FNDA:0,_RNCNvNtNtCs7MLK0KUMdQf_14copybook_codec8fidelity5utils23calculate_batch_metricss1_0B7_
FNDA:0,_RNCNvNtNtCs7MLK0KUMdQf_14copybook_codec8fidelity5utils23calculate_batch_metricss_0B7_
FNDA:0,_RNvMNtCs7MLK0KUMdQf_14copybook_codec8fidelityNtB2_23BinaryFidelityValidator14test_edge_case
FNDA:0,_RNvMNtCs7MLK0KUMdQf_14copybook_codec8fidelityNtB2_23BinaryFidelityValidator16get_field_offset
FNDA:0,_RNvMNtCs7MLK0KUMdQf_14copybook_codec8fidelityNtB2_23BinaryFidelityValidator16is_numeric_field
FNDA:0,_RNvMNtCs7MLK0KUMdQf_14copybook_codec8fidelityNtB2_23BinaryFidelityValidator19generate_edge_cases
FNDA:0,_RNvMNtCs7MLK0KUMdQf_14copybook_codec8fidelityNtB2_23BinaryFidelityValidator20get_cobol_field_type
FNDA:0,_RNvMNtCs7MLK0KUMdQf_14copybook_codec8fidelityNtB2_23BinaryFidelityValidator21count_different_bytes
FNDA:0,_RNvMNtCs7MLK0KUMdQf_14copybook_codec8fidelityNtB2_23BinaryFidelityValidator21with_precision_config
FNDA:0,_RNvMNtCs7MLK0KUMdQf_14copybook_codec8fidelityNtB2_23BinaryFidelityValidator23analyze_field_precision
FNDA:0,_RNvMNtCs7MLK0KUMdQf_14copybook_codec8fidelityNtB2_23BinaryFidelityValidator24determine_overall_status
FNDA:0,_RNvMNtCs7MLK0KUMdQf_14copybook_codec8fidelityNtB2_23BinaryFidelityValidator24estimate_memory_overhead
FNDA:0,_RNvMNtCs7MLK0KUMdQf_14copybook_codec8fidelityNtB2_23BinaryFidelityValidator26calculate_field_deviations
FNDA:0,_RNvMNtCs7MLK0KUMdQf_14copybook_codec8fidelityNtB2_23BinaryFidelityValidator27calculate_throughput_impact
FNDA:0,_RNvMNtCs7MLK0KUMdQf_14copybook_codec8fidelityNtB2_23BinaryFidelityValidator27validate_edge_case_handling
FNDA:0,_RNvMNtCs7MLK0KUMdQf_14copybook_codec8fidelityNtB2_23BinaryFidelityValidator27validate_format_consistency
FNDA:0,_RNvMNtCs7MLK0KUMdQf_14copybook_codec8fidelityNtB2_23BinaryFidelityValidator29is_within_precision_tolerance
FNDA:0,_RNvMNtCs7MLK0KUMdQf_14copybook_codec8fidelityNtB2_23BinaryFidelityValidator30check_field_boundary_alignment
FNDA:0,_RNvMNtCs7MLK0KUMdQf_14copybook_codec8fidelityNtB2_23BinaryFidelityValidator30validate_field_level_integrity
FNDA:0,_RNvMNtCs7MLK0KUMdQf_14copybook_codec8fidelityNtB2_23BinaryFidelityValidator30validate_lossless_preservation
FNDA:0,_RNvMNtCs7MLK0KUMdQf_14copybook_codec8fidelityNtB2_23BinaryFidelityValidator31check_cobol_format_preservation
FNDA:0,_RNvMNtCs7MLK0KUMdQf_14copybook_codec8fidelityNtB2_23BinaryFidelityValidator31validate_comprehensive_fidelity
FNDA:0,_RNvMNtCs7MLK0KUMdQf_14copybook_codec8fidelityNtB2_23BinaryFidelityValidator31validate_precision_preservation
FNDA:0,_RNvMNtCs7MLK0KUMdQf_14copybook_codec8fidelityNtB2_23BinaryFidelityValidator31validate_single_field_integrity
FNDA:0,_RNvNtNtCs7MLK0KUMdQf_14copybook_codec8fidelity5utils23calculate_batch_metrics
FNDA:0,_RNvNtNtCs7MLK0KUMdQf_14copybook_codec8fidelity5utils23validate_batch_fidelity
FNDA:0,_RNvNtNtCs7MLK0KUMdQf_14copybook_codec8fidelity5utils26create_financial_validator
FNDA:1,_RNvNtNtCs7MLK0KUMdQf_14copybook_codec8fidelity5testss_21test_byte_differences
FNDA:1,_RNvNtNtCs7MLK0KUMdQf_14copybook_codec8fidelity5testss_23test_sha256_calculation
FNDA:1,_RNvNtNtCs7MLK0KUMdQf_14copybook_codec8fidelity5testss_27test_field_size_calculation
FNDA:1,_RNvNtNtCs7MLK0KUMdQf_14copybook_codec8fidelity5testss_29test_utils_standard_validator
FNDA:1,_RNvNtNtCs7MLK0KUMdQf_14copybook_codec8fidelity5testss_32test_fidelity_validator_creation
FNDA:1,_RNvNtNtCs7MLK0KUMdQf_14copybook_codec8fidelity5testss_33test_precision_tolerance_defaults
FNDA:2,_RNvMNtCs7MLK0KUMdQf_14copybook_codec8fidelityNtB2_23BinaryFidelityValidator14get_field_size
FNDA:2,_RNvMNtCs7MLK0KUMdQf_14copybook_codec8fidelityNtB2_23BinaryFidelityValidator16calculate_sha256
FNDA:1,_RNvMNtCs7MLK0KUMdQf_14copybook_codec8fidelityNtB2_23BinaryFidelityValidator21find_byte_differences
FNDA:1,_RNvMNtCs7MLK0KUMdQf_14copybook_codec8fidelityNtB2_23BinaryFidelityValidator28get_field_context_for_offset
FNDA:4,_RNvMNtCs7MLK0KUMdQf_14copybook_codec8fidelityNtB2_23BinaryFidelityValidator3new
FNDA:4,_RNvXs0_NtCs7MLK0KUMdQf_14copybook_codec8fidelityNtB5_12CodecOptionsNtNtCshnvtj5zUHGu_4core7default7Default7default
FNDA:5,_RNvXs_NtCs7MLK0KUMdQf_14copybook_codec8fidelityNtB4_15PrecisionConfigNtNtCshnvtj5zUHGu_4core7default7Default7default
FNF:44
FNH:14
DA:227,4
DA:228,4
DA:229,4
DA:230,4
DA:231,4
DA:232,4
DA:233,4
DA:234,4
DA:235,4
DA:239,0
DA:240,0
DA:241,0
DA:242,0
DA:245,0
DA:246,0
DA:247,0
DA:248,0
DA:249,0
DA:252,0
DA:253,0
DA:254,0
DA:255,0
DA:256,0
DA:257,0
DA:260,0
DA:263,0
DA:266,0
DA:267,0
DA:270,0
DA:271,0
DA:274,0
DA:277,0
DA:279,0
DA:282,0
DA:283,0
DA:284,0
DA:285,0
DA:286,0
DA:289,0
DA:290,0
DA:291,0
DA:292,0
DA:293,0
DA:294,0
DA:296,0
DA:297,0
DA:298,0
DA:299,0
DA:300,0
DA:302,0
DA:303,0
DA:304,0
DA:305,0
DA:306,0
DA:307,0
DA:308,0
DA:311,0
DA:312,0
DA:313,0
DA:314,0
DA:315,0
DA:316,0
DA:317,0
DA:318,0
DA:320,0
DA:321,0
DA:323,0
DA:324,0
DA:325,0
DA:326,0
DA:327,0
DA:328,0
DA:331,0
DA:332,0
DA:333,0
DA:334,0
DA:335,0
DA:336,0
DA:337,0
DA:338,0
DA:341,0
DA:342,0
DA:343,0
DA:344,0
DA:345,0
DA:346,0
DA:348,0
DA:349,0
DA:350,0
DA:351,0
DA:354,0
DA:355,0
DA:356,0
DA:357,0
DA:358,0
DA:361,0
DA:362,0
DA:363,0
DA:364,0
DA:365,0
DA:366,0
DA:367,0
DA:368,0
DA:371,0
DA:372,0
DA:373,0
DA:374,0
DA:375,0
DA:376,0
DA:377,0
DA:379,0
DA:380,0
DA:381,0
DA:382,0
DA:383,0
DA:384,0
DA:385,0
DA:388,0
DA:389,0
DA:390,0
DA:391,0
DA:392,0
DA:395,0
DA:396,0
DA:397,0
DA:398,0
DA:399,0
DA:402,0
DA:403,0
DA:404,0
DA:405,0
DA:406,0
DA:407,0
DA:408,0
DA:411,0
DA:414,0
DA:416,0
DA:417,0
DA:418,0
DA:419,0
DA:420,0
DA:423,0
DA:424,0
DA:425,0
DA:426,0
DA:427,0
DA:428,0
DA:429,0
DA:430,0
DA:431,0
DA:433,0
DA:434,0
DA:435,0
DA:436,0
DA:437,0
DA:438,0
DA:439,0
DA:443,0
DA:444,0
DA:445,0
DA:446,0
DA:447,0
DA:448,0
DA:451,2
DA:452,2
DA:453,2
DA:454,2
DA:455,2
DA:458,1
DA:459,1
DA:460,1
DA:462,11
DA:463,11
DA:464,1
DA:465,1
DA:466,1
DA:467,1
DA:468,1
DA:469,1
DA:470,10
DA:474,1
DA:475,0
DA:476,0
DA:478,0
DA:480,0
DA:481,0
DA:482,0
DA:483,0
DA:484,0
DA:485,0
DA:487,0
DA:489,0
DA:492,1
DA:494,1
DA:495,1
DA:498,1
DA:500,1
DA:501,1
DA:502,1
DA:503,1
DA:504,1
DA:505,0
DA:506,0
DA:508,0
DA:509,1
DA:512,2
DA:513,2
DA:517,2
DA:519,0
DA:521,2
DA:524,0
DA:525,0
DA:526,0
DA:527,0
DA:528,0
DA:529,0
DA:530,0
DA:531,0
DA:532,0
DA:534,0
DA:535,0
DA:537,0
DA:540,0
DA:541,0
DA:543,0
DA:546,0
DA:547,0
DA:550,0
DA:551,0
DA:552,0
DA:553,0
DA:554,0
DA:555,0
DA:557,0
DA:558,0
DA:560,0
DA:563,0
DA:564,0
DA:565,0
DA:566,0
DA:567,0
DA:568,0
DA:569,0
DA:570,0
DA:574,0
DA:575,0
DA:576,0
DA:577,0
DA:578,0
DA:579,0
DA:580,0
DA:581,0
DA:584,0
DA:585,0
DA:586,0
DA:589,0
DA:590,0
DA:593,0
DA:594,0
DA:595,0
DA:596,0
DA:598,0
DA:601,0
DA:602,0
DA:603,0
DA:604,0
DA:605,0
DA:606,0
DA:608,0
DA:609,0
DA:610,0
DA:611,0
DA:612,0
DA:613,0
DA:614,0
DA:615,0
DA:616,0
DA:619,0
DA:620,0
DA:621,0
DA:622,0
DA:623,0
DA:625,0
DA:626,0
DA:628,0
DA:630,0
DA:633,0
DA:634,0
DA:635,0
DA:636,0
DA:637,0
DA:638,0
DA:639,0
DA:641,0
DA:644,0
DA:645,0
DA:646,0
DA:648,0
DA:651,0
DA:652,0
DA:653,0
DA:654,0
DA:655,0
DA:658,0
DA:661,0
DA:662,0
DA:663,0
DA:664,0
DA:665,0
DA:667,0
DA:670,0
DA:671,0
DA:674,0
DA:675,0
DA:676,0
DA:677,0
DA:678,0
DA:679,0
DA:680,0
DA:683,0
DA:684,0
DA:687,0
DA:689,0
DA:690,0
DA:691,0
DA:692,0
DA:695,0
DA:696,0
DA:697,0
DA:699,0
DA:700,0
DA:701,0
DA:702,0
DA:706,0
DA:707,0
DA:708,0
DA:711,0
DA:712,0
DA:713,0
DA:714,0
DA:715,0
DA:716,0
DA:717,0
DA:718,0
DA:719,0
DA:720,0
DA:722,0
DA:723,0
DA:724,0
DA:725,0
DA:726,0
DA:727,0
DA:728,0
DA:729,0
DA:730,0
DA:731,0
DA:732,0
DA:733,0
DA:734,0
DA:735,0
DA:738,0
DA:739,0
DA:740,0
DA:741,0
DA:742,0
DA:743,0
DA:745,0
DA:747,0
DA:750,0
DA:751,0
DA:753,0
DA:754,0
DA:755,0
DA:756,0
DA:757,0
DA:758,0
DA:759,0
DA:760,0
DA:763,0
DA:764,0
DA:767,0
DA:769,0
DA:770,0
DA:773,0
DA:775,0
DA:776,0
DA:777,0
DA:782,5
DA:783,5
DA:785,5
DA:786,5
DA:787,5
DA:788,5
DA:789,5
DA:790,5
DA:791,5
DA:794,5
DA:795,5
DA:796,5
DA:797,5
DA:798,5
DA:799,5
DA:800,5
DA:803,5
DA:804,5
DA:805,5
DA:806,5
DA:807,5
DA:808,5
DA:809,5
DA:812,5
DA:813,5
DA:814,5
DA:815,5
DA:816,5
DA:817,5
DA:818,5
DA:821,5
DA:822,5
DA:823,5
DA:824,5
DA:825,5
DA:826,5
DA:827,5
DA:828,5
DA:829,5
DA:834,4
DA:835,4
DA:836,4
DA:837,4
DA:838,4
DA:839,4
DA:850,1
DA:851,1
DA:852,1
DA:855,0
DA:856,0
DA:857,0
DA:860,0
DA:861,0
DA:862,0
DA:863,0
DA:864,0
DA:865,0
DA:866,0
DA:868,0
DA:869,0
DA:870,0
DA:873,0
DA:874,0
DA:875,0
DA:876,0
DA:877,0
DA:879,0
DA:880,0
DA:881,0
DA:884,0
DA:885,0
DA:888,0
DA:889,0
DA:890,0
DA:891,0
DA:892,0
DA:893,0
DA:894,0
DA:895,0
DA:896,0
DA:897,0
DA:898,0
DA:899,0
DA:900,0
DA:901,0
DA:903,0
DA:904,0
DA:905,0
DA:906,0
DA:907,0
DA:908,0
DA:910,0
DA:911,0
DA:912,0
DA:913,0
DA:914,0
DA:915,0
DA:916,0
DA:917,0
DA:918,0
DA:938,1
DA:939,1
DA:940,1
DA:941,1
DA:944,1
DA:945,1
DA:948,1
DA:949,1
DA:950,1
DA:951,1
DA:953,1
DA:954,1
DA:955,1
DA:958,1
DA:959,1
DA:960,1
DA:961,1
DA:963,1
DA:964,1
DA:966,1
DA:967,1
DA:968,1
DA:969,1
DA:970,1
DA:971,1
DA:974,1
DA:975,1
DA:977,1
DA:978,1
DA:979,1
DA:980,1
DA:982,1
DA:983,1
DA:984,1
DA:985,1
DA:987,1
DA:988,1
DA:991,1
DA:992,1
DA:993,1
DA:994,1
DA:996,1
DA:997,1
DA:1000,1
DA:1001,1
DA:1002,1
DA:1003,1
DA:1005,1
DA:1006,1
DA:1007,1
DA:1008,0
DA:1009,1
BRF:0
BRH:0
LF:544
LH:140
end_of_record
SF:/home/steven/code/Rust/copybook-rs/copybook-codec/src/lib_api.rs
FN:1273,_RINvNtCs8M7rtMEmd2k_14copybook_codec7lib_api20decode_file_to_jsonlNtNtCs4eoO4cHkFdT_3std2fs4FileQDNtNtB16_2io5WriteEL_ECsi2GSroy6duf_8copybook
FN:1410,_RINvNtCs8M7rtMEmd2k_14copybook_codec7lib_api20encode_jsonl_to_fileNtNtCs4eoO4cHkFdT_3std2fs4FileQDNtNtB16_2io5WriteEL_ECsi2GSroy6duf_8copybook
FN:1283,_RNCINvNtCs8M7rtMEmd2k_14copybook_codec7lib_api20decode_file_to_jsonlNtNtCs4eoO4cHkFdT_3std2fs4FileQDNtNtB18_2io5WriteEL_E0Csi2GSroy6duf_8copybook
FN:1303,_RNCINvNtCs8M7rtMEmd2k_14copybook_codec7lib_api20decode_file_to_jsonlNtNtCs4eoO4cHkFdT_3std2fs4FileQDNtNtB18_2io5WriteEL_Es0_0Csi2GSroy6duf_8copybook
FN:1367,_RNCINvNtCs8M7rtMEmd2k_14copybook_codec7lib_api20decode_file_to_jsonlNtNtCs4eoO4cHkFdT_3std2fs4FileQDNtNtB18_2io5WriteEL_Es1_0Csi2GSroy6duf_8copybook
FN:1370,_RNCINvNtCs8M7rtMEmd2k_14copybook_codec7lib_api20decode_file_to_jsonlNtNtCs4eoO4cHkFdT_3std2fs4FileQDNtNtB18_2io5WriteEL_Es2_0Csi2GSroy6duf_8copybook
FN:1391,_RNCINvNtCs8M7rtMEmd2k_14copybook_codec7lib_api20decode_file_to_jsonlNtNtCs4eoO4cHkFdT_3std2fs4FileQDNtNtB18_2io5WriteEL_Es3_0Csi2GSroy6duf_8copybook
FN:1300,_RNCINvNtCs8M7rtMEmd2k_14copybook_codec7lib_api20decode_file_to_jsonlNtNtCs4eoO4cHkFdT_3std2fs4FileQDNtNtB18_2io5WriteEL_Es_0Csi2GSroy6duf_8copybook
FN:1424,_RNCINvNtCs8M7rtMEmd2k_14copybook_codec7lib_api20encode_jsonl_to_fileNtNtCs4eoO4cHkFdT_3std2fs4FileQDNtNtB18_2io5WriteEL_E0Csi2GSroy6duf_8copybook
FN:1441,_RNCINvNtCs8M7rtMEmd2k_14copybook_codec7lib_api20encode_jsonl_to_fileNtNtCs4eoO4cHkFdT_3std2fs4FileQDNtNtB18_2io5WriteEL_Es0_0Csi2GSroy6duf_8copybook
FN:1434,_RNCINvNtCs8M7rtMEmd2k_14copybook_codec7lib_api20encode_jsonl_to_fileNtNtCs4eoO4cHkFdT_3std2fs4FileQDNtNtB18_2io5WriteEL_Es_0Csi2GSroy6duf_8copybook
FN:1476,_RNvMs0_NtCs8M7rtMEmd2k_14copybook_codec7lib_apiINtB5_14RecordIteratorINtNtNtNtCs4eoO4cHkFdT_3std2io8buffered9bufreader9BufReaderNtNtB1e_2fs4FileEE3newCsi2GSroy6duf_8copybook
FN:1513,_RNvXs1_NtCs8M7rtMEmd2k_14copybook_codec7lib_apiINtB5_14RecordIteratorINtNtNtNtCs4eoO4cHkFdT_3std2io8buffered9bufreader9BufReaderNtNtB1e_2fs4FileEENtNtNtNtCshnvtj5zUHGu_4core4iter6traits8iterator8Iterator4nextCsi2GSroy6duf_8copybook
FN:127,_RNvMNtCs8M7rtMEmd2k_14copybook_codec7lib_apiNtB2_10RunSummary10error_rate
FN:91,_RNvMNtCs8M7rtMEmd2k_14copybook_codec7lib_apiNtB2_10RunSummary10has_errors
FN:97,_RNvMNtCs8M7rtMEmd2k_14copybook_codec7lib_apiNtB2_10RunSummary12has_warnings
FN:116,_RNvMNtCs8M7rtMEmd2k_14copybook_codec7lib_apiNtB2_10RunSummary12success_rate
FN:72,_RNvMNtCs8M7rtMEmd2k_14copybook_codec7lib_apiNtB2_10RunSummary12with_threads
FN:103,_RNvMNtCs8M7rtMEmd2k_14copybook_codec7lib_apiNtB2_10RunSummary13is_successful
FN:109,_RNvMNtCs8M7rtMEmd2k_14copybook_codec7lib_apiNtB2_10RunSummary13total_records
FN:141,_RNvMNtCs8M7rtMEmd2k_14copybook_codec7lib_apiNtB2_10RunSummary18bytes_processed_mb
FN:81,_RNvMNtCs8M7rtMEmd2k_14copybook_codec7lib_apiNtB2_10RunSummary20calculate_throughput
FN:151,_RNvMNtCs8M7rtMEmd2k_14copybook_codec7lib_apiNtB2_10RunSummary21set_peak_memory_bytes
FN:146,_RNvMNtCs8M7rtMEmd2k_14copybook_codec7lib_apiNtB2_10RunSummary22set_schema_fingerprint
FN:134,_RNvMNtCs8M7rtMEmd2k_14copybook_codec7lib_apiNtB2_10RunSummary23processing_time_seconds
FN:66,_RNvMNtCs8M7rtMEmd2k_14copybook_codec7lib_apiNtB2_10RunSummary3new
FN:196,_RNvNtCs8M7rtMEmd2k_14copybook_codec7lib_api13decode_record
FN:1030,_RNvNtCs8M7rtMEmd2k_14copybook_codec7lib_api13encode_record
FN:875,_RNvNtCs8M7rtMEmd2k_14copybook_codec7lib_api18find_field_by_path
FN:562,_RNvNtCs8M7rtMEmd2k_14copybook_codec7lib_api19process_array_field
FN:20,_RNvNtCs8M7rtMEmd2k_14copybook_codec7lib_api19validate_odo_bounds
FN:896,_RNvNtCs8M7rtMEmd2k_14copybook_codec7lib_api20adjust_field_offsets
FN:1106,_RNvNtCs8M7rtMEmd2k_14copybook_codec7lib_api22encode_fields_to_bytes
FN:1126,_RNvNtCs8M7rtMEmd2k_14copybook_codec7lib_api23encode_fields_recursive
FN:300,_RNvNtCs8M7rtMEmd2k_14copybook_codec7lib_api24process_fields_recursive
FN:915,_RNvNtCs8M7rtMEmd2k_14copybook_codec7lib_api25decode_scalar_field_value
FN:1267,_RNvNtCs8M7rtMEmd2k_14copybook_codec7lib_api25increment_warning_counter
FN:215,_RNvNtCs8M7rtMEmd2k_14copybook_codec7lib_api26decode_record_with_scratch
FN:256,_RNvNtCs8M7rtMEmd2k_14copybook_codec7lib_api27decode_record_with_raw_data
FN:777,_RNvNtCs8M7rtMEmd2k_14copybook_codec7lib_api27find_and_read_counter_field
FN:1563,_RNvNtCs8M7rtMEmd2k_14copybook_codec7lib_api32format_zoned_decimal_with_digits
FN:636,_RNvNtCs8M7rtMEmd2k_14copybook_codec7lib_api32process_array_field_with_scratch
FN:225,_RNvNtCs8M7rtMEmd2k_14copybook_codec7lib_api34decode_record_with_scratch_and_raw
FN:429,_RNvNtCs8M7rtMEmd2k_14copybook_codec7lib_api37process_fields_recursive_with_scratch
FN:157,_RNvXs_NtCs8M7rtMEmd2k_14copybook_codec7lib_apiNtB4_10RunSummaryNtNtCshnvtj5zUHGu_4core3fmt7Display3fmt
FN:1040,_RNCNvNtCs8M7rtMEmd2k_14copybook_codec7lib_api13encode_record0B5_
FN:902,_RNCNvNtCs8M7rtMEmd2k_14copybook_codec7lib_api20adjust_field_offsets0B5_
FN:1111,_RNCNvNtCs8M7rtMEmd2k_14copybook_codec7lib_api22encode_fields_to_bytes0B5_
FN:1139,_RNCNvNtCs8M7rtMEmd2k_14copybook_codec7lib_api23encode_fields_recursive0B5_
FN:1268,_RNCNvNtCs8M7rtMEmd2k_14copybook_codec7lib_api25increment_warning_counter0B5_
FN:817,_RNCNvNtCs8M7rtMEmd2k_14copybook_codec7lib_api27find_and_read_counter_field0B5_
FN:856,_RNCNvNtCs8M7rtMEmd2k_14copybook_codec7lib_api27find_and_read_counter_fields_0B5_
FN:1410,_RINvNtCs8M7rtMEmd2k_14copybook_codec7lib_api20encode_jsonl_to_fileINtNtNtCs4eoO4cHkFdT_3std2io6cursor6CursorNtNtCs31agqjrRntl_5alloc6string6StringEQINtNtB1M_3vec3VechEECsbBC70Nz1Y6g_31binary_roundtrip_fidelity_tests
FN:1424,_RNCINvNtCs8M7rtMEmd2k_14copybook_codec7lib_api20encode_jsonl_to_fileINtNtNtCs4eoO4cHkFdT_3std2io6cursor6CursorNtNtCs31agqjrRntl_5alloc6string6StringEQINtNtB1O_3vec3VechEE0CsbBC70Nz1Y6g_31binary_roundtrip_fidelity_tests
FN:1441,_RNCINvNtCs8M7rtMEmd2k_14copybook_codec7lib_api20encode_jsonl_to_fileINtNtNtCs4eoO4cHkFdT_3std2io6cursor6CursorNtNtCs31agqjrRntl_5alloc6string6StringEQINtNtB1O_3vec3VechEEs0_0CsbBC70Nz1Y6g_31binary_roundtrip_fidelity_tests
FN:1434,_RNCINvNtCs8M7rtMEmd2k_14copybook_codec7lib_api20encode_jsonl_to_fileINtNtNtCs4eoO4cHkFdT_3std2io6cursor6CursorNtNtCs31agqjrRntl_5alloc6string6StringEQINtNtB1O_3vec3VechEEs_0CsbBC70Nz1Y6g_31binary_roundtrip_fidelity_tests
FN:1273,_RINvNtCs8M7rtMEmd2k_14copybook_codec7lib_api20decode_file_to_jsonlINtNtNtCs4eoO4cHkFdT_3std2io6cursor6CursorRINtNtCs31agqjrRntl_5alloc3vec3VechEEQB1J_ECslzLlZWW49z1_18canonical_fixtures
FN:1410,_RINvNtCs8M7rtMEmd2k_14copybook_codec7lib_api20encode_jsonl_to_fileINtNtNtCs4eoO4cHkFdT_3std2io6cursor6CursorRShEQINtNtCs31agqjrRntl_5alloc3vec3VechEECslzLlZWW49z1_18canonical_fixtures
FN:1283,_RNCINvNtCs8M7rtMEmd2k_14copybook_codec7lib_api20decode_file_to_jsonlINtNtNtCs4eoO4cHkFdT_3std2io6cursor6CursorRINtNtCs31agqjrRntl_5alloc3vec3VechEEQB1L_E0CslzLlZWW49z1_18canonical_fixtures
FN:1303,_RNCINvNtCs8M7rtMEmd2k_14copybook_codec7lib_api20decode_file_to_jsonlINtNtNtCs4eoO4cHkFdT_3std2io6cursor6CursorRINtNtCs31agqjrRntl_5alloc3vec3VechEEQB1L_Es0_0CslzLlZWW49z1_18canonical_fixtures
FN:1367,_RNCINvNtCs8M7rtMEmd2k_14copybook_codec7lib_api20decode_file_to_jsonlINtNtNtCs4eoO4cHkFdT_3std2io6cursor6CursorRINtNtCs31agqjrRntl_5alloc3vec3VechEEQB1L_Es1_0CslzLlZWW49z1_18canonical_fixtures
FN:1370,_RNCINvNtCs8M7rtMEmd2k_14copybook_codec7lib_api20decode_file_to_jsonlINtNtNtCs4eoO4cHkFdT_3std2io6cursor6CursorRINtNtCs31agqjrRntl_5alloc3vec3VechEEQB1L_Es2_0CslzLlZWW49z1_18canonical_fixtures
FN:1391,_RNCINvNtCs8M7rtMEmd2k_14copybook_codec7lib_api20decode_file_to_jsonlINtNtNtCs4eoO4cHkFdT_3std2io6cursor6CursorRINtNtCs31agqjrRntl_5alloc3vec3VechEEQB1L_Es3_0CslzLlZWW49z1_18canonical_fixtures
FN:1300,_RNCINvNtCs8M7rtMEmd2k_14copybook_codec7lib_api20decode_file_to_jsonlINtNtNtCs4eoO4cHkFdT_3std2io6cursor6CursorRINtNtCs31agqjrRntl_5alloc3vec3VechEEQB1L_Es_0CslzLlZWW49z1_18canonical_fixtures
FN:1424,_RNCINvNtCs8M7rtMEmd2k_14copybook_codec7lib_api20encode_jsonl_to_fileINtNtNtCs4eoO4cHkFdT_3std2io6cursor6CursorRShEQINtNtCs31agqjrRntl_5alloc3vec3VechEE0CslzLlZWW49z1_18canonical_fixtures
FN:1441,_RNCINvNtCs8M7rtMEmd2k_14copybook_codec7lib_api20encode_jsonl_to_fileINtNtNtCs4eoO4cHkFdT_3std2io6cursor6CursorRShEQINtNtCs31agqjrRntl_5alloc3vec3VechEEs0_0CslzLlZWW49z1_18canonical_fixtures
FN:1434,_RNCINvNtCs8M7rtMEmd2k_14copybook_codec7lib_api20encode_jsonl_to_fileINtNtNtCs4eoO4cHkFdT_3std2io6cursor6CursorRShEQINtNtCs31agqjrRntl_5alloc3vec3VechEEs_0CslzLlZWW49z1_18canonical_fixtures
FN:1273,_RINvNtCs8M7rtMEmd2k_14copybook_codec7lib_api20decode_file_to_jsonlINtNtNtCs4eoO4cHkFdT_3std2io6cursor6CursorRINtNtCs31agqjrRntl_5alloc3vec3VechEEQB1J_ECs9bNFeEA8lew_34cobol_fixture_zoned_encoding_tests
FN:1283,_RNCINvNtCs8M7rtMEmd2k_14copybook_codec7lib_api20decode_file_to_jsonlINtNtNtCs4eoO4cHkFdT_3std2io6cursor6CursorRINtNtCs31agqjrRntl_5alloc3vec3VechEEQB1L_E0Cs9bNFeEA8lew_34cobol_fixture_zoned_encoding_tests
FN:1303,_RNCINvNtCs8M7rtMEmd2k_14copybook_codec7lib_api20decode_file_to_jsonlINtNtNtCs4eoO4cHkFdT_3std2io6cursor6CursorRINtNtCs31agqjrRntl_5alloc3vec3VechEEQB1L_Es0_0Cs9bNFeEA8lew_34cobol_fixture_zoned_encoding_tests
FN:1367,_RNCINvNtCs8M7rtMEmd2k_14copybook_codec7lib_api20decode_file_to_jsonlINtNtNtCs4eoO4cHkFdT_3std2io6cursor6CursorRINtNtCs31agqjrRntl_5alloc3vec3VechEEQB1L_Es1_0Cs9bNFeEA8lew_34cobol_fixture_zoned_encoding_tests
FN:1370,_RNCINvNtCs8M7rtMEmd2k_14copybook_codec7lib_api20decode_file_to_jsonlINtNtNtCs4eoO4cHkFdT_3std2io6cursor6CursorRINtNtCs31agqjrRntl_5alloc3vec3VechEEQB1L_Es2_0Cs9bNFeEA8lew_34cobol_fixture_zoned_encoding_tests
FN:1391,_RNCINvNtCs8M7rtMEmd2k_14copybook_codec7lib_api20decode_file_to_jsonlINtNtNtCs4eoO4cHkFdT_3std2io6cursor6CursorRINtNtCs31agqjrRntl_5alloc3vec3VechEEQB1L_Es3_0Cs9bNFeEA8lew_34cobol_fixture_zoned_encoding_tests
FN:1300,_RNCINvNtCs8M7rtMEmd2k_14copybook_codec7lib_api20decode_file_to_jsonlINtNtNtCs4eoO4cHkFdT_3std2io6cursor6CursorRINtNtCs31agqjrRntl_5alloc3vec3VechEEQB1L_Es_0Cs9bNFeEA8lew_34cobol_fixture_zoned_encoding_tests
FN:1273,_RINvNtCs8M7rtMEmd2k_14copybook_codec7lib_api20decode_file_to_jsonlINtNtNtCs4eoO4cHkFdT_3std2io6cursor6CursorINtNtCs31agqjrRntl_5alloc3vec3VechEEQB1I_ECshMCmDISD09f_27comprehensive_numeric_tests
FN:1273,_RINvNtCs8M7rtMEmd2k_14copybook_codec7lib_api20decode_file_to_jsonlINtNtNtCs4eoO4cHkFdT_3std2io6cursor6CursorRAhj2_EQINtNtCs31agqjrRntl_5alloc3vec3VechEECshMCmDISD09f_27comprehensive_numeric_tests
FN:1273,_RINvNtCs8M7rtMEmd2k_14copybook_codec7lib_api20decode_file_to_jsonlINtNtNtCs4eoO4cHkFdT_3std2io6cursor6CursorRAhj3_EQINtNtCs31agqjrRntl_5alloc3vec3VechEECshMCmDISD09f_27comprehensive_numeric_tests
FN:1273,_RINvNtCs8M7rtMEmd2k_14copybook_codec7lib_api20decode_file_to_jsonlINtNtNtCs4eoO4cHkFdT_3std2io6cursor6CursorRAhj5_EQINtNtCs31agqjrRntl_5alloc3vec3VechEECshMCmDISD09f_27comprehensive_numeric_tests
FN:1273,_RINvNtCs8M7rtMEmd2k_14copybook_codec7lib_api20decode_file_to_jsonlINtNtNtCs4eoO4cHkFdT_3std2io6cursor6CursorRAhj9_EQINtNtCs31agqjrRntl_5alloc3vec3VechEECshMCmDISD09f_27comprehensive_numeric_tests
FN:1273,_RINvNtCs8M7rtMEmd2k_14copybook_codec7lib_api20decode_file_to_jsonlINtNtNtCs4eoO4cHkFdT_3std2io6cursor6CursorRAhja_EQINtNtCs31agqjrRntl_5alloc3vec3VechEECshMCmDISD09f_27comprehensive_numeric_tests
FN:1273,_RINvNtCs8M7rtMEmd2k_14copybook_codec7lib_api20decode_file_to_jsonlINtNtNtCs4eoO4cHkFdT_3std2io6cursor6CursorRAhjc_EQINtNtCs31agqjrRntl_5alloc3vec3VechEECshMCmDISD09f_27comprehensive_numeric_tests
FN:1273,_RINvNtCs8M7rtMEmd2k_14copybook_codec7lib_api20decode_file_to_jsonlINtNtNtCs4eoO4cHkFdT_3std2io6cursor6CursorRAhjf_EQINtNtCs31agqjrRntl_5alloc3vec3VechEECshMCmDISD09f_27comprehensive_numeric_tests
FN:1283,_RNCINvNtCs8M7rtMEmd2k_14copybook_codec7lib_api20decode_file_to_jsonlINtNtNtCs4eoO4cHkFdT_3std2io6cursor6CursorINtNtCs31agqjrRntl_5alloc3vec3VechEEQB1K_E0CshMCmDISD09f_27comprehensive_numeric_tests
FN:1303,_RNCINvNtCs8M7rtMEmd2k_14copybook_codec7lib_api20decode_file_to_jsonlINtNtNtCs4eoO4cHkFdT_3std2io6cursor6CursorINtNtCs31agqjrRntl_5alloc3vec3VechEEQB1K_Es0_0CshMCmDISD09f_27comprehensive_numeric_tests
FN:1367,_RNCINvNtCs8M7rtMEmd2k_14copybook_codec7lib_api20decode_file_to_jsonlINtNtNtCs4eoO4cHkFdT_3std2io6cursor6CursorINtNtCs31agqjrRntl_5alloc3vec3VechEEQB1K_Es1_0CshMCmDISD09f_27comprehensive_numeric_tests
FN:1370,_RNCINvNtCs8M7rtMEmd2k_14copybook_codec7lib_api20decode_file_to_jsonlINtNtNtCs4eoO4cHkFdT_3std2io6cursor6CursorINtNtCs31agqjrRntl_5alloc3vec3VechEEQB1K_Es2_0CshMCmDISD09f_27comprehensive_numeric_tests
FN:1391,_RNCINvNtCs8M7rtMEmd2k_14copybook_codec7lib_api20decode_file_to_jsonlINtNtNtCs4eoO4cHkFdT_3std2io6cursor6CursorINtNtCs31agqjrRntl_5alloc3vec3VechEEQB1K_Es3_0CshMCmDISD09f_27comprehensive_numeric_tests
FN:1300,_RNCINvNtCs8M7rtMEmd2k_14copybook_codec7lib_api20decode_file_to_jsonlINtNtNtCs4eoO4cHkFdT_3std2io6cursor6CursorINtNtCs31agqjrRntl_5alloc3vec3VechEEQB1K_Es_0CshMCmDISD09f_27comprehensive_numeric_tests
FN:1283,_RNCINvNtCs8M7rtMEmd2k_14copybook_codec7lib_api20decode_file_to_jsonlINtNtNtCs4eoO4cHkFdT_3std2io6cursor6CursorRAhj2_EQINtNtCs31agqjrRntl_5alloc3vec3VechEE0CshMCmDISD09f_27comprehensive_numeric_tests
FN:1303,_RNCINvNtCs8M7rtMEmd2k_14copybook_codec7lib_api20decode_file_to_jsonlINtNtNtCs4eoO4cHkFdT_3std2io6cursor6CursorRAhj2_EQINtNtCs31agqjrRntl_5alloc3vec3VechEEs0_0CshMCmDISD09f_27comprehensive_numeric_tests
FN:1367,_RNCINvNtCs8M7rtMEmd2k_14copybook_codec7lib_api20decode_file_to_jsonlINtNtNtCs4eoO4cHkFdT_3std2io6cursor6CursorRAhj2_EQINtNtCs31agqjrRntl_5alloc3vec3VechEEs1_0CshMCmDISD09f_27comprehensive_numeric_tests
FN:1370,_RNCINvNtCs8M7rtMEmd2k_14copybook_codec7lib_api20decode_file_to_jsonlINtNtNtCs4eoO4cHkFdT_3std2io6cursor6CursorRAhj2_EQINtNtCs31agqjrRntl_5alloc3vec3VechEEs2_0CshMCmDISD09f_27comprehensive_numeric_tests
FN:1391,_RNCINvNtCs8M7rtMEmd2k_14copybook_codec7lib_api20decode_file_to_jsonlINtNtNtCs4eoO4cHkFdT_3std2io6cursor6CursorRAhj2_EQINtNtCs31agqjrRntl_5alloc3vec3VechEEs3_0CshMCmDISD09f_27comprehensive_numeric_tests
FN:1300,_RNCINvNtCs8M7rtMEmd2k_14copybook_codec7lib_api20decode_file_to_jsonlINtNtNtCs4eoO4cHkFdT_3std2io6cursor6CursorRAhj2_EQINtNtCs31agqjrRntl_5alloc3vec3VechEEs_0CshMCmDISD09f_27comprehensive_numeric_tests
FN:1283,_RNCINvNtCs8M7rtMEmd2k_14copybook_codec7lib_api20decode_file_to_jsonlINtNtNtCs4eoO4cHkFdT_3std2io6cursor6CursorRAhj3_EQINtNtCs31agqjrRntl_5alloc3vec3VechEE0CshMCmDISD09f_27comprehensive_numeric_tests
FN:1303,_RNCINvNtCs8M7rtMEmd2k_14copybook_codec7lib_api20decode_file_to_jsonlINtNtNtCs4eoO4cHkFdT_3std2io6cursor6CursorRAhj3_EQINtNtCs31agqjrRntl_5alloc3vec3VechEEs0_0CshMCmDISD09f_27comprehensive_numeric_tests
FN:1367,_RNCINvNtCs8M7rtMEmd2k_14copybook_codec7lib_api20decode_file_to_jsonlINtNtNtCs4eoO4cHkFdT_3std2io6cursor6CursorRAhj3_EQINtNtCs31agqjrRntl_5alloc3vec3VechEEs1_0CshMCmDISD09f_27comprehensive_numeric_tests
FN:1370,_RNCINvNtCs8M7rtMEmd2k_14copybook_codec7lib_api20decode_file_to_jsonlINtNtNtCs4eoO4cHkFdT_3std2io6cursor6CursorRAhj3_EQINtNtCs31agqjrRntl_5alloc3vec3VechEEs2_0CshMCmDISD09f_27comprehensive_numeric_tests
FN:1391,_RNCINvNtCs8M7rtMEmd2k_14copybook_codec7lib_api20decode_file_to_jsonlINtNtNtCs4eoO4cHkFdT_3std2io6cursor6CursorRAhj3_EQINtNtCs31agqjrRntl_5alloc3vec3VechEEs3_0CshMCmDISD09f_27comprehensive_numeric_tests
FN:1300,_RNCINvNtCs8M7rtMEmd2k_14copybook_codec7lib_api20decode_file_to_jsonlINtNtNtCs4eoO4cHkFdT_3std2io6cursor6CursorRAhj3_EQINtNtCs31agqjrRntl_5alloc3vec3VechEEs_0CshMCmDISD09f_27comprehensive_numeric_tests
FN:1283,_RNCINvNtCs8M7rtMEmd2k_14copybook_codec7lib_api20decode_file_to_jsonlINtNtNtCs4eoO4cHkFdT_3std2io6cursor6CursorRAhj5_EQINtNtCs31agqjrRntl_5alloc3vec3VechEE0CshMCmDISD09f_27comprehensive_numeric_tests
FN:1303,_RNCINvNtCs8M7rtMEmd2k_14copybook_codec7lib_api20decode_file_to_jsonlINtNtNtCs4eoO4cHkFdT_3std2io6cursor6CursorRAhj5_EQINtNtCs31agqjrRntl_5alloc3vec3VechEEs0_0CshMCmDISD09f_27comprehensive_numeric_tests
FN:1367,_RNCINvNtCs8M7rtMEmd2k_14copybook_codec7lib_api20decode_file_to_jsonlINtNtNtCs4eoO4cHkFdT_3std2io6cursor6CursorRAhj5_EQINtNtCs31agqjrRntl_5alloc3vec3VechEEs1_0CshMCmDISD09f_27comprehensive_numeric_tests
FN:1370,_RNCINvNtCs8M7rtMEmd2k_14copybook_codec7lib_api20decode_file_to_jsonlINtNtNtCs4eoO4cHkFdT_3std2io6cursor6CursorRAhj5_EQINtNtCs31agqjrRntl_5alloc3vec3VechEEs2_0CshMCmDISD09f_27comprehensive_numeric_tests
FN:1391,_RNCINvNtCs8M7rtMEmd2k_14copybook_codec7lib_api20decode_file_to_jsonlINtNtNtCs4eoO4cHkFdT_3std2io6cursor6CursorRAhj5_EQINtNtCs31agqjrRntl_5alloc3vec3VechEEs3_0CshMCmDISD09f_27comprehensive_numeric_tests
FN:1300,_RNCINvNtCs8M7rtMEmd2k_14copybook_codec7lib_api20decode_file_to_jsonlINtNtNtCs4eoO4cHkFdT_3std2io6cursor6CursorRAhj5_EQINtNtCs31agqjrRntl_5alloc3vec3VechEEs_0CshMCmDISD09f_27comprehensive_numeric_tests
FN:1283,_RNCINvNtCs8M7rtMEmd2k_14copybook_codec7lib_api20decode_file_to_jsonlINtNtNtCs4eoO4cHkFdT_3std2io6cursor6CursorRAhj9_EQINtNtCs31agqjrRntl_5alloc3vec3VechEE0CshMCmDISD09f_27comprehensive_numeric_tests
FN:1303,_RNCINvNtCs8M7rtMEmd2k_14copybook_codec7lib_api20decode_file_to_jsonlINtNtNtCs4eoO4cHkFdT_3std2io6cursor6CursorRAhj9_EQINtNtCs31agqjrRntl_5alloc3vec3VechEEs0_0CshMCmDISD09f_27comprehensive_numeric_tests
FN:1367,_RNCINvNtCs8M7rtMEmd2k_14copybook_codec7lib_api20decode_file_to_jsonlINtNtNtCs4eoO4cHkFdT_3std2io6cursor6CursorRAhj9_EQINtNtCs31agqjrRntl_5alloc3vec3VechEEs1_0CshMCmDISD09f_27comprehensive_numeric_tests
FN:1370,_RNCINvNtCs8M7rtMEmd2k_14copybook_codec7lib_api20decode_file_to_jsonlINtNtNtCs4eoO4cHkFdT_3std2io6cursor6CursorRAhj9_EQINtNtCs31agqjrRntl_5alloc3vec3VechEEs2_0CshMCmDISD09f_27comprehensive_numeric_tests
FN:1391,_RNCINvNtCs8M7rtMEmd2k_14copybook_codec7lib_api20decode_file_to_jsonlINtNtNtCs4eoO4cHkFdT_3std2io6cursor6CursorRAhj9_EQINtNtCs31agqjrRntl_5alloc3vec3VechEEs3_0CshMCmDISD09f_27comprehensive_numeric_tests
FN:1300,_RNCINvNtCs8M7rtMEmd2k_14copybook_codec7lib_api20decode_file_to_jsonlINtNtNtCs4eoO4cHkFdT_3std2io6cursor6CursorRAhj9_EQINtNtCs31agqjrRntl_5alloc3vec3VechEEs_0CshMCmDISD09f_27comprehensive_numeric_tests
FN:1283,_RNCINvNtCs8M7rtMEmd2k_14copybook_codec7lib_api20decode_file_to_jsonlINtNtNtCs4eoO4cHkFdT_3std2io6cursor6CursorRAhja_EQINtNtCs31agqjrRntl_5alloc3vec3VechEE0CshMCmDISD09f_27comprehensive_numeric_tests
FN:1303,_RNCINvNtCs8M7rtMEmd2k_14copybook_codec7lib_api20decode_file_to_jsonlINtNtNtCs4eoO4cHkFdT_3std2io6cursor6CursorRAhja_EQINtNtCs31agqjrRntl_5alloc3vec3VechEEs0_0CshMCmDISD09f_27comprehensive_numeric_tests
FN:1367,_RNCINvNtCs8M7rtMEmd2k_14copybook_codec7lib_api20decode_file_to_jsonlINtNtNtCs4eoO4cHkFdT_3std2io6cursor6CursorRAhja_EQINtNtCs31agqjrRntl_5alloc3vec3VechEEs1_0CshMCmDISD09f_27comprehensive_numeric_tests
FN:1370,_RNCINvNtCs8M7rtMEmd2k_14copybook_codec7lib_api20decode_file_to_jsonlINtNtNtCs4eoO4cHkFdT_3std2io6cursor6CursorRAhja_EQINtNtCs31agqjrRntl_5alloc3vec3VechEEs2_0CshMCmDISD09f_27comprehensive_numeric_tests
FN:1391,_RNCINvNtCs8M7rtMEmd2k_14copybook_codec7lib_api20decode_file_to_jsonlINtNtNtCs4eoO4cHkFdT_3std2io6cursor6CursorRAhja_EQINtNtCs31agqjrRntl_5alloc3vec3VechEEs3_0CshMCmDISD09f_27comprehensive_numeric_tests
FN:1300,_RNCINvNtCs8M7rtMEmd2k_14copybook_codec7lib_api20decode_file_to_jsonlINtNtNtCs4eoO4cHkFdT_3std2io6cursor6CursorRAhja_EQINtNtCs31agqjrRntl_5alloc3vec3VechEEs_0CshMCmDISD09f_27comprehensive_numeric_tests
FN:1283,_RNCINvNtCs8M7rtMEmd2k_14copybook_codec7lib_api20decode_file_to_jsonlINtNtNtCs4eoO4cHkFdT_3std2io6cursor6CursorRAhjc_EQINtNtCs31agqjrRntl_5alloc3vec3VechEE0CshMCmDISD09f_27comprehensive_numeric_tests
FN:1303,_RNCINvNtCs8M7rtMEmd2k_14copybook_codec7lib_api20decode_file_to_jsonlINtNtNtCs4eoO4cHkFdT_3std2io6cursor6CursorRAhjc_EQINtNtCs31agqjrRntl_5alloc3vec3VechEEs0_0CshMCmDISD09f_27comprehensive_numeric_tests
FN:1367,_RNCINvNtCs8M7rtMEmd2k_14copybook_codec7lib_api20decode_file_to_jsonlINtNtNtCs4eoO4cHkFdT_3std2io6cursor6CursorRAhjc_EQINtNtCs31agqjrRntl_5alloc3vec3VechEEs1_0CshMCmDISD09f_27comprehensive_numeric_tests
FN:1370,_RNCINvNtCs8M7rtMEmd2k_14copybook_codec7lib_api20decode_file_to_jsonlINtNtNtCs4eoO4cHkFdT_3std2io6cursor6CursorRAhjc_EQINtNtCs31agqjrRntl_5alloc3vec3VechEEs2_0CshMCmDISD09f_27comprehensive_numeric_tests
FN:1391,_RNCINvNtCs8M7rtMEmd2k_14copybook_codec7lib_api20decode_file_to_jsonlINtNtNtCs4eoO4cHkFdT_3std2io6cursor6CursorRAhjc_EQINtNtCs31agqjrRntl_5alloc3vec3VechEEs3_0CshMCmDISD09f_27comprehensive_numeric_tests
FN:1300,_RNCINvNtCs8M7rtMEmd2k_14copybook_codec7lib_api20decode_file_to_jsonlINtNtNtCs4eoO4cHkFdT_3std2io6cursor6CursorRAhjc_EQINtNtCs31agqjrRntl_5alloc3vec3VechEEs_0CshMCmDISD09f_27comprehensive_numeric_tests
FN:1283,_RNCINvNtCs8M7rtMEmd2k_14copybook_codec7lib_api20decode_file_to_jsonlINtNtNtCs4eoO4cHkFdT_3std2io6cursor6CursorRAhjf_EQINtNtCs31agqjrRntl_5alloc3vec3VechEE0CshMCmDISD09f_27comprehensive_numeric_tests
FN:1303,_RNCINvNtCs8M7rtMEmd2k_14copybook_codec7lib_api20decode_file_to_jsonlINtNtNtCs4eoO4cHkFdT_3std2io6cursor6CursorRAhjf_EQINtNtCs31agqjrRntl_5alloc3vec3VechEEs0_0CshMCmDISD09f_27comprehensive_numeric_tests
FN:1367,_RNCINvNtCs8M7rtMEmd2k_14copybook_codec7lib_api20decode_file_to_jsonlINtNtNtCs4eoO4cHkFdT_3std2io6cursor6CursorRAhjf_EQINtNtCs31agqjrRntl_5alloc3vec3VechEEs1_0CshMCmDISD09f_27comprehensive_numeric_tests
FN:1370,_RNCINvNtCs8M7rtMEmd2k_14copybook_codec7lib_api20decode_file_to_jsonlINtNtNtCs4eoO4cHkFdT_3std2io6cursor6CursorRAhjf_EQINtNtCs31agqjrRntl_5alloc3vec3VechEEs2_0CshMCmDISD09f_27comprehensive_numeric_tests
FN:1391,_RNCINvNtCs8M7rtMEmd2k_14copybook_codec7lib_api20decode_file_to_jsonlINtNtNtCs4eoO4cHkFdT_3std2io6cursor6CursorRAhjf_EQINtNtCs31agqjrRntl_5alloc3vec3VechEEs3_0CshMCmDISD09f_27comprehensive_numeric_tests
FN:1300,_RNCINvNtCs8M7rtMEmd2k_14copybook_codec7lib_api20decode_file_to_jsonlINtNtNtCs4eoO4cHkFdT_3std2io6cursor6CursorRAhjf_EQINtNtCs31agqjrRntl_5alloc3vec3VechEEs_0CshMCmDISD09f_27comprehensive_numeric_tests
FN:1273,_RINvNtCs8M7rtMEmd2k_14copybook_codec7lib_api20decode_file_to_jsonlINtNtNtCs4eoO4cHkFdT_3std2io6cursor6CursorINtNtCs31agqjrRntl_5alloc3vec3VechEEQB1I_ECsgzuDHo0g7lo_23comprehensive_rdw_tests
FN:1273,_RINvNtCs8M7rtMEmd2k_14copybook_codec7lib_api20decode_file_to_jsonlINtNtNtCs4eoO4cHkFdT_3std2io6cursor6CursorRAhj0_EQINtNtCs31agqjrRntl_5alloc3vec3VechEECsgzuDHo0g7lo_23comprehensive_rdw_tests
FN:1273,_RINvNtCs8M7rtMEmd2k_14copybook_codec7lib_api20decode_file_to_jsonlINtNtNtCs4eoO4cHkFdT_3std2io6cursor6CursorRAhj10_EQINtNtCs31agqjrRntl_5alloc3vec3VechEECsgzuDHo0g7lo_23comprehensive_rdw_tests
FN:1273,_RINvNtCs8M7rtMEmd2k_14copybook_codec7lib_api20decode_file_to_jsonlINtNtNtCs4eoO4cHkFdT_3std2io6cursor6CursorRAhj1b_EQINtNtCs31agqjrRntl_5alloc3vec3VechEECsgzuDHo0g7lo_23comprehensive_rdw_tests
FN:1273,_RINvNtCs8M7rtMEmd2k_14copybook_codec7lib_api20decode_file_to_jsonlINtNtNtCs4eoO4cHkFdT_3std2io6cursor6CursorRAhj2_EQINtNtCs31agqjrRntl_5alloc3vec3VechEECsgzuDHo0g7lo_23comprehensive_rdw_tests
FN:1273,_RINvNtCs8M7rtMEmd2k_14copybook_codec7lib_api20decode_file_to_jsonlINtNtNtCs4eoO4cHkFdT_3std2io6cursor6CursorRAhj4_EQINtNtCs31agqjrRntl_5alloc3vec3VechEECsgzuDHo0g7lo_23comprehensive_rdw_tests
FN:1273,_RINvNtCs8M7rtMEmd2k_14copybook_codec7lib_api20decode_file_to_jsonlINtNtNtCs4eoO4cHkFdT_3std2io6cursor6CursorRAhj9_EQINtNtCs31agqjrRntl_5alloc3vec3VechEECsgzuDHo0g7lo_23comprehensive_rdw_tests
FN:1273,_RINvNtCs8M7rtMEmd2k_14copybook_codec7lib_api20decode_file_to_jsonlINtNtNtCs4eoO4cHkFdT_3std2io6cursor6CursorRAhjc_EQINtNtCs31agqjrRntl_5alloc3vec3VechEECsgzuDHo0g7lo_23comprehensive_rdw_tests
FN:1273,_RINvNtCs8M7rtMEmd2k_14copybook_codec7lib_api20decode_file_to_jsonlINtNtNtCs4eoO4cHkFdT_3std2io6cursor6CursorRAhje_EQINtNtCs31agqjrRntl_5alloc3vec3VechEECsgzuDHo0g7lo_23comprehensive_rdw_tests
FN:1273,_RINvNtCs8M7rtMEmd2k_14copybook_codec7lib_api20decode_file_to_jsonlINtNtNtCs4eoO4cHkFdT_3std2io6cursor6CursorRAhjf_EQINtNtCs31agqjrRntl_5alloc3vec3VechEECsgzuDHo0g7lo_23comprehensive_rdw_tests
FN:1283,_RNCINvNtCs8M7rtMEmd2k_14copybook_codec7lib_api20decode_file_to_jsonlINtNtNtCs4eoO4cHkFdT_3std2io6cursor6CursorINtNtCs31agqjrRntl_5alloc3vec3VechEEQB1K_E0CsgzuDHo0g7lo_23comprehensive_rdw_tests
FN:1303,_RNCINvNtCs8M7rtMEmd2k_14copybook_codec7lib_api20decode_file_to_jsonlINtNtNtCs4eoO4cHkFdT_3std2io6cursor6CursorINtNtCs31agqjrRntl_5alloc3vec3VechEEQB1K_Es0_0CsgzuDHo0g7lo_23comprehensive_rdw_tests
FN:1367,_RNCINvNtCs8M7rtMEmd2k_14copybook_codec7lib_api20decode_file_to_jsonlINtNtNtCs4eoO4cHkFdT_3std2io6cursor6CursorINtNtCs31agqjrRntl_5alloc3vec3VechEEQB1K_Es1_0CsgzuDHo0g7lo_23comprehensive_rdw_tests
FN:1370,_RNCINvNtCs8M7rtMEmd2k_14copybook_codec7lib_api20decode_file_to_jsonlINtNtNtCs4eoO4cHkFdT_3std2io6cursor6CursorINtNtCs31agqjrRntl_5alloc3vec3VechEEQB1K_Es2_0CsgzuDHo0g7lo_23comprehensive_rdw_tests
FN:1391,_RNCINvNtCs8M7rtMEmd2k_14copybook_codec7lib_api20decode_file_to_jsonlINtNtNtCs4eoO4cHkFdT_3std2io6cursor6CursorINtNtCs31agqjrRntl_5alloc3vec3VechEEQB1K_Es3_0CsgzuDHo0g7lo_23comprehensive_rdw_tests
FN:1300,_RNCINvNtCs8M7rtMEmd2k_14copybook_codec7lib_api20decode_file_to_jsonlINtNtNtCs4eoO4cHkFdT_3std2io6cursor6CursorINtNtCs31agqjrRntl_5alloc3vec3VechEEQB1K_Es_0CsgzuDHo0g7lo_23comprehensive_rdw_tests
FN:1283,_RNCINvNtCs8M7rtMEmd2k_14copybook_codec7lib_api20decode_file_to_jsonlINtNtNtCs4eoO4cHkFdT_3std2io6cursor6CursorRAhj0_EQINtNtCs31agqjrRntl_5alloc3vec3VechEE0CsgzuDHo0g7lo_23comprehensive_rdw_tests
FN:1303,_RNCINvNtCs8M7rtMEmd2k_14copybook_codec7lib_api20decode_file_to_jsonlINtNtNtCs4eoO4cHkFdT_3std2io6cursor6CursorRAhj0_EQINtNtCs31agqjrRntl_5alloc3vec3VechEEs0_0CsgzuDHo0g7lo_23comprehensive_rdw_tests
FN:1367,_RNCINvNtCs8M7rtMEmd2k_14copybook_codec7lib_api20decode_file_to_jsonlINtNtNtCs4eoO4cHkFdT_3std2io6cursor6CursorRAhj0_EQINtNtCs31agqjrRntl_5alloc3vec3VechEEs1_0CsgzuDHo0g7lo_23comprehensive_rdw_tests
FN:1370,_RNCINvNtCs8M7rtMEmd2k_14copybook_codec7lib_api20decode_file_to_jsonlINtNtNtCs4eoO4cHkFdT_3std2io6cursor6CursorRAhj0_EQINtNtCs31agqjrRntl_5alloc3vec3VechEEs2_0CsgzuDHo0g7lo_23comprehensive_rdw_tests
FN:1391,_RNCINvNtCs8M7rtMEmd2k_14copybook_codec7lib_api20decode_file_to_jsonlINtNtNtCs4eoO4cHkFdT_3std2io6cursor6CursorRAhj0_EQINtNtCs31agqjrRntl_5alloc3vec3VechEEs3_0CsgzuDHo0g7lo_23comprehensive_rdw_tests
FN:1300,_RNCINvNtCs8M7rtMEmd2k_14copybook_codec7lib_api20decode_file_to_jsonlINtNtNtCs4eoO4cHkFdT_3std2io6cursor6CursorRAhj0_EQINtNtCs31agqjrRntl_5alloc3vec3VechEEs_0CsgzuDHo0g7lo_23comprehensive_rdw_tests
FN:1283,_RNCINvNtCs8M7rtMEmd2k_14copybook_codec7lib_api20decode_file_to_jsonlINtNtNtCs4eoO4cHkFdT_3std2io6cursor6CursorRAhj10_EQINtNtCs31agqjrRntl_5alloc3vec3VechEE0CsgzuDHo0g7lo_23comprehensive_rdw_tests
FN:1303,_RNCINvNtCs8M7rtMEmd2k_14copybook_codec7lib_api20decode_file_to_jsonlINtNtNtCs4eoO4cHkFdT_3std2io6cursor6CursorRAhj10_EQINtNtCs31agqjrRntl_5alloc3vec3VechEEs0_0CsgzuDHo0g7lo_23comprehensive_rdw_tests
FN:1367,_RNCINvNtCs8M7rtMEmd2k_14copybook_codec7lib_api20decode_file_to_jsonlINtNtNtCs4eoO4cHkFdT_3std2io6cursor6CursorRAhj10_EQINtNtCs31agqjrRntl_5alloc3vec3VechEEs1_0CsgzuDHo0g7lo_23comprehensive_rdw_tests
FN:1370,_RNCINvNtCs8M7rtMEmd2k_14copybook_codec7lib_api20decode_file_to_jsonlINtNtNtCs4eoO4cHkFdT_3std2io6cursor6CursorRAhj10_EQINtNtCs31agqjrRntl_5alloc3vec3VechEEs2_0CsgzuDHo0g7lo_23comprehensive_rdw_tests
FN:1391,_RNCINvNtCs8M7rtMEmd2k_14copybook_codec7lib_api20decode_file_to_jsonlINtNtNtCs4eoO4cHkFdT_3std2io6cursor6CursorRAhj10_EQINtNtCs31agqjrRntl_5alloc3vec3VechEEs3_0CsgzuDHo0g7lo_23comprehensive_rdw_tests
FN:1300,_RNCINvNtCs8M7rtMEmd2k_14copybook_codec7lib_api20decode_file_to_jsonlINtNtNtCs4eoO4cHkFdT_3std2io6cursor6CursorRAhj10_EQINtNtCs31agqjrRntl_5alloc3vec3VechEEs_0CsgzuDHo0g7lo_23comprehensive_rdw_tests
FN:1283,_RNCINvNtCs8M7rtMEmd2k_14copybook_codec7lib_api20decode_file_to_jsonlINtNtNtCs4eoO4cHkFdT_3std2io6cursor6CursorRAhj1b_EQINtNtCs31agqjrRntl_5alloc3vec3VechEE0CsgzuDHo0g7lo_23comprehensive_rdw_tests
FN:1303,_RNCINvNtCs8M7rtMEmd2k_14copybook_codec7lib_api20decode_file_to_jsonlINtNtNtCs4eoO4cHkFdT_3std2io6cursor6CursorRAhj1b_EQINtNtCs31agqjrRntl_5alloc3vec3VechEEs0_0CsgzuDHo0g7lo_23comprehensive_rdw_tests
FN:1367,_RNCINvNtCs8M7rtMEmd2k_14copybook_codec7lib_api20decode_file_to_jsonlINtNtNtCs4eoO4cHkFdT_3std2io6cursor6CursorRAhj1b_EQINtNtCs31agqjrRntl_5alloc3vec3VechEEs1_0CsgzuDHo0g7lo_23comprehensive_rdw_tests
FN:1370,_RNCINvNtCs8M7rtMEmd2k_14copybook_codec7lib_api20decode_file_to_jsonlINtNtNtCs4eoO4cHkFdT_3std2io6cursor6CursorRAhj1b_EQINtNtCs31agqjrRntl_5alloc3vec3VechEEs2_0CsgzuDHo0g7lo_23comprehensive_rdw_tests
FN:1391,_RNCINvNtCs8M7rtMEmd2k_14copybook_codec7lib_api20decode_file_to_jsonlINtNtNtCs4eoO4cHkFdT_3std2io6cursor6CursorRAhj1b_EQINtNtCs31agqjrRntl_5alloc3vec3VechEEs3_0CsgzuDHo0g7lo_23comprehensive_rdw_tests
FN:1300,_RNCINvNtCs8M7rtMEmd2k_14copybook_codec7lib_api20decode_file_to_jsonlINtNtNtCs4eoO4cHkFdT_3std2io6cursor6CursorRAhj1b_EQINtNtCs31agqjrRntl_5alloc3vec3VechEEs_0CsgzuDHo0g7lo_23comprehensive_rdw_tests
FN:1283,_RNCINvNtCs8M7rtMEmd2k_14copybook_codec7lib_api20decode_file_to_jsonlINtNtNtCs4eoO4cHkFdT_3std2io6cursor6CursorRAhj2_EQINtNtCs31agqjrRntl_5alloc3vec3VechEE0CsgzuDHo0g7lo_23comprehensive_rdw_tests
FN:1303,_RNCINvNtCs8M7rtMEmd2k_14copybook_codec7lib_api20decode_file_to_jsonlINtNtNtCs4eoO4cHkFdT_3std2io6cursor6CursorRAhj2_EQINtNtCs31agqjrRntl_5alloc3vec3VechEEs0_0CsgzuDHo0g7lo_23comprehensive_rdw_tests
FN:1367,_RNCINvNtCs8M7rtMEmd2k_14copybook_codec7lib_api20decode_file_to_jsonlINtNtNtCs4eoO4cHkFdT_3std2io6cursor6CursorRAhj2_EQINtNtCs31agqjrRntl_5alloc3vec3VechEEs1_0CsgzuDHo0g7lo_23comprehensive_rdw_tests
FN:1370,_RNCINvNtCs8M7rtMEmd2k_14copybook_codec7lib_api20decode_file_to_jsonlINtNtNtCs4eoO4cHkFdT_3std2io6cursor6CursorRAhj2_EQINtNtCs31agqjrRntl_5alloc3vec3VechEEs2_0CsgzuDHo0g7lo_23comprehensive_rdw_tests
FN:1391,_RNCINvNtCs8M7rtMEmd2k_14copybook_codec7lib_api20decode_file_to_jsonlINtNtNtCs4eoO4cHkFdT_3std2io6cursor6CursorRAhj2_EQINtNtCs31agqjrRntl_5alloc3vec3VechEEs3_0CsgzuDHo0g7lo_23comprehensive_rdw_tests
FN:1300,_RNCINvNtCs8M7rtMEmd2k_14copybook_codec7lib_api20decode_file_to_jsonlINtNtNtCs4eoO4cHkFdT_3std2io6cursor6CursorRAhj2_EQINtNtCs31agqjrRntl_5alloc3vec3VechEEs_0CsgzuDHo0g7lo_23comprehensive_rdw_tests
FN:1283,_RNCINvNtCs8M7rtMEmd2k_14copybook_codec7lib_api20decode_file_to_jsonlINtNtNtCs4eoO4cHkFdT_3std2io6cursor6CursorRAhj4_EQINtNtCs31agqjrRntl_5alloc3vec3VechEE0CsgzuDHo0g7lo_23comprehensive_rdw_tests
FN:1303,_RNCINvNtCs8M7rtMEmd2k_14copybook_codec7lib_api20decode_file_to_jsonlINtNtNtCs4eoO4cHkFdT_3std2io6cursor6CursorRAhj4_EQINtNtCs31agqjrRntl_5alloc3vec3VechEEs0_0CsgzuDHo0g7lo_23comprehensive_rdw_tests
FN:1367,_RNCINvNtCs8M7rtMEmd2k_14copybook_codec7lib_api20decode_file_to_jsonlINtNtNtCs4eoO4cHkFdT_3std2io6cursor6CursorRAhj4_EQINtNtCs31agqjrRntl_5alloc3vec3VechEEs1_0CsgzuDHo0g7lo_23comprehensive_rdw_tests
FN:1370,_RNCINvNtCs8M7rtMEmd2k_14copybook_codec7lib_api20decode_file_to_jsonlINtNtNtCs4eoO4cHkFdT_3std2io6cursor6CursorRAhj4_EQINtNtCs31agqjrRntl_5alloc3vec3VechEEs2_0CsgzuDHo0g7lo_23comprehensive_rdw_tests
FN:1391,_RNCINvNtCs8M7rtMEmd2k_14copybook_codec7lib_api20decode_file_to_jsonlINtNtNtCs4eoO4cHkFdT_3std2io6cursor6CursorRAhj4_EQINtNtCs31agqjrRntl_5alloc3vec3VechEEs3_0CsgzuDHo0g7lo_23comprehensive_rdw_tests
FN:1300,_RNCINvNtCs8M7rtMEmd2k_14copybook_codec7lib_api20decode_file_to_jsonlINtNtNtCs4eoO4cHkFdT_3std2io6cursor6CursorRAhj4_EQINtNtCs31agqjrRntl_5alloc3vec3VechEEs_0CsgzuDHo0g7lo_23comprehensive_rdw_tests
FN:1283,_RNCINvNtCs8M7rtMEmd2k_14copybook_codec7lib_api20decode_file_to_jsonlINtNtNtCs4eoO4cHkFdT_3std2io6cursor6CursorRAhj9_EQINtNtCs31agqjrRntl_5alloc3vec3VechEE0CsgzuDHo0g7lo_23comprehensive_rdw_tests
FN:1303,_RNCINvNtCs8M7rtMEmd2k_14copybook_codec7lib_api20decode_file_to_jsonlINtNtNtCs4eoO4cHkFdT_3std2io6cursor6CursorRAhj9_EQINtNtCs31agqjrRntl_5alloc3vec3VechEEs0_0CsgzuDHo0g7lo_23comprehensive_rdw_tests
FN:1367,_RNCINvNtCs8M7rtMEmd2k_14copybook_codec7lib_api20decode_file_to_jsonlINtNtNtCs4eoO4cHkFdT_3std2io6cursor6CursorRAhj9_EQINtNtCs31agqjrRntl_5alloc3vec3VechEEs1_0CsgzuDHo0g7lo_23comprehensive_rdw_tests
FN:1370,_RNCINvNtCs8M7rtMEmd2k_14copybook_codec7lib_api20decode_file_to_jsonlINtNtNtCs4eoO4cHkFdT_3std2io6cursor6CursorRAhj9_EQINtNtCs31agqjrRntl_5alloc3vec3VechEEs2_0CsgzuDHo0g7lo_23comprehensive_rdw_tests
FN:1391,_RNCINvNtCs8M7rtMEmd2k_14copybook_codec7lib_api20decode_file_to_jsonlINtNtNtCs4eoO4cHkFdT_3std2io6cursor6CursorRAhj9_EQINtNtCs31agqjrRntl_5alloc3vec3VechEEs3_0CsgzuDHo0g7lo_23comprehensive_rdw_tests
FN:1300,_RNCINvNtCs8M7rtMEmd2k_14copybook_codec7lib_api20decode_file_to_jsonlINtNtNtCs4eoO4cHkFdT_3std2io6cursor6CursorRAhj9_EQINtNtCs31agqjrRntl_5alloc3vec3VechEEs_0CsgzuDHo0g7lo_23comprehensive_rdw_tests
FN:1283,_RNCINvNtCs8M7rtMEmd2k_14copybook_codec7lib_api20decode_file_to_jsonlINtNtNtCs4eoO4cHkFdT_3std2io6cursor6CursorRAhjc_EQINtNtCs31agqjrRntl_5alloc3vec3VechEE0CsgzuDHo0g7lo_23comprehensive_rdw_tests
FN:1303,_RNCINvNtCs8M7rtMEmd2k_14copybook_codec7lib_api20decode_file_to_jsonlINtNtNtCs4eoO4cHkFdT_3std2io6cursor6CursorRAhjc_EQINtNtCs31agqjrRntl_5alloc3vec3VechEEs0_0CsgzuDHo0g7lo_23comprehensive_rdw_tests
FN:1367,_RNCINvNtCs8M7rtMEmd2k_14copybook_codec7lib_api20decode_file_to_jsonlINtNtNtCs4eoO4cHkFdT_3std2io6cursor6CursorRAhjc_EQINtNtCs31agqjrRntl_5alloc3vec3VechEEs1_0CsgzuDHo0g7lo_23comprehensive_rdw_tests
FN:1370,_RNCINvNtCs8M7rtMEmd2k_14copybook_codec7lib_api20decode_file_to_jsonlINtNtNtCs4eoO4cHkFdT_3std2io6cursor6CursorRAhjc_EQINtNtCs31agqjrRntl_5alloc3vec3VechEEs2_0CsgzuDHo0g7lo_23comprehensive_rdw_tests
FN:1391,_RNCINvNtCs8M7rtMEmd2k_14copybook_codec7lib_api20decode_file_to_jsonlINtNtNtCs4eoO4cHkFdT_3std2io6cursor6CursorRAhjc_EQINtNtCs31agqjrRntl_5alloc3vec3VechEEs3_0CsgzuDHo0g7lo_23comprehensive_rdw_tests
FN:1300,_RNCINvNtCs8M7rtMEmd2k_14copybook_codec7lib_api20decode_file_to_jsonlINtNtNtCs4eoO4cHkFdT_3std2io6cursor6CursorRAhjc_EQINtNtCs31agqjrRntl_5alloc3vec3VechEEs_0CsgzuDHo0g7lo_23comprehensive_rdw_tests
FN:1283,_RNCINvNtCs8M7rtMEmd2k_14copybook_codec7lib_api20decode_file_to_jsonlINtNtNtCs4eoO4cHkFdT_3std2io6cursor6CursorRAhje_EQINtNtCs31agqjrRntl_5alloc3vec3VechEE0CsgzuDHo0g7lo_23comprehensive_rdw_tests
FN:1303,_RNCINvNtCs8M7rtMEmd2k_14copybook_codec7lib_api20decode_file_to_jsonlINtNtNtCs4eoO4cHkFdT_3std2io6cursor6CursorRAhje_EQINtNtCs31agqjrRntl_5alloc3vec3VechEEs0_0CsgzuDHo0g7lo_23comprehensive_rdw_tests
FN:1367,_RNCINvNtCs8M7rtMEmd2k_14copybook_codec7lib_api20decode_file_to_jsonlINtNtNtCs4eoO4cHkFdT_3std2io6cursor6CursorRAhje_EQINtNtCs31agqjrRntl_5alloc3vec3VechEEs1_0CsgzuDHo0g7lo_23comprehensive_rdw_tests
FN:1370,_RNCINvNtCs8M7rtMEmd2k_14copybook_codec7lib_api20decode_file_to_jsonlINtNtNtCs4eoO4cHkFdT_3std2io6cursor6CursorRAhje_EQINtNtCs31agqjrRntl_5alloc3vec3VechEEs2_0CsgzuDHo0g7lo_23comprehensive_rdw_tests
FN:1391,_RNCINvNtCs8M7rtMEmd2k_14copybook_codec7lib_api20decode_file_to_jsonlINtNtNtCs4eoO4cHkFdT_3std2io6cursor6CursorRAhje_EQINtNtCs31agqjrRntl_5alloc3vec3VechEEs3_0CsgzuDHo0g7lo_23comprehensive_rdw_tests
FN:1300,_RNCINvNtCs8M7rtMEmd2k_14copybook_codec7lib_api20decode_file_to_jsonlINtNtNtCs4eoO4cHkFdT_3std2io6cursor6CursorRAhje_EQINtNtCs31agqjrRntl_5alloc3vec3VechEEs_0CsgzuDHo0g7lo_23comprehensive_rdw_tests
FN:1283,_RNCINvNtCs8M7rtMEmd2k_14copybook_codec7lib_api20decode_file_to_jsonlINtNtNtCs4eoO4cHkFdT_3std2io6cursor6CursorRAhjf_EQINtNtCs31agqjrRntl_5alloc3vec3VechEE0CsgzuDHo0g7lo_23comprehensive_rdw_tests
FN:1303,_RNCINvNtCs8M7rtMEmd2k_14copybook_codec7lib_api20decode_file_to_jsonlINtNtNtCs4eoO4cHkFdT_3std2io6cursor6CursorRAhjf_EQINtNtCs31agqjrRntl_5alloc3vec3VechEEs0_0CsgzuDHo0g7lo_23comprehensive_rdw_tests
FN:1367,_RNCINvNtCs8M7rtMEmd2k_14copybook_codec7lib_api20decode_file_to_jsonlINtNtNtCs4eoO4cHkFdT_3std2io6cursor6CursorRAhjf_EQINtNtCs31agqjrRntl_5alloc3vec3VechEEs1_0CsgzuDHo0g7lo_23comprehensive_rdw_tests
FN:1370,_RNCINvNtCs8M7rtMEmd2k_14copybook_codec7lib_api20decode_file_to_jsonlINtNtNtCs4eoO4cHkFdT_3std2io6cursor6CursorRAhjf_EQINtNtCs31agqjrRntl_5alloc3vec3VechEEs2_0CsgzuDHo0g7lo_23comprehensive_rdw_tests
FN:1391,_RNCINvNtCs8M7rtMEmd2k_14copybook_codec7lib_api20decode_file_to_jsonlINtNtNtCs4eoO4cHkFdT_3std2io6cursor6CursorRAhjf_EQINtNtCs31agqjrRntl_5alloc3vec3VechEEs3_0CsgzuDHo0g7lo_23comprehensive_rdw_tests
FN:1300,_RNCINvNtCs8M7rtMEmd2k_14copybook_codec7lib_api20decode_file_to_jsonlINtNtNtCs4eoO4cHkFdT_3std2io6cursor6CursorRAhjf_EQINtNtCs31agqjrRntl_5alloc3vec3VechEEs_0CsgzuDHo0g7lo_23comprehensive_rdw_tests
FN:1273,_RINvNtCs8M7rtMEmd2k_14copybook_codec7lib_api20decode_file_to_jsonlINtNtNtCs4eoO4cHkFdT_3std2io6cursor6CursorRAhj11_EQINtNtCs31agqjrRntl_5alloc3vec3VechEECsc6sau5EZUC8_33comprehensive_redefines_odo_tests
FN:1273,_RINvNtCs8M7rtMEmd2k_14copybook_codec7lib_api20decode_file_to_jsonlINtNtNtCs4eoO4cHkFdT_3std2io6cursor6CursorRAhj14_EQINtNtCs31agqjrRntl_5alloc3vec3VechEECsc6sau5EZUC8_33comprehensive_redefines_odo_tests
FN:1273,_RINvNtCs8M7rtMEmd2k_14copybook_codec7lib_api20decode_file_to_jsonlINtNtNtCs4eoO4cHkFdT_3std2io6cursor6CursorRAhj1c_EQINtNtCs31agqjrRntl_5alloc3vec3VechEECsc6sau5EZUC8_33comprehensive_redefines_odo_tests
FN:1273,_RINvNtCs8M7rtMEmd2k_14copybook_codec7lib_api20decode_file_to_jsonlINtNtNtCs4eoO4cHkFdT_3std2io6cursor6CursorRAhj8_EQINtNtCs31agqjrRntl_5alloc3vec3VechEECsc6sau5EZUC8_33comprehensive_redefines_odo_tests
FN:1283,_RNCINvNtCs8M7rtMEmd2k_14copybook_codec7lib_api20decode_file_to_jsonlINtNtNtCs4eoO4cHkFdT_3std2io6cursor6CursorRAhj11_EQINtNtCs31agqjrRntl_5alloc3vec3VechEE0Csc6sau5EZUC8_33comprehensive_redefines_odo_tests
FN:1303,_RNCINvNtCs8M7rtMEmd2k_14copybook_codec7lib_api20decode_file_to_jsonlINtNtNtCs4eoO4cHkFdT_3std2io6cursor6CursorRAhj11_EQINtNtCs31agqjrRntl_5alloc3vec3VechEEs0_0Csc6sau5EZUC8_33comprehensive_redefines_odo_tests
FN:1367,_RNCINvNtCs8M7rtMEmd2k_14copybook_codec7lib_api20decode_file_to_jsonlINtNtNtCs4eoO4cHkFdT_3std2io6cursor6CursorRAhj11_EQINtNtCs31agqjrRntl_5alloc3vec3VechEEs1_0Csc6sau5EZUC8_33comprehensive_redefines_odo_tests
FN:1370,_RNCINvNtCs8M7rtMEmd2k_14copybook_codec7lib_api20decode_file_to_jsonlINtNtNtCs4eoO4cHkFdT_3std2io6cursor6CursorRAhj11_EQINtNtCs31agqjrRntl_5alloc3vec3VechEEs2_0Csc6sau5EZUC8_33comprehensive_redefines_odo_tests
FN:1391,_RNCINvNtCs8M7rtMEmd2k_14copybook_codec7lib_api20decode_file_to_jsonlINtNtNtCs4eoO4cHkFdT_3std2io6cursor6CursorRAhj11_EQINtNtCs31agqjrRntl_5alloc3vec3VechEEs3_0Csc6sau5EZUC8_33comprehensive_redefines_odo_tests
FN:1300,_RNCINvNtCs8M7rtMEmd2k_14copybook_codec7lib_api20decode_file_to_jsonlINtNtNtCs4eoO4cHkFdT_3std2io6cursor6CursorRAhj11_EQINtNtCs31agqjrRntl_5alloc3vec3VechEEs_0Csc6sau5EZUC8_33comprehensive_redefines_odo_tests
FN:1283,_RNCINvNtCs8M7rtMEmd2k_14copybook_codec7lib_api20decode_file_to_jsonlINtNtNtCs4eoO4cHkFdT_3std2io6cursor6CursorRAhj14_EQINtNtCs31agqjrRntl_5alloc3vec3VechEE0Csc6sau5EZUC8_33comprehensive_redefines_odo_tests
FN:1303,_RNCINvNtCs8M7rtMEmd2k_14copybook_codec7lib_api20decode_file_to_jsonlINtNtNtCs4eoO4cHkFdT_3std2io6cursor6CursorRAhj14_EQINtNtCs31agqjrRntl_5alloc3vec3VechEEs0_0Csc6sau5EZUC8_33comprehensive_redefines_odo_tests
FN:1367,_RNCINvNtCs8M7rtMEmd2k_14copybook_codec7lib_api20decode_file_to_jsonlINtNtNtCs4eoO4cHkFdT_3std2io6cursor6CursorRAhj14_EQINtNtCs31agqjrRntl_5alloc3vec3VechEEs1_0Csc6sau5EZUC8_33comprehensive_redefines_odo_tests
FN:1370,_RNCINvNtCs8M7rtMEmd2k_14copybook_codec7lib_api20decode_file_to_jsonlINtNtNtCs4eoO4cHkFdT_3std2io6cursor6CursorRAhj14_EQINtNtCs31agqjrRntl_5alloc3vec3VechEEs2_0Csc6sau5EZUC8_33comprehensive_redefines_odo_tests
FN:1391,_RNCINvNtCs8M7rtMEmd2k_14copybook_codec7lib_api20decode_file_to_jsonlINtNtNtCs4eoO4cHkFdT_3std2io6cursor6CursorRAhj14_EQINtNtCs31agqjrRntl_5alloc3vec3VechEEs3_0Csc6sau5EZUC8_33comprehensive_redefines_odo_tests
FN:1300,_RNCINvNtCs8M7rtMEmd2k_14copybook_codec7lib_api20decode_file_to_jsonlINtNtNtCs4eoO4cHkFdT_3std2io6cursor6CursorRAhj14_EQINtNtCs31agqjrRntl_5alloc3vec3VechEEs_0Csc6sau5EZUC8_33comprehensive_redefines_odo_tests
FN:1283,_RNCINvNtCs8M7rtMEmd2k_14copybook_codec7lib_api20decode_file_to_jsonlINtNtNtCs4eoO4cHkFdT_3std2io6cursor6CursorRAhj1c_EQINtNtCs31agqjrRntl_5alloc3vec3VechEE0Csc6sau5EZUC8_33comprehensive_redefines_odo_tests
FN:1303,_RNCINvNtCs8M7rtMEmd2k_14copybook_codec7lib_api20decode_file_to_jsonlINtNtNtCs4eoO4cHkFdT_3std2io6cursor6CursorRAhj1c_EQINtNtCs31agqjrRntl_5alloc3vec3VechEEs0_0Csc6sau5EZUC8_33comprehensive_redefines_odo_tests
FN:1367,_RNCINvNtCs8M7rtMEmd2k_14copybook_codec7lib_api20decode_file_to_jsonlINtNtNtCs4eoO4cHkFdT_3std2io6cursor6CursorRAhj1c_EQINtNtCs31agqjrRntl_5alloc3vec3VechEEs1_0Csc6sau5EZUC8_33comprehensive_redefines_odo_tests
FN:1370,_RNCINvNtCs8M7rtMEmd2k_14copybook_codec7lib_api20decode_file_to_jsonlINtNtNtCs4eoO4cHkFdT_3std2io6cursor6CursorRAhj1c_EQINtNtCs31agqjrRntl_5alloc3vec3VechEEs2_0Csc6sau5EZUC8_33comprehensive_redefines_odo_tests
FN:1391,_RNCINvNtCs8M7rtMEmd2k_14copybook_codec7lib_api20decode_file_to_jsonlINtNtNtCs4eoO4cHkFdT_3std2io6cursor6CursorRAhj1c_EQINtNtCs31agqjrRntl_5alloc3vec3VechEEs3_0Csc6sau5EZUC8_33comprehensive_redefines_odo_tests
FN:1300,_RNCINvNtCs8M7rtMEmd2k_14copybook_codec7lib_api20decode_file_to_jsonlINtNtNtCs4eoO4cHkFdT_3std2io6cursor6CursorRAhj1c_EQINtNtCs31agqjrRntl_5alloc3vec3VechEEs_0Csc6sau5EZUC8_33comprehensive_redefines_odo_tests
FN:1283,_RNCINvNtCs8M7rtMEmd2k_14copybook_codec7lib_api20decode_file_to_jsonlINtNtNtCs4eoO4cHkFdT_3std2io6cursor6CursorRAhj8_EQINtNtCs31agqjrRntl_5alloc3vec3VechEE0Csc6sau5EZUC8_33comprehensive_redefines_odo_tests
FN:1303,_RNCINvNtCs8M7rtMEmd2k_14copybook_codec7lib_api20decode_file_to_jsonlINtNtNtCs4eoO4cHkFdT_3std2io6cursor6CursorRAhj8_EQINtNtCs31agqjrRntl_5alloc3vec3VechEEs0_0Csc6sau5EZUC8_33comprehensive_redefines_odo_tests
FN:1367,_RNCINvNtCs8M7rtMEmd2k_14copybook_codec7lib_api20decode_file_to_jsonlINtNtNtCs4eoO4cHkFdT_3std2io6cursor6CursorRAhj8_EQINtNtCs31agqjrRntl_5alloc3vec3VechEEs1_0Csc6sau5EZUC8_33comprehensive_redefines_odo_tests
FN:1370,_RNCINvNtCs8M7rtMEmd2k_14copybook_codec7lib_api20decode_file_to_jsonlINtNtNtCs4eoO4cHkFdT_3std2io6cursor6CursorRAhj8_EQINtNtCs31agqjrRntl_5alloc3vec3VechEEs2_0Csc6sau5EZUC8_33comprehensive_redefines_odo_tests
FN:1391,_RNCINvNtCs8M7rtMEmd2k_14copybook_codec7lib_api20decode_file_to_jsonlINtNtNtCs4eoO4cHkFdT_3std2io6cursor6CursorRAhj8_EQINtNtCs31agqjrRntl_5alloc3vec3VechEEs3_0Csc6sau5EZUC8_33comprehensive_redefines_odo_tests
FN:1300,_RNCINvNtCs8M7rtMEmd2k_14copybook_codec7lib_api20decode_file_to_jsonlINtNtNtCs4eoO4cHkFdT_3std2io6cursor6CursorRAhj8_EQINtNtCs31agqjrRntl_5alloc3vec3VechEEs_0Csc6sau5EZUC8_33comprehensive_redefines_odo_tests
FN:1554,_RINvNtCs7MLK0KUMdQf_14copybook_codec7lib_api12iter_recordspEB4_
FN:1542,_RINvNtCs7MLK0KUMdQf_14copybook_codec7lib_api22iter_records_from_filepEB4_
FN:1548,_RNCINvNtCs7MLK0KUMdQf_14copybook_codec7lib_api22iter_records_from_filepE0B6_
FN:127,_RNvMNtCs7MLK0KUMdQf_14copybook_codec7lib_apiNtB2_10RunSummary10error_rate
FN:91,_RNvMNtCs7MLK0KUMdQf_14copybook_codec7lib_apiNtB2_10RunSummary10has_errors
FN:97,_RNvMNtCs7MLK0KUMdQf_14copybook_codec7lib_apiNtB2_10RunSummary12has_warnings
FN:116,_RNvMNtCs7MLK0KUMdQf_14copybook_codec7lib_apiNtB2_10RunSummary12success_rate
FN:72,_RNvMNtCs7MLK0KUMdQf_14copybook_codec7lib_apiNtB2_10RunSummary12with_threads
FN:103,_RNvMNtCs7MLK0KUMdQf_14copybook_codec7lib_apiNtB2_10RunSummary13is_successful
FN:109,_RNvMNtCs7MLK0KUMdQf_14copybook_codec7lib_apiNtB2_10RunSummary13total_records
FN:141,_RNvMNtCs7MLK0KUMdQf_14copybook_codec7lib_apiNtB2_10RunSummary18bytes_processed_mb
FN:151,_RNvMNtCs7MLK0KUMdQf_14copybook_codec7lib_apiNtB2_10RunSummary21set_peak_memory_bytes
FN:146,_RNvMNtCs7MLK0KUMdQf_14copybook_codec7lib_apiNtB2_10RunSummary22set_schema_fingerprint
FN:134,_RNvMNtCs7MLK0KUMdQf_14copybook_codec7lib_apiNtB2_10RunSummary23processing_time_seconds
FN:1500,_RNvMs0_NtCs7MLK0KUMdQf_14copybook_codec7lib_apiINtB5_14RecordIteratorpE6schemaB7_
FN:1505,_RNvMs0_NtCs7MLK0KUMdQf_14copybook_codec7lib_apiINtB5_14RecordIteratorpE7optionsB7_
FN:1513,_RNvXININtCs7MLK0KUMdQf_14copybook_codec7lib_apis1_0pEINtB5_14RecordIteratorpENtNtNtNtCshnvtj5zUHGu_4core4iter6traits8iterator8Iterator4nextB7_
FN:157,_RNvXs_NtCs7MLK0KUMdQf_14copybook_codec7lib_apiNtB4_10RunSummaryNtNtCshnvtj5zUHGu_4core3fmt7Display3fmt
FN:1273,_RINvNtCs7MLK0KUMdQf_14copybook_codec7lib_api20decode_file_to_jsonlINtNtNtCs4eoO4cHkFdT_3std2io6cursor6CursorINtNtCs31agqjrRntl_5alloc3vec3VechEEQB1I_EB4_
FN:1410,_RINvNtCs7MLK0KUMdQf_14copybook_codec7lib_api20encode_jsonl_to_fileINtNtNtCs4eoO4cHkFdT_3std2io6cursor6CursorRShEQINtNtCs31agqjrRntl_5alloc3vec3VechEEB4_
FN:1283,_RNCINvNtCs7MLK0KUMdQf_14copybook_codec7lib_api20decode_file_to_jsonlINtNtNtCs4eoO4cHkFdT_3std2io6cursor6CursorINtNtCs31agqjrRntl_5alloc3vec3VechEEQB1K_E0B6_
FN:1303,_RNCINvNtCs7MLK0KUMdQf_14copybook_codec7lib_api20decode_file_to_jsonlINtNtNtCs4eoO4cHkFdT_3std2io6cursor6CursorINtNtCs31agqjrRntl_5alloc3vec3VechEEQB1K_Es0_0B6_
FN:1367,_RNCINvNtCs7MLK0KUMdQf_14copybook_codec7lib_api20decode_file_to_jsonlINtNtNtCs4eoO4cHkFdT_3std2io6cursor6CursorINtNtCs31agqjrRntl_5alloc3vec3VechEEQB1K_Es1_0B6_
FN:1370,_RNCINvNtCs7MLK0KUMdQf_14copybook_codec7lib_api20decode_file_to_jsonlINtNtNtCs4eoO4cHkFdT_3std2io6cursor6CursorINtNtCs31agqjrRntl_5alloc3vec3VechEEQB1K_Es2_0B6_
FN:1391,_RNCINvNtCs7MLK0KUMdQf_14copybook_codec7lib_api20decode_file_to_jsonlINtNtNtCs4eoO4cHkFdT_3std2io6cursor6CursorINtNtCs31agqjrRntl_5alloc3vec3VechEEQB1K_Es3_0B6_
FN:1300,_RNCINvNtCs7MLK0KUMdQf_14copybook_codec7lib_api20decode_file_to_jsonlINtNtNtCs4eoO4cHkFdT_3std2io6cursor6CursorINtNtCs31agqjrRntl_5alloc3vec3VechEEQB1K_Es_0B6_
FN:1424,_RNCINvNtCs7MLK0KUMdQf_14copybook_codec7lib_api20encode_jsonl_to_fileINtNtNtCs4eoO4cHkFdT_3std2io6cursor6CursorRShEQINtNtCs31agqjrRntl_5alloc3vec3VechEE0B6_
FN:1441,_RNCINvNtCs7MLK0KUMdQf_14copybook_codec7lib_api20encode_jsonl_to_fileINtNtNtCs4eoO4cHkFdT_3std2io6cursor6CursorRShEQINtNtCs31agqjrRntl_5alloc3vec3VechEEs0_0B6_
FN:1434,_RNCINvNtCs7MLK0KUMdQf_14copybook_codec7lib_api20encode_jsonl_to_fileINtNtNtCs4eoO4cHkFdT_3std2io6cursor6CursorRShEQINtNtCs31agqjrRntl_5alloc3vec3VechEEs_0B6_
FN:1040,_RNCNvNtCs7MLK0KUMdQf_14copybook_codec7lib_api13encode_record0B5_
FN:902,_RNCNvNtCs7MLK0KUMdQf_14copybook_codec7lib_api20adjust_field_offsets0B5_
FN:1111,_RNCNvNtCs7MLK0KUMdQf_14copybook_codec7lib_api22encode_fields_to_bytes0B5_
FN:1139,_RNCNvNtCs7MLK0KUMdQf_14copybook_codec7lib_api23encode_fields_recursive0B5_
FN:1268,_RNCNvNtCs7MLK0KUMdQf_14copybook_codec7lib_api25increment_warning_counter0B5_
FN:817,_RNCNvNtCs7MLK0KUMdQf_14copybook_codec7lib_api27find_and_read_counter_field0B5_
FN:856,_RNCNvNtCs7MLK0KUMdQf_14copybook_codec7lib_api27find_and_read_counter_fields_0B5_
FN:1490,_RNvMs0_NtCs7MLK0KUMdQf_14copybook_codec7lib_apiINtB5_14RecordIteratorINtNtNtCs4eoO4cHkFdT_3std2io6cursor6CursorINtNtCs31agqjrRntl_5alloc3vec3VechEEE20current_record_indexB7_
FN:1476,_RNvMs0_NtCs7MLK0KUMdQf_14copybook_codec7lib_apiINtB5_14RecordIteratorINtNtNtCs4eoO4cHkFdT_3std2io6cursor6CursorINtNtCs31agqjrRntl_5alloc3vec3VechEEE3newB7_
FN:1495,_RNvMs0_NtCs7MLK0KUMdQf_14copybook_codec7lib_apiINtB5_14RecordIteratorINtNtNtCs4eoO4cHkFdT_3std2io6cursor6CursorINtNtCs31agqjrRntl_5alloc3vec3VechEEE6is_eofB7_
FN:81,_RNvMNtCs7MLK0KUMdQf_14copybook_codec7lib_apiNtB2_10RunSummary20calculate_throughput
FN:66,_RNvMNtCs7MLK0KUMdQf_14copybook_codec7lib_apiNtB2_10RunSummary3new
FN:196,_RNvNtCs7MLK0KUMdQf_14copybook_codec7lib_api13decode_record
FN:1030,_RNvNtCs7MLK0KUMdQf_14copybook_codec7lib_api13encode_record
FN:875,_RNvNtCs7MLK0KUMdQf_14copybook_codec7lib_api18find_field_by_path
FN:562,_RNvNtCs7MLK0KUMdQf_14copybook_codec7lib_api19process_array_field
FN:20,_RNvNtCs7MLK0KUMdQf_14copybook_codec7lib_api19validate_odo_bounds
FN:896,_RNvNtCs7MLK0KUMdQf_14copybook_codec7lib_api20adjust_field_offsets
FN:1106,_RNvNtCs7MLK0KUMdQf_14copybook_codec7lib_api22encode_fields_to_bytes
FN:1126,_RNvNtCs7MLK0KUMdQf_14copybook_codec7lib_api23encode_fields_recursive
FN:300,_RNvNtCs7MLK0KUMdQf_14copybook_codec7lib_api24process_fields_recursive
FN:915,_RNvNtCs7MLK0KUMdQf_14copybook_codec7lib_api25decode_scalar_field_value
FN:1267,_RNvNtCs7MLK0KUMdQf_14copybook_codec7lib_api25increment_warning_counter
FN:215,_RNvNtCs7MLK0KUMdQf_14copybook_codec7lib_api26decode_record_with_scratch
FN:256,_RNvNtCs7MLK0KUMdQf_14copybook_codec7lib_api27decode_record_with_raw_data
FN:777,_RNvNtCs7MLK0KUMdQf_14copybook_codec7lib_api27find_and_read_counter_field
FN:1563,_RNvNtCs7MLK0KUMdQf_14copybook_codec7lib_api32format_zoned_decimal_with_digits
FN:636,_RNvNtCs7MLK0KUMdQf_14copybook_codec7lib_api32process_array_field_with_scratch
FN:225,_RNvNtCs7MLK0KUMdQf_14copybook_codec7lib_api34decode_record_with_scratch_and_raw
FN:429,_RNvNtCs7MLK0KUMdQf_14copybook_codec7lib_api37process_fields_recursive_with_scratch
FN:1617,_RNvNtNtCs7MLK0KUMdQf_14copybook_codec7lib_api5testss_18test_decode_record
FN:1639,_RNvNtNtCs7MLK0KUMdQf_14copybook_codec7lib_api5testss_18test_encode_record
FN:1662,_RNvNtNtCs7MLK0KUMdQf_14copybook_codec7lib_api5testss_20test_record_iterator
FN:1682,_RNvNtNtCs7MLK0KUMdQf_14copybook_codec7lib_api5testss_25test_decode_file_to_jsonl
FN:1708,_RNvNtNtCs7MLK0KUMdQf_14copybook_codec7lib_api5testss_25test_encode_jsonl_to_file
FN:1273,_RINvNtCs8M7rtMEmd2k_14copybook_codec7lib_api20decode_file_to_jsonlINtNtNtCs4eoO4cHkFdT_3std2io6cursor6CursorRINtNtCs31agqjrRntl_5alloc3vec3VechEEQB1J_ECsfrfqSxIOjnf_41enterprise_mainframe_production_scenarios
FN:1283,_RNCINvNtCs8M7rtMEmd2k_14copybook_codec7lib_api20decode_file_to_jsonlINtNtNtCs4eoO4cHkFdT_3std2io6cursor6CursorRINtNtCs31agqjrRntl_5alloc3vec3VechEEQB1L_E0CsfrfqSxIOjnf_41enterprise_mainframe_production_scenarios
FN:1303,_RNCINvNtCs8M7rtMEmd2k_14copybook_codec7lib_api20decode_file_to_jsonlINtNtNtCs4eoO4cHkFdT_3std2io6cursor6CursorRINtNtCs31agqjrRntl_5alloc3vec3VechEEQB1L_Es0_0CsfrfqSxIOjnf_41enterprise_mainframe_production_scenarios
FN:1367,_RNCINvNtCs8M7rtMEmd2k_14copybook_codec7lib_api20decode_file_to_jsonlINtNtNtCs4eoO4cHkFdT_3std2io6cursor6CursorRINtNtCs31agqjrRntl_5alloc3vec3VechEEQB1L_Es1_0CsfrfqSxIOjnf_41enterprise_mainframe_production_scenarios
FN:1370,_RNCINvNtCs8M7rtMEmd2k_14copybook_codec7lib_api20decode_file_to_jsonlINtNtNtCs4eoO4cHkFdT_3std2io6cursor6CursorRINtNtCs31agqjrRntl_5alloc3vec3VechEEQB1L_Es2_0CsfrfqSxIOjnf_41enterprise_mainframe_production_scenarios
FN:1391,_RNCINvNtCs8M7rtMEmd2k_14copybook_codec7lib_api20decode_file_to_jsonlINtNtNtCs4eoO4cHkFdT_3std2io6cursor6CursorRINtNtCs31agqjrRntl_5alloc3vec3VechEEQB1L_Es3_0CsfrfqSxIOjnf_41enterprise_mainframe_production_scenarios
FN:1300,_RNCINvNtCs8M7rtMEmd2k_14copybook_codec7lib_api20decode_file_to_jsonlINtNtNtCs4eoO4cHkFdT_3std2io6cursor6CursorRINtNtCs31agqjrRntl_5alloc3vec3VechEEQB1L_Es_0CsfrfqSxIOjnf_41enterprise_mainframe_production_scenarios
FN:1273,_RINvNtCs8M7rtMEmd2k_14copybook_codec7lib_api20decode_file_to_jsonlINtNtNtCs4eoO4cHkFdT_3std2io6cursor6CursorRINtNtCs31agqjrRntl_5alloc3vec3VechEEQB1J_ECsaBuigDW70JO_15golden_fixtures
FN:1410,_RINvNtCs8M7rtMEmd2k_14copybook_codec7lib_api20encode_jsonl_to_fileINtNtNtCs4eoO4cHkFdT_3std2io6cursor6CursorRShEQINtNtCs31agqjrRntl_5alloc3vec3VechEECsaBuigDW70JO_15golden_fixtures
FN:1283,_RNCINvNtCs8M7rtMEmd2k_14copybook_codec7lib_api20decode_file_to_jsonlINtNtNtCs4eoO4cHkFdT_3std2io6cursor6CursorRINtNtCs31agqjrRntl_5alloc3vec3VechEEQB1L_E0CsaBuigDW70JO_15golden_fixtures
FN:1303,_RNCINvNtCs8M7rtMEmd2k_14copybook_codec7lib_api20decode_file_to_jsonlINtNtNtCs4eoO4cHkFdT_3std2io6cursor6CursorRINtNtCs31agqjrRntl_5alloc3vec3VechEEQB1L_Es0_0CsaBuigDW70JO_15golden_fixtures
FN:1367,_RNCINvNtCs8M7rtMEmd2k_14copybook_codec7lib_api20decode_file_to_jsonlINtNtNtCs4eoO4cHkFdT_3std2io6cursor6CursorRINtNtCs31agqjrRntl_5alloc3vec3VechEEQB1L_Es1_0CsaBuigDW70JO_15golden_fixtures
FN:1370,_RNCINvNtCs8M7rtMEmd2k_14copybook_codec7lib_api20decode_file_to_jsonlINtNtNtCs4eoO4cHkFdT_3std2io6cursor6CursorRINtNtCs31agqjrRntl_5alloc3vec3VechEEQB1L_Es2_0CsaBuigDW70JO_15golden_fixtures
FN:1391,_RNCINvNtCs8M7rtMEmd2k_14copybook_codec7lib_api20decode_file_to_jsonlINtNtNtCs4eoO4cHkFdT_3std2io6cursor6CursorRINtNtCs31agqjrRntl_5alloc3vec3VechEEQB1L_Es3_0CsaBuigDW70JO_15golden_fixtures
FN:1300,_RNCINvNtCs8M7rtMEmd2k_14copybook_codec7lib_api20decode_file_to_jsonlINtNtNtCs4eoO4cHkFdT_3std2io6cursor6CursorRINtNtCs31agqjrRntl_5alloc3vec3VechEEQB1L_Es_0CsaBuigDW70JO_15golden_fixtures
FN:1424,_RNCINvNtCs8M7rtMEmd2k_14copybook_codec7lib_api20encode_jsonl_to_fileINtNtNtCs4eoO4cHkFdT_3std2io6cursor6CursorRShEQINtNtCs31agqjrRntl_5alloc3vec3VechEE0CsaBuigDW70JO_15golden_fixtures
FN:1441,_RNCINvNtCs8M7rtMEmd2k_14copybook_codec7lib_api20encode_jsonl_to_fileINtNtNtCs4eoO4cHkFdT_3std2io6cursor6CursorRShEQINtNtCs31agqjrRntl_5alloc3vec3VechEEs0_0CsaBuigDW70JO_15golden_fixtures
FN:1434,_RNCINvNtCs8M7rtMEmd2k_14copybook_codec7lib_api20encode_jsonl_to_fileINtNtNtCs4eoO4cHkFdT_3std2io6cursor6CursorRShEQINtNtCs31agqjrRntl_5alloc3vec3VechEEs_0CsaBuigDW70JO_15golden_fixtures
FN:1273,_RINvNtCs8M7rtMEmd2k_14copybook_codec7lib_api20decode_file_to_jsonlINtNtNtCs4eoO4cHkFdT_3std2io6cursor6CursorRINtNtCs31agqjrRntl_5alloc3vec3VechEEQB1J_ECsg7HvolesBgV_29integration_memory_management
FN:1283,_RNCINvNtCs8M7rtMEmd2k_14copybook_codec7lib_api20decode_file_to_jsonlINtNtNtCs4eoO4cHkFdT_3std2io6cursor6CursorRINtNtCs31agqjrRntl_5alloc3vec3VechEEQB1L_E0Csg7HvolesBgV_29integration_memory_management
FN:1303,_RNCINvNtCs8M7rtMEmd2k_14copybook_codec7lib_api20decode_file_to_jsonlINtNtNtCs4eoO4cHkFdT_3std2io6cursor6CursorRINtNtCs31agqjrRntl_5alloc3vec3VechEEQB1L_Es0_0Csg7HvolesBgV_29integration_memory_management
FN:1367,_RNCINvNtCs8M7rtMEmd2k_14copybook_codec7lib_api20decode_file_to_jsonlINtNtNtCs4eoO4cHkFdT_3std2io6cursor6CursorRINtNtCs31agqjrRntl_5alloc3vec3VechEEQB1L_Es1_0Csg7HvolesBgV_29integration_memory_management
FN:1370,_RNCINvNtCs8M7rtMEmd2k_14copybook_codec7lib_api20decode_file_to_jsonlINtNtNtCs4eoO4cHkFdT_3std2io6cursor6CursorRINtNtCs31agqjrRntl_5alloc3vec3VechEEQB1L_Es2_0Csg7HvolesBgV_29integration_memory_management
FN:1391,_RNCINvNtCs8M7rtMEmd2k_14copybook_codec7lib_api20decode_file_to_jsonlINtNtNtCs4eoO4cHkFdT_3std2io6cursor6CursorRINtNtCs31agqjrRntl_5alloc3vec3VechEEQB1L_Es3_0Csg7HvolesBgV_29integration_memory_management
FN:1300,_RNCINvNtCs8M7rtMEmd2k_14copybook_codec7lib_api20decode_file_to_jsonlINtNtNtCs4eoO4cHkFdT_3std2io6cursor6CursorRINtNtCs31agqjrRntl_5alloc3vec3VechEEQB1L_Es_0Csg7HvolesBgV_29integration_memory_management
FN:1273,_RINvNtCs8M7rtMEmd2k_14copybook_codec7lib_api20decode_file_to_jsonlINtNtNtCs4eoO4cHkFdT_3std2io6cursor6CursorRAhj1c_EQINtNtCs31agqjrRntl_5alloc3vec3VechEECskPdd2mul4kv_25integration_odo_redefines
FN:1273,_RINvNtCs8M7rtMEmd2k_14copybook_codec7lib_api20decode_file_to_jsonlINtNtNtCs4eoO4cHkFdT_3std2io6cursor6CursorRAhj23_EQINtNtCs31agqjrRntl_5alloc3vec3VechEECskPdd2mul4kv_25integration_odo_redefines
FN:1410,_RINvNtCs8M7rtMEmd2k_14copybook_codec7lib_api20encode_jsonl_to_fileINtNtNtCs4eoO4cHkFdT_3std2io6cursor6CursorRShEQINtNtCs31agqjrRntl_5alloc3vec3VechEECskPdd2mul4kv_25integration_odo_redefines
FN:1283,_RNCINvNtCs8M7rtMEmd2k_14copybook_codec7lib_api20decode_file_to_jsonlINtNtNtCs4eoO4cHkFdT_3std2io6cursor6CursorRAhj1c_EQINtNtCs31agqjrRntl_5alloc3vec3VechEE0CskPdd2mul4kv_25integration_odo_redefines
FN:1303,_RNCINvNtCs8M7rtMEmd2k_14copybook_codec7lib_api20decode_file_to_jsonlINtNtNtCs4eoO4cHkFdT_3std2io6cursor6CursorRAhj1c_EQINtNtCs31agqjrRntl_5alloc3vec3VechEEs0_0CskPdd2mul4kv_25integration_odo_redefines
FN:1367,_RNCINvNtCs8M7rtMEmd2k_14copybook_codec7lib_api20decode_file_to_jsonlINtNtNtCs4eoO4cHkFdT_3std2io6cursor6CursorRAhj1c_EQINtNtCs31agqjrRntl_5alloc3vec3VechEEs1_0CskPdd2mul4kv_25integration_odo_redefines
FN:1370,_RNCINvNtCs8M7rtMEmd2k_14copybook_codec7lib_api20decode_file_to_jsonlINtNtNtCs4eoO4cHkFdT_3std2io6cursor6CursorRAhj1c_EQINtNtCs31agqjrRntl_5alloc3vec3VechEEs2_0CskPdd2mul4kv_25integration_odo_redefines
FN:1391,_RNCINvNtCs8M7rtMEmd2k_14copybook_codec7lib_api20decode_file_to_jsonlINtNtNtCs4eoO4cHkFdT_3std2io6cursor6CursorRAhj1c_EQINtNtCs31agqjrRntl_5alloc3vec3VechEEs3_0CskPdd2mul4kv_25integration_odo_redefines
FN:1300,_RNCINvNtCs8M7rtMEmd2k_14copybook_codec7lib_api20decode_file_to_jsonlINtNtNtCs4eoO4cHkFdT_3std2io6cursor6CursorRAhj1c_EQINtNtCs31agqjrRntl_5alloc3vec3VechEEs_0CskPdd2mul4kv_25integration_odo_redefines
FN:1283,_RNCINvNtCs8M7rtMEmd2k_14copybook_codec7lib_api20decode_file_to_jsonlINtNtNtCs4eoO4cHkFdT_3std2io6cursor6CursorRAhj23_EQINtNtCs31agqjrRntl_5alloc3vec3VechEE0CskPdd2mul4kv_25integration_odo_redefines
FN:1303,_RNCINvNtCs8M7rtMEmd2k_14copybook_codec7lib_api20decode_file_to_jsonlINtNtNtCs4eoO4cHkFdT_3std2io6cursor6CursorRAhj23_EQINtNtCs31agqjrRntl_5alloc3vec3VechEEs0_0CskPdd2mul4kv_25integration_odo_redefines
FN:1367,_RNCINvNtCs8M7rtMEmd2k_14copybook_codec7lib_api20decode_file_to_jsonlINtNtNtCs4eoO4cHkFdT_3std2io6cursor6CursorRAhj23_EQINtNtCs31agqjrRntl_5alloc3vec3VechEEs1_0CskPdd2mul4kv_25integration_odo_redefines
FN:1370,_RNCINvNtCs8M7rtMEmd2k_14copybook_codec7lib_api20decode_file_to_jsonlINtNtNtCs4eoO4cHkFdT_3std2io6cursor6CursorRAhj23_EQINtNtCs31agqjrRntl_5alloc3vec3VechEEs2_0CskPdd2mul4kv_25integration_odo_redefines
FN:1391,_RNCINvNtCs8M7rtMEmd2k_14copybook_codec7lib_api20decode_file_to_jsonlINtNtNtCs4eoO4cHkFdT_3std2io6cursor6CursorRAhj23_EQINtNtCs31agqjrRntl_5alloc3vec3VechEEs3_0CskPdd2mul4kv_25integration_odo_redefines
FN:1300,_RNCINvNtCs8M7rtMEmd2k_14copybook_codec7lib_api20decode_file_to_jsonlINtNtNtCs4eoO4cHkFdT_3std2io6cursor6CursorRAhj23_EQINtNtCs31agqjrRntl_5alloc3vec3VechEEs_0CskPdd2mul4kv_25integration_odo_redefines
FN:1424,_RNCINvNtCs8M7rtMEmd2k_14copybook_codec7lib_api20encode_jsonl_to_fileINtNtNtCs4eoO4cHkFdT_3std2io6cursor6CursorRShEQINtNtCs31agqjrRntl_5alloc3vec3VechEE0CskPdd2mul4kv_25integration_odo_redefines
FN:1441,_RNCINvNtCs8M7rtMEmd2k_14copybook_codec7lib_api20encode_jsonl_to_fileINtNtNtCs4eoO4cHkFdT_3std2io6cursor6CursorRShEQINtNtCs31agqjrRntl_5alloc3vec3VechEEs0_0CskPdd2mul4kv_25integration_odo_redefines
FN:1434,_RNCINvNtCs8M7rtMEmd2k_14copybook_codec7lib_api20encode_jsonl_to_fileINtNtNtCs4eoO4cHkFdT_3std2io6cursor6CursorRShEQINtNtCs31agqjrRntl_5alloc3vec3VechEEs_0CskPdd2mul4kv_25integration_odo_redefines
FN:1273,_RINvNtCs8M7rtMEmd2k_14copybook_codec7lib_api20decode_file_to_jsonlINtNtNtCs4eoO4cHkFdT_3std2io6cursor6CursorRAhj2_EQINtNtCs31agqjrRntl_5alloc3vec3VechEECslw1aZpohcdE_21numeric_comprehensive
FN:1273,_RINvNtCs8M7rtMEmd2k_14copybook_codec7lib_api20decode_file_to_jsonlINtNtNtCs4eoO4cHkFdT_3std2io6cursor6CursorRAhj3_EQINtNtCs31agqjrRntl_5alloc3vec3VechEECslw1aZpohcdE_21numeric_comprehensive
FN:1273,_RINvNtCs8M7rtMEmd2k_14copybook_codec7lib_api20decode_file_to_jsonlINtNtNtCs4eoO4cHkFdT_3std2io6cursor6CursorRAhj4_EQINtNtCs31agqjrRntl_5alloc3vec3VechEECslw1aZpohcdE_21numeric_comprehensive
FN:1273,_RINvNtCs8M7rtMEmd2k_14copybook_codec7lib_api20decode_file_to_jsonlINtNtNtCs4eoO4cHkFdT_3std2io6cursor6CursorRAhj5_EQINtNtCs31agqjrRntl_5alloc3vec3VechEECslw1aZpohcdE_21numeric_comprehensive
FN:1273,_RINvNtCs8M7rtMEmd2k_14copybook_codec7lib_api20decode_file_to_jsonlINtNtNtCs4eoO4cHkFdT_3std2io6cursor6CursorRAhj8_EQINtNtCs31agqjrRntl_5alloc3vec3VechEECslw1aZpohcdE_21numeric_comprehensive
FN:1273,_RINvNtCs8M7rtMEmd2k_14copybook_codec7lib_api20decode_file_to_jsonlINtNtNtCs4eoO4cHkFdT_3std2io6cursor6CursorRAhjb_EQINtNtCs31agqjrRntl_5alloc3vec3VechEECslw1aZpohcdE_21numeric_comprehensive
FN:1283,_RNCINvNtCs8M7rtMEmd2k_14copybook_codec7lib_api20decode_file_to_jsonlINtNtNtCs4eoO4cHkFdT_3std2io6cursor6CursorRAhj2_EQINtNtCs31agqjrRntl_5alloc3vec3VechEE0Cslw1aZpohcdE_21numeric_comprehensive
FN:1303,_RNCINvNtCs8M7rtMEmd2k_14copybook_codec7lib_api20decode_file_to_jsonlINtNtNtCs4eoO4cHkFdT_3std2io6cursor6CursorRAhj2_EQINtNtCs31agqjrRntl_5alloc3vec3VechEEs0_0Cslw1aZpohcdE_21numeric_comprehensive
FN:1367,_RNCINvNtCs8M7rtMEmd2k_14copybook_codec7lib_api20decode_file_to_jsonlINtNtNtCs4eoO4cHkFdT_3std2io6cursor6CursorRAhj2_EQINtNtCs31agqjrRntl_5alloc3vec3VechEEs1_0Cslw1aZpohcdE_21numeric_comprehensive
FN:1370,_RNCINvNtCs8M7rtMEmd2k_14copybook_codec7lib_api20decode_file_to_jsonlINtNtNtCs4eoO4cHkFdT_3std2io6cursor6CursorRAhj2_EQINtNtCs31agqjrRntl_5alloc3vec3VechEEs2_0Cslw1aZpohcdE_21numeric_comprehensive
FN:1391,_RNCINvNtCs8M7rtMEmd2k_14copybook_codec7lib_api20decode_file_to_jsonlINtNtNtCs4eoO4cHkFdT_3std2io6cursor6CursorRAhj2_EQINtNtCs31agqjrRntl_5alloc3vec3VechEEs3_0Cslw1aZpohcdE_21numeric_comprehensive
FN:1300,_RNCINvNtCs8M7rtMEmd2k_14copybook_codec7lib_api20decode_file_to_jsonlINtNtNtCs4eoO4cHkFdT_3std2io6cursor6CursorRAhj2_EQINtNtCs31agqjrRntl_5alloc3vec3VechEEs_0Cslw1aZpohcdE_21numeric_comprehensive
FN:1283,_RNCINvNtCs8M7rtMEmd2k_14copybook_codec7lib_api20decode_file_to_jsonlINtNtNtCs4eoO4cHkFdT_3std2io6cursor6CursorRAhj3_EQINtNtCs31agqjrRntl_5alloc3vec3VechEE0Cslw1aZpohcdE_21numeric_comprehensive
FN:1303,_RNCINvNtCs8M7rtMEmd2k_14copybook_codec7lib_api20decode_file_to_jsonlINtNtNtCs4eoO4cHkFdT_3std2io6cursor6CursorRAhj3_EQINtNtCs31agqjrRntl_5alloc3vec3VechEEs0_0Cslw1aZpohcdE_21numeric_comprehensive
FN:1367,_RNCINvNtCs8M7rtMEmd2k_14copybook_codec7lib_api20decode_file_to_jsonlINtNtNtCs4eoO4cHkFdT_3std2io6cursor6CursorRAhj3_EQINtNtCs31agqjrRntl_5alloc3vec3VechEEs1_0Cslw1aZpohcdE_21numeric_comprehensive
FN:1370,_RNCINvNtCs8M7rtMEmd2k_14copybook_codec7lib_api20decode_file_to_jsonlINtNtNtCs4eoO4cHkFdT_3std2io6cursor6CursorRAhj3_EQINtNtCs31agqjrRntl_5alloc3vec3VechEEs2_0Cslw1aZpohcdE_21numeric_comprehensive
FN:1391,_RNCINvNtCs8M7rtMEmd2k_14copybook_codec7lib_api20decode_file_to_jsonlINtNtNtCs4eoO4cHkFdT_3std2io6cursor6CursorRAhj3_EQINtNtCs31agqjrRntl_5alloc3vec3VechEEs3_0Cslw1aZpohcdE_21numeric_comprehensive
FN:1300,_RNCINvNtCs8M7rtMEmd2k_14copybook_codec7lib_api20decode_file_to_jsonlINtNtNtCs4eoO4cHkFdT_3std2io6cursor6CursorRAhj3_EQINtNtCs31agqjrRntl_5alloc3vec3VechEEs_0Cslw1aZpohcdE_21numeric_comprehensive
FN:1283,_RNCINvNtCs8M7rtMEmd2k_14copybook_codec7lib_api20decode_file_to_jsonlINtNtNtCs4eoO4cHkFdT_3std2io6cursor6CursorRAhj4_EQINtNtCs31agqjrRntl_5alloc3vec3VechEE0Cslw1aZpohcdE_21numeric_comprehensive
FN:1303,_RNCINvNtCs8M7rtMEmd2k_14copybook_codec7lib_api20decode_file_to_jsonlINtNtNtCs4eoO4cHkFdT_3std2io6cursor6CursorRAhj4_EQINtNtCs31agqjrRntl_5alloc3vec3VechEEs0_0Cslw1aZpohcdE_21numeric_comprehensive
FN:1367,_RNCINvNtCs8M7rtMEmd2k_14copybook_codec7lib_api20decode_file_to_jsonlINtNtNtCs4eoO4cHkFdT_3std2io6cursor6CursorRAhj4_EQINtNtCs31agqjrRntl_5alloc3vec3VechEEs1_0Cslw1aZpohcdE_21numeric_comprehensive
FN:1370,_RNCINvNtCs8M7rtMEmd2k_14copybook_codec7lib_api20decode_file_to_jsonlINtNtNtCs4eoO4cHkFdT_3std2io6cursor6CursorRAhj4_EQINtNtCs31agqjrRntl_5alloc3vec3VechEEs2_0Cslw1aZpohcdE_21numeric_comprehensive
FN:1391,_RNCINvNtCs8M7rtMEmd2k_14copybook_codec7lib_api20decode_file_to_jsonlINtNtNtCs4eoO4cHkFdT_3std2io6cursor6CursorRAhj4_EQINtNtCs31agqjrRntl_5alloc3vec3VechEEs3_0Cslw1aZpohcdE_21numeric_comprehensive
FN:1300,_RNCINvNtCs8M7rtMEmd2k_14copybook_codec7lib_api20decode_file_to_jsonlINtNtNtCs4eoO4cHkFdT_3std2io6cursor6CursorRAhj4_EQINtNtCs31agqjrRntl_5alloc3vec3VechEEs_0Cslw1aZpohcdE_21numeric_comprehensive
FN:1283,_RNCINvNtCs8M7rtMEmd2k_14copybook_codec7lib_api20decode_file_to_jsonlINtNtNtCs4eoO4cHkFdT_3std2io6cursor6CursorRAhj5_EQINtNtCs31agqjrRntl_5alloc3vec3VechEE0Cslw1aZpohcdE_21numeric_comprehensive
FN:1303,_RNCINvNtCs8M7rtMEmd2k_14copybook_codec7lib_api20decode_file_to_jsonlINtNtNtCs4eoO4cHkFdT_3std2io6cursor6CursorRAhj5_EQINtNtCs31agqjrRntl_5alloc3vec3VechEEs0_0Cslw1aZpohcdE_21numeric_comprehensive
FN:1367,_RNCINvNtCs8M7rtMEmd2k_14copybook_codec7lib_api20decode_file_to_jsonlINtNtNtCs4eoO4cHkFdT_3std2io6cursor6CursorRAhj5_EQINtNtCs31agqjrRntl_5alloc3vec3VechEEs1_0Cslw1aZpohcdE_21numeric_comprehensive
FN:1370,_RNCINvNtCs8M7rtMEmd2k_14copybook_codec7lib_api20decode_file_to_jsonlINtNtNtCs4eoO4cHkFdT_3std2io6cursor6CursorRAhj5_EQINtNtCs31agqjrRntl_5alloc3vec3VechEEs2_0Cslw1aZpohcdE_21numeric_comprehensive
FN:1391,_RNCINvNtCs8M7rtMEmd2k_14copybook_codec7lib_api20decode_file_to_jsonlINtNtNtCs4eoO4cHkFdT_3std2io6cursor6CursorRAhj5_EQINtNtCs31agqjrRntl_5alloc3vec3VechEEs3_0Cslw1aZpohcdE_21numeric_comprehensive
FN:1300,_RNCINvNtCs8M7rtMEmd2k_14copybook_codec7lib_api20decode_file_to_jsonlINtNtNtCs4eoO4cHkFdT_3std2io6cursor6CursorRAhj5_EQINtNtCs31agqjrRntl_5alloc3vec3VechEEs_0Cslw1aZpohcdE_21numeric_comprehensive
FN:1283,_RNCINvNtCs8M7rtMEmd2k_14copybook_codec7lib_api20decode_file_to_jsonlINtNtNtCs4eoO4cHkFdT_3std2io6cursor6CursorRAhj8_EQINtNtCs31agqjrRntl_5alloc3vec3VechEE0Cslw1aZpohcdE_21numeric_comprehensive
FN:1303,_RNCINvNtCs8M7rtMEmd2k_14copybook_codec7lib_api20decode_file_to_jsonlINtNtNtCs4eoO4cHkFdT_3std2io6cursor6CursorRAhj8_EQINtNtCs31agqjrRntl_5alloc3vec3VechEEs0_0Cslw1aZpohcdE_21numeric_comprehensive
FN:1367,_RNCINvNtCs8M7rtMEmd2k_14copybook_codec7lib_api20decode_file_to_jsonlINtNtNtCs4eoO4cHkFdT_3std2io6cursor6CursorRAhj8_EQINtNtCs31agqjrRntl_5alloc3vec3VechEEs1_0Cslw1aZpohcdE_21numeric_comprehensive
FN:1370,_RNCINvNtCs8M7rtMEmd2k_14copybook_codec7lib_api20decode_file_to_jsonlINtNtNtCs4eoO4cHkFdT_3std2io6cursor6CursorRAhj8_EQINtNtCs31agqjrRntl_5alloc3vec3VechEEs2_0Cslw1aZpohcdE_21numeric_comprehensive
FN:1391,_RNCINvNtCs8M7rtMEmd2k_14copybook_codec7lib_api20decode_file_to_jsonlINtNtNtCs4eoO4cHkFdT_3std2io6cursor6CursorRAhj8_EQINtNtCs31agqjrRntl_5alloc3vec3VechEEs3_0Cslw1aZpohcdE_21numeric_comprehensive
FN:1300,_RNCINvNtCs8M7rtMEmd2k_14copybook_codec7lib_api20decode_file_to_jsonlINtNtNtCs4eoO4cHkFdT_3std2io6cursor6CursorRAhj8_EQINtNtCs31agqjrRntl_5alloc3vec3VechEEs_0Cslw1aZpohcdE_21numeric_comprehensive
FN:1283,_RNCINvNtCs8M7rtMEmd2k_14copybook_codec7lib_api20decode_file_to_jsonlINtNtNtCs4eoO4cHkFdT_3std2io6cursor6CursorRAhjb_EQINtNtCs31agqjrRntl_5alloc3vec3VechEE0Cslw1aZpohcdE_21numeric_comprehensive
FN:1303,_RNCINvNtCs8M7rtMEmd2k_14copybook_codec7lib_api20decode_file_to_jsonlINtNtNtCs4eoO4cHkFdT_3std2io6cursor6CursorRAhjb_EQINtNtCs31agqjrRntl_5alloc3vec3VechEEs0_0Cslw1aZpohcdE_21numeric_comprehensive
FN:1367,_RNCINvNtCs8M7rtMEmd2k_14copybook_codec7lib_api20decode_file_to_jsonlINtNtNtCs4eoO4cHkFdT_3std2io6cursor6CursorRAhjb_EQINtNtCs31agqjrRntl_5alloc3vec3VechEEs1_0Cslw1aZpohcdE_21numeric_comprehensive
FN:1370,_RNCINvNtCs8M7rtMEmd2k_14copybook_codec7lib_api20decode_file_to_jsonlINtNtNtCs4eoO4cHkFdT_3std2io6cursor6CursorRAhjb_EQINtNtCs31agqjrRntl_5alloc3vec3VechEEs2_0Cslw1aZpohcdE_21numeric_comprehensive
FN:1391,_RNCINvNtCs8M7rtMEmd2k_14copybook_codec7lib_api20decode_file_to_jsonlINtNtNtCs4eoO4cHkFdT_3std2io6cursor6CursorRAhjb_EQINtNtCs31agqjrRntl_5alloc3vec3VechEEs3_0Cslw1aZpohcdE_21numeric_comprehensive
FN:1300,_RNCINvNtCs8M7rtMEmd2k_14copybook_codec7lib_api20decode_file_to_jsonlINtNtNtCs4eoO4cHkFdT_3std2io6cursor6CursorRAhjb_EQINtNtCs31agqjrRntl_5alloc3vec3VechEEs_0Cslw1aZpohcdE_21numeric_comprehensive
FN:1273,_RINvNtCs8M7rtMEmd2k_14copybook_codec7lib_api20decode_file_to_jsonlINtNtNtCs4eoO4cHkFdT_3std2io6cursor6CursorRAhj17_EQINtNtCs31agqjrRntl_5alloc3vec3VechEECs39nnvYeCEEq_17odo_comprehensive
FN:1273,_RINvNtCs8M7rtMEmd2k_14copybook_codec7lib_api20decode_file_to_jsonlINtNtNtCs4eoO4cHkFdT_3std2io6cursor6CursorRAhj21_EQINtNtCs31agqjrRntl_5alloc3vec3VechEECs39nnvYeCEEq_17odo_comprehensive
FN:1273,_RINvNtCs8M7rtMEmd2k_14copybook_codec7lib_api20decode_file_to_jsonlINtNtNtCs4eoO4cHkFdT_3std2io6cursor6CursorRAhj35_EQINtNtCs31agqjrRntl_5alloc3vec3VechEECs39nnvYeCEEq_17odo_comprehensive
FN:1273,_RINvNtCs8M7rtMEmd2k_14copybook_codec7lib_api20decode_file_to_jsonlINtNtNtCs4eoO4cHkFdT_3std2io6cursor6CursorRAhj3_EQINtNtCs31agqjrRntl_5alloc3vec3VechEECs39nnvYeCEEq_17odo_comprehensive
FN:1273,_RINvNtCs8M7rtMEmd2k_14copybook_codec7lib_api20decode_file_to_jsonlINtNtNtCs4eoO4cHkFdT_3std2io6cursor6CursorRINtNtCs31agqjrRntl_5alloc3vec3VechEEQB1J_ECs39nnvYeCEEq_17odo_comprehensive
FN:1273,_RINvNtCs8M7rtMEmd2k_14copybook_codec7lib_api20decode_file_to_jsonlINtNtNtCs4eoO4cHkFdT_3std2io6cursor6CursorRShEQINtNtCs31agqjrRntl_5alloc3vec3VechEECs39nnvYeCEEq_17odo_comprehensive
FN:1410,_RINvNtCs8M7rtMEmd2k_14copybook_codec7lib_api20encode_jsonl_to_fileINtNtNtCs4eoO4cHkFdT_3std2io6cursor6CursorRShEQINtNtCs31agqjrRntl_5alloc3vec3VechEECs39nnvYeCEEq_17odo_comprehensive
FN:1283,_RNCINvNtCs8M7rtMEmd2k_14copybook_codec7lib_api20decode_file_to_jsonlINtNtNtCs4eoO4cHkFdT_3std2io6cursor6CursorRAhj17_EQINtNtCs31agqjrRntl_5alloc3vec3VechEE0Cs39nnvYeCEEq_17odo_comprehensive
FN:1303,_RNCINvNtCs8M7rtMEmd2k_14copybook_codec7lib_api20decode_file_to_jsonlINtNtNtCs4eoO4cHkFdT_3std2io6cursor6CursorRAhj17_EQINtNtCs31agqjrRntl_5alloc3vec3VechEEs0_0Cs39nnvYeCEEq_17odo_comprehensive
FN:1367,_RNCINvNtCs8M7rtMEmd2k_14copybook_codec7lib_api20decode_file_to_jsonlINtNtNtCs4eoO4cHkFdT_3std2io6cursor6CursorRAhj17_EQINtNtCs31agqjrRntl_5alloc3vec3VechEEs1_0Cs39nnvYeCEEq_17odo_comprehensive
FN:1370,_RNCINvNtCs8M7rtMEmd2k_14copybook_codec7lib_api20decode_file_to_jsonlINtNtNtCs4eoO4cHkFdT_3std2io6cursor6CursorRAhj17_EQINtNtCs31agqjrRntl_5alloc3vec3VechEEs2_0Cs39nnvYeCEEq_17odo_comprehensive
FN:1391,_RNCINvNtCs8M7rtMEmd2k_14copybook_codec7lib_api20decode_file_to_jsonlINtNtNtCs4eoO4cHkFdT_3std2io6cursor6CursorRAhj17_EQINtNtCs31agqjrRntl_5alloc3vec3VechEEs3_0Cs39nnvYeCEEq_17odo_comprehensive
FN:1300,_RNCINvNtCs8M7rtMEmd2k_14copybook_codec7lib_api20decode_file_to_jsonlINtNtNtCs4eoO4cHkFdT_3std2io6cursor6CursorRAhj17_EQINtNtCs31agqjrRntl_5alloc3vec3VechEEs_0Cs39nnvYeCEEq_17odo_comprehensive
FN:1283,_RNCINvNtCs8M7rtMEmd2k_14copybook_codec7lib_api20decode_file_to_jsonlINtNtNtCs4eoO4cHkFdT_3std2io6cursor6CursorRAhj21_EQINtNtCs31agqjrRntl_5alloc3vec3VechEE0Cs39nnvYeCEEq_17odo_comprehensive
FN:1303,_RNCINvNtCs8M7rtMEmd2k_14copybook_codec7lib_api20decode_file_to_jsonlINtNtNtCs4eoO4cHkFdT_3std2io6cursor6CursorRAhj21_EQINtNtCs31agqjrRntl_5alloc3vec3VechEEs0_0Cs39nnvYeCEEq_17odo_comprehensive
FN:1367,_RNCINvNtCs8M7rtMEmd2k_14copybook_codec7lib_api20decode_file_to_jsonlINtNtNtCs4eoO4cHkFdT_3std2io6cursor6CursorRAhj21_EQINtNtCs31agqjrRntl_5alloc3vec3VechEEs1_0Cs39nnvYeCEEq_17odo_comprehensive
FN:1370,_RNCINvNtCs8M7rtMEmd2k_14copybook_codec7lib_api20decode_file_to_jsonlINtNtNtCs4eoO4cHkFdT_3std2io6cursor6CursorRAhj21_EQINtNtCs31agqjrRntl_5alloc3vec3VechEEs2_0Cs39nnvYeCEEq_17odo_comprehensive
FN:1391,_RNCINvNtCs8M7rtMEmd2k_14copybook_codec7lib_api20decode_file_to_jsonlINtNtNtCs4eoO4cHkFdT_3std2io6cursor6CursorRAhj21_EQINtNtCs31agqjrRntl_5alloc3vec3VechEEs3_0Cs39nnvYeCEEq_17odo_comprehensive
FN:1300,_RNCINvNtCs8M7rtMEmd2k_14copybook_codec7lib_api20decode_file_to_jsonlINtNtNtCs4eoO4cHkFdT_3std2io6cursor6CursorRAhj21_EQINtNtCs31agqjrRntl_5alloc3vec3VechEEs_0Cs39nnvYeCEEq_17odo_comprehensive
FN:1283,_RNCINvNtCs8M7rtMEmd2k_14copybook_codec7lib_api20decode_file_to_jsonlINtNtNtCs4eoO4cHkFdT_3std2io6cursor6CursorRAhj35_EQINtNtCs31agqjrRntl_5alloc3vec3VechEE0Cs39nnvYeCEEq_17odo_comprehensive
FN:1303,_RNCINvNtCs8M7rtMEmd2k_14copybook_codec7lib_api20decode_file_to_jsonlINtNtNtCs4eoO4cHkFdT_3std2io6cursor6CursorRAhj35_EQINtNtCs31agqjrRntl_5alloc3vec3VechEEs0_0Cs39nnvYeCEEq_17odo_comprehensive
FN:1367,_RNCINvNtCs8M7rtMEmd2k_14copybook_codec7lib_api20decode_file_to_jsonlINtNtNtCs4eoO4cHkFdT_3std2io6cursor6CursorRAhj35_EQINtNtCs31agqjrRntl_5alloc3vec3VechEEs1_0Cs39nnvYeCEEq_17odo_comprehensive
FN:1370,_RNCINvNtCs8M7rtMEmd2k_14copybook_codec7lib_api20decode_file_to_jsonlINtNtNtCs4eoO4cHkFdT_3std2io6cursor6CursorRAhj35_EQINtNtCs31agqjrRntl_5alloc3vec3VechEEs2_0Cs39nnvYeCEEq_17odo_comprehensive
FN:1391,_RNCINvNtCs8M7rtMEmd2k_14copybook_codec7lib_api20decode_file_to_jsonlINtNtNtCs4eoO4cHkFdT_3std2io6cursor6CursorRAhj35_EQINtNtCs31agqjrRntl_5alloc3vec3VechEEs3_0Cs39nnvYeCEEq_17odo_comprehensive
FN:1300,_RNCINvNtCs8M7rtMEmd2k_14copybook_codec7lib_api20decode_file_to_jsonlINtNtNtCs4eoO4cHkFdT_3std2io6cursor6CursorRAhj35_EQINtNtCs31agqjrRntl_5alloc3vec3VechEEs_0Cs39nnvYeCEEq_17odo_comprehensive
FN:1283,_RNCINvNtCs8M7rtMEmd2k_14copybook_codec7lib_api20decode_file_to_jsonlINtNtNtCs4eoO4cHkFdT_3std2io6cursor6CursorRAhj3_EQINtNtCs31agqjrRntl_5alloc3vec3VechEE0Cs39nnvYeCEEq_17odo_comprehensive
FN:1303,_RNCINvNtCs8M7rtMEmd2k_14copybook_codec7lib_api20decode_file_to_jsonlINtNtNtCs4eoO4cHkFdT_3std2io6cursor6CursorRAhj3_EQINtNtCs31agqjrRntl_5alloc3vec3VechEEs0_0Cs39nnvYeCEEq_17odo_comprehensive
FN:1367,_RNCINvNtCs8M7rtMEmd2k_14copybook_codec7lib_api20decode_file_to_jsonlINtNtNtCs4eoO4cHkFdT_3std2io6cursor6CursorRAhj3_EQINtNtCs31agqjrRntl_5alloc3vec3VechEEs1_0Cs39nnvYeCEEq_17odo_comprehensive
FN:1370,_RNCINvNtCs8M7rtMEmd2k_14copybook_codec7lib_api20decode_file_to_jsonlINtNtNtCs4eoO4cHkFdT_3std2io6cursor6CursorRAhj3_EQINtNtCs31agqjrRntl_5alloc3vec3VechEEs2_0Cs39nnvYeCEEq_17odo_comprehensive
FN:1391,_RNCINvNtCs8M7rtMEmd2k_14copybook_codec7lib_api20decode_file_to_jsonlINtNtNtCs4eoO4cHkFdT_3std2io6cursor6CursorRAhj3_EQINtNtCs31agqjrRntl_5alloc3vec3VechEEs3_0Cs39nnvYeCEEq_17odo_comprehensive
FN:1300,_RNCINvNtCs8M7rtMEmd2k_14copybook_codec7lib_api20decode_file_to_jsonlINtNtNtCs4eoO4cHkFdT_3std2io6cursor6CursorRAhj3_EQINtNtCs31agqjrRntl_5alloc3vec3VechEEs_0Cs39nnvYeCEEq_17odo_comprehensive
FN:1283,_RNCINvNtCs8M7rtMEmd2k_14copybook_codec7lib_api20decode_file_to_jsonlINtNtNtCs4eoO4cHkFdT_3std2io6cursor6CursorRINtNtCs31agqjrRntl_5alloc3vec3VechEEQB1L_E0Cs39nnvYeCEEq_17odo_comprehensive
FN:1303,_RNCINvNtCs8M7rtMEmd2k_14copybook_codec7lib_api20decode_file_to_jsonlINtNtNtCs4eoO4cHkFdT_3std2io6cursor6CursorRINtNtCs31agqjrRntl_5alloc3vec3VechEEQB1L_Es0_0Cs39nnvYeCEEq_17odo_comprehensive
FN:1367,_RNCINvNtCs8M7rtMEmd2k_14copybook_codec7lib_api20decode_file_to_jsonlINtNtNtCs4eoO4cHkFdT_3std2io6cursor6CursorRINtNtCs31agqjrRntl_5alloc3vec3VechEEQB1L_Es1_0Cs39nnvYeCEEq_17odo_comprehensive
FN:1370,_RNCINvNtCs8M7rtMEmd2k_14copybook_codec7lib_api20decode_file_to_jsonlINtNtNtCs4eoO4cHkFdT_3std2io6cursor6CursorRINtNtCs31agqjrRntl_5alloc3vec3VechEEQB1L_Es2_0Cs39nnvYeCEEq_17odo_comprehensive
FN:1391,_RNCINvNtCs8M7rtMEmd2k_14copybook_codec7lib_api20decode_file_to_jsonlINtNtNtCs4eoO4cHkFdT_3std2io6cursor6CursorRINtNtCs31agqjrRntl_5alloc3vec3VechEEQB1L_Es3_0Cs39nnvYeCEEq_17odo_comprehensive
FN:1300,_RNCINvNtCs8M7rtMEmd2k_14copybook_codec7lib_api20decode_file_to_jsonlINtNtNtCs4eoO4cHkFdT_3std2io6cursor6CursorRINtNtCs31agqjrRntl_5alloc3vec3VechEEQB1L_Es_0Cs39nnvYeCEEq_17odo_comprehensive
FN:1283,_RNCINvNtCs8M7rtMEmd2k_14copybook_codec7lib_api20decode_file_to_jsonlINtNtNtCs4eoO4cHkFdT_3std2io6cursor6CursorRShEQINtNtCs31agqjrRntl_5alloc3vec3VechEE0Cs39nnvYeCEEq_17odo_comprehensive
FN:1303,_RNCINvNtCs8M7rtMEmd2k_14copybook_codec7lib_api20decode_file_to_jsonlINtNtNtCs4eoO4cHkFdT_3std2io6cursor6CursorRShEQINtNtCs31agqjrRntl_5alloc3vec3VechEEs0_0Cs39nnvYeCEEq_17odo_comprehensive
FN:1367,_RNCINvNtCs8M7rtMEmd2k_14copybook_codec7lib_api20decode_file_to_jsonlINtNtNtCs4eoO4cHkFdT_3std2io6cursor6CursorRShEQINtNtCs31agqjrRntl_5alloc3vec3VechEEs1_0Cs39nnvYeCEEq_17odo_comprehensive
FN:1370,_RNCINvNtCs8M7rtMEmd2k_14copybook_codec7lib_api20decode_file_to_jsonlINtNtNtCs4eoO4cHkFdT_3std2io6cursor6CursorRShEQINtNtCs31agqjrRntl_5alloc3vec3VechEEs2_0Cs39nnvYeCEEq_17odo_comprehensive
FN:1391,_RNCINvNtCs8M7rtMEmd2k_14copybook_codec7lib_api20decode_file_to_jsonlINtNtNtCs4eoO4cHkFdT_3std2io6cursor6CursorRShEQINtNtCs31agqjrRntl_5alloc3vec3VechEEs3_0Cs39nnvYeCEEq_17odo_comprehensive
FN:1300,_RNCINvNtCs8M7rtMEmd2k_14copybook_codec7lib_api20decode_file_to_jsonlINtNtNtCs4eoO4cHkFdT_3std2io6cursor6CursorRShEQINtNtCs31agqjrRntl_5alloc3vec3VechEEs_0Cs39nnvYeCEEq_17odo_comprehensive
FN:1424,_RNCINvNtCs8M7rtMEmd2k_14copybook_codec7lib_api20encode_jsonl_to_fileINtNtNtCs4eoO4cHkFdT_3std2io6cursor6CursorRShEQINtNtCs31agqjrRntl_5alloc3vec3VechEE0Cs39nnvYeCEEq_17odo_comprehensive
FN:1441,_RNCINvNtCs8M7rtMEmd2k_14copybook_codec7lib_api20encode_jsonl_to_fileINtNtNtCs4eoO4cHkFdT_3std2io6cursor6CursorRShEQINtNtCs31agqjrRntl_5alloc3vec3VechEEs0_0Cs39nnvYeCEEq_17odo_comprehensive
FN:1434,_RNCINvNtCs8M7rtMEmd2k_14copybook_codec7lib_api20encode_jsonl_to_fileINtNtNtCs4eoO4cHkFdT_3std2io6cursor6CursorRShEQINtNtCs31agqjrRntl_5alloc3vec3VechEEs_0Cs39nnvYeCEEq_17odo_comprehensive
FN:1273,_RINvNtCs8M7rtMEmd2k_14copybook_codec7lib_api20decode_file_to_jsonlINtNtNtCs4eoO4cHkFdT_3std2io6cursor6CursorRINtNtCs31agqjrRntl_5alloc3vec3VechEEQB1J_ECsazAqiJI9UET_32performance_hardening_validation
FN:1283,_RNCINvNtCs8M7rtMEmd2k_14copybook_codec7lib_api20decode_file_to_jsonlINtNtNtCs4eoO4cHkFdT_3std2io6cursor6CursorRINtNtCs31agqjrRntl_5alloc3vec3VechEEQB1L_E0CsazAqiJI9UET_32performance_hardening_validation
FN:1303,_RNCINvNtCs8M7rtMEmd2k_14copybook_codec7lib_api20decode_file_to_jsonlINtNtNtCs4eoO4cHkFdT_3std2io6cursor6CursorRINtNtCs31agqjrRntl_5alloc3vec3VechEEQB1L_Es0_0CsazAqiJI9UET_32performance_hardening_validation
FN:1367,_RNCINvNtCs8M7rtMEmd2k_14copybook_codec7lib_api20decode_file_to_jsonlINtNtNtCs4eoO4cHkFdT_3std2io6cursor6CursorRINtNtCs31agqjrRntl_5alloc3vec3VechEEQB1L_Es1_0CsazAqiJI9UET_32performance_hardening_validation
FN:1370,_RNCINvNtCs8M7rtMEmd2k_14copybook_codec7lib_api20decode_file_to_jsonlINtNtNtCs4eoO4cHkFdT_3std2io6cursor6CursorRINtNtCs31agqjrRntl_5alloc3vec3VechEEQB1L_Es2_0CsazAqiJI9UET_32performance_hardening_validation
FN:1391,_RNCINvNtCs8M7rtMEmd2k_14copybook_codec7lib_api20decode_file_to_jsonlINtNtNtCs4eoO4cHkFdT_3std2io6cursor6CursorRINtNtCs31agqjrRntl_5alloc3vec3VechEEQB1L_Es3_0CsazAqiJI9UET_32performance_hardening_validation
FN:1300,_RNCINvNtCs8M7rtMEmd2k_14copybook_codec7lib_api20decode_file_to_jsonlINtNtNtCs4eoO4cHkFdT_3std2io6cursor6CursorRINtNtCs31agqjrRntl_5alloc3vec3VechEEQB1L_Es_0CsazAqiJI9UET_32performance_hardening_validation
FN:1273,_RINvNtCs8M7rtMEmd2k_14copybook_codec7lib_api20decode_file_to_jsonlINtNtNtCs4eoO4cHkFdT_3std2io6cursor6CursorRAhj4_EQINtNtCs31agqjrRntl_5alloc3vec3VechEECshQ4IvnJpZrL_17rdw_comprehensive
FN:1273,_RINvNtCs8M7rtMEmd2k_14copybook_codec7lib_api20decode_file_to_jsonlINtNtNtCs4eoO4cHkFdT_3std2io6cursor6CursorRAhje_EQINtNtCs31agqjrRntl_5alloc3vec3VechEECshQ4IvnJpZrL_17rdw_comprehensive
FN:1273,_RINvNtCs8M7rtMEmd2k_14copybook_codec7lib_api20decode_file_to_jsonlINtNtNtCs4eoO4cHkFdT_3std2io6cursor6CursorRINtNtCs31agqjrRntl_5alloc3vec3VechEEQB1J_ECshQ4IvnJpZrL_17rdw_comprehensive
FN:1410,_RINvNtCs8M7rtMEmd2k_14copybook_codec7lib_api20encode_jsonl_to_fileINtNtNtCs4eoO4cHkFdT_3std2io6cursor6CursorRShEQINtNtCs31agqjrRntl_5alloc3vec3VechEECshQ4IvnJpZrL_17rdw_comprehensive
FN:1283,_RNCINvNtCs8M7rtMEmd2k_14copybook_codec7lib_api20decode_file_to_jsonlINtNtNtCs4eoO4cHkFdT_3std2io6cursor6CursorRAhj4_EQINtNtCs31agqjrRntl_5alloc3vec3VechEE0CshQ4IvnJpZrL_17rdw_comprehensive
FN:1303,_RNCINvNtCs8M7rtMEmd2k_14copybook_codec7lib_api20decode_file_to_jsonlINtNtNtCs4eoO4cHkFdT_3std2io6cursor6CursorRAhj4_EQINtNtCs31agqjrRntl_5alloc3vec3VechEEs0_0CshQ4IvnJpZrL_17rdw_comprehensive
FN:1367,_RNCINvNtCs8M7rtMEmd2k_14copybook_codec7lib_api20decode_file_to_jsonlINtNtNtCs4eoO4cHkFdT_3std2io6cursor6CursorRAhj4_EQINtNtCs31agqjrRntl_5alloc3vec3VechEEs1_0CshQ4IvnJpZrL_17rdw_comprehensive
FN:1370,_RNCINvNtCs8M7rtMEmd2k_14copybook_codec7lib_api20decode_file_to_jsonlINtNtNtCs4eoO4cHkFdT_3std2io6cursor6CursorRAhj4_EQINtNtCs31agqjrRntl_5alloc3vec3VechEEs2_0CshQ4IvnJpZrL_17rdw_comprehensive
FN:1391,_RNCINvNtCs8M7rtMEmd2k_14copybook_codec7lib_api20decode_file_to_jsonlINtNtNtCs4eoO4cHkFdT_3std2io6cursor6CursorRAhj4_EQINtNtCs31agqjrRntl_5alloc3vec3VechEEs3_0CshQ4IvnJpZrL_17rdw_comprehensive
FN:1300,_RNCINvNtCs8M7rtMEmd2k_14copybook_codec7lib_api20decode_file_to_jsonlINtNtNtCs4eoO4cHkFdT_3std2io6cursor6CursorRAhj4_EQINtNtCs31agqjrRntl_5alloc3vec3VechEEs_0CshQ4IvnJpZrL_17rdw_comprehensive
FN:1283,_RNCINvNtCs8M7rtMEmd2k_14copybook_codec7lib_api20decode_file_to_jsonlINtNtNtCs4eoO4cHkFdT_3std2io6cursor6CursorRAhje_EQINtNtCs31agqjrRntl_5alloc3vec3VechEE0CshQ4IvnJpZrL_17rdw_comprehensive
FN:1303,_RNCINvNtCs8M7rtMEmd2k_14copybook_codec7lib_api20decode_file_to_jsonlINtNtNtCs4eoO4cHkFdT_3std2io6cursor6CursorRAhje_EQINtNtCs31agqjrRntl_5alloc3vec3VechEEs0_0CshQ4IvnJpZrL_17rdw_comprehensive
FN:1367,_RNCINvNtCs8M7rtMEmd2k_14copybook_codec7lib_api20decode_file_to_jsonlINtNtNtCs4eoO4cHkFdT_3std2io6cursor6CursorRAhje_EQINtNtCs31agqjrRntl_5alloc3vec3VechEEs1_0CshQ4IvnJpZrL_17rdw_comprehensive
FN:1370,_RNCINvNtCs8M7rtMEmd2k_14copybook_codec7lib_api20decode_file_to_jsonlINtNtNtCs4eoO4cHkFdT_3std2io6cursor6CursorRAhje_EQINtNtCs31agqjrRntl_5alloc3vec3VechEEs2_0CshQ4IvnJpZrL_17rdw_comprehensive
FN:1391,_RNCINvNtCs8M7rtMEmd2k_14copybook_codec7lib_api20decode_file_to_jsonlINtNtNtCs4eoO4cHkFdT_3std2io6cursor6CursorRAhje_EQINtNtCs31agqjrRntl_5alloc3vec3VechEEs3_0CshQ4IvnJpZrL_17rdw_comprehensive
FN:1300,_RNCINvNtCs8M7rtMEmd2k_14copybook_codec7lib_api20decode_file_to_jsonlINtNtNtCs4eoO4cHkFdT_3std2io6cursor6CursorRAhje_EQINtNtCs31agqjrRntl_5alloc3vec3VechEEs_0CshQ4IvnJpZrL_17rdw_comprehensive
FN:1283,_RNCINvNtCs8M7rtMEmd2k_14copybook_codec7lib_api20decode_file_to_jsonlINtNtNtCs4eoO4cHkFdT_3std2io6cursor6CursorRINtNtCs31agqjrRntl_5alloc3vec3VechEEQB1L_E0CshQ4IvnJpZrL_17rdw_comprehensive
FN:1303,_RNCINvNtCs8M7rtMEmd2k_14copybook_codec7lib_api20decode_file_to_jsonlINtNtNtCs4eoO4cHkFdT_3std2io6cursor6CursorRINtNtCs31agqjrRntl_5alloc3vec3VechEEQB1L_Es0_0CshQ4IvnJpZrL_17rdw_comprehensive
FN:1367,_RNCINvNtCs8M7rtMEmd2k_14copybook_codec7lib_api20decode_file_to_jsonlINtNtNtCs4eoO4cHkFdT_3std2io6cursor6CursorRINtNtCs31agqjrRntl_5alloc3vec3VechEEQB1L_Es1_0CshQ4IvnJpZrL_17rdw_comprehensive
FN:1370,_RNCINvNtCs8M7rtMEmd2k_14copybook_codec7lib_api20decode_file_to_jsonlINtNtNtCs4eoO4cHkFdT_3std2io6cursor6CursorRINtNtCs31agqjrRntl_5alloc3vec3VechEEQB1L_Es2_0CshQ4IvnJpZrL_17rdw_comprehensive
FN:1391,_RNCINvNtCs8M7rtMEmd2k_14copybook_codec7lib_api20decode_file_to_jsonlINtNtNtCs4eoO4cHkFdT_3std2io6cursor6CursorRINtNtCs31agqjrRntl_5alloc3vec3VechEEQB1L_Es3_0CshQ4IvnJpZrL_17rdw_comprehensive
FN:1300,_RNCINvNtCs8M7rtMEmd2k_14copybook_codec7lib_api20decode_file_to_jsonlINtNtNtCs4eoO4cHkFdT_3std2io6cursor6CursorRINtNtCs31agqjrRntl_5alloc3vec3VechEEQB1L_Es_0CshQ4IvnJpZrL_17rdw_comprehensive
FN:1424,_RNCINvNtCs8M7rtMEmd2k_14copybook_codec7lib_api20encode_jsonl_to_fileINtNtNtCs4eoO4cHkFdT_3std2io6cursor6CursorRShEQINtNtCs31agqjrRntl_5alloc3vec3VechEE0CshQ4IvnJpZrL_17rdw_comprehensive
FN:1441,_RNCINvNtCs8M7rtMEmd2k_14copybook_codec7lib_api20encode_jsonl_to_fileINtNtNtCs4eoO4cHkFdT_3std2io6cursor6CursorRShEQINtNtCs31agqjrRntl_5alloc3vec3VechEEs0_0CshQ4IvnJpZrL_17rdw_comprehensive
FN:1434,_RNCINvNtCs8M7rtMEmd2k_14copybook_codec7lib_api20encode_jsonl_to_fileINtNtNtCs4eoO4cHkFdT_3std2io6cursor6CursorRShEQINtNtCs31agqjrRntl_5alloc3vec3VechEEs_0CshQ4IvnJpZrL_17rdw_comprehensive
FN:1273,_RINvNtCs8M7rtMEmd2k_14copybook_codec7lib_api20decode_file_to_jsonlINtNtNtCs4eoO4cHkFdT_3std2io6cursor6CursorRAhj23_EQINtNtCs31agqjrRntl_5alloc3vec3VechEECs1qMUk3KA0Zp_23redefines_comprehensive
FN:1410,_RINvNtCs8M7rtMEmd2k_14copybook_codec7lib_api20encode_jsonl_to_fileINtNtNtCs4eoO4cHkFdT_3std2io6cursor6CursorRINtNtCs31agqjrRntl_5alloc3vec3VechEEQB1J_ECs1qMUk3KA0Zp_23redefines_comprehensive
FN:1410,_RINvNtCs8M7rtMEmd2k_14copybook_codec7lib_api20encode_jsonl_to_fileINtNtNtCs4eoO4cHkFdT_3std2io6cursor6CursorRShEQINtNtCs31agqjrRntl_5alloc3vec3VechEECs1qMUk3KA0Zp_23redefines_comprehensive
FN:1283,_RNCINvNtCs8M7rtMEmd2k_14copybook_codec7lib_api20decode_file_to_jsonlINtNtNtCs4eoO4cHkFdT_3std2io6cursor6CursorRAhj23_EQINtNtCs31agqjrRntl_5alloc3vec3VechEE0Cs1qMUk3KA0Zp_23redefines_comprehensive
FN:1303,_RNCINvNtCs8M7rtMEmd2k_14copybook_codec7lib_api20decode_file_to_jsonlINtNtNtCs4eoO4cHkFdT_3std2io6cursor6CursorRAhj23_EQINtNtCs31agqjrRntl_5alloc3vec3VechEEs0_0Cs1qMUk3KA0Zp_23redefines_comprehensive
FN:1367,_RNCINvNtCs8M7rtMEmd2k_14copybook_codec7lib_api20decode_file_to_jsonlINtNtNtCs4eoO4cHkFdT_3std2io6cursor6CursorRAhj23_EQINtNtCs31agqjrRntl_5alloc3vec3VechEEs1_0Cs1qMUk3KA0Zp_23redefines_comprehensive
FN:1370,_RNCINvNtCs8M7rtMEmd2k_14copybook_codec7lib_api20decode_file_to_jsonlINtNtNtCs4eoO4cHkFdT_3std2io6cursor6CursorRAhj23_EQINtNtCs31agqjrRntl_5alloc3vec3VechEEs2_0Cs1qMUk3KA0Zp_23redefines_comprehensive
FN:1391,_RNCINvNtCs8M7rtMEmd2k_14copybook_codec7lib_api20decode_file_to_jsonlINtNtNtCs4eoO4cHkFdT_3std2io6cursor6CursorRAhj23_EQINtNtCs31agqjrRntl_5alloc3vec3VechEEs3_0Cs1qMUk3KA0Zp_23redefines_comprehensive
FN:1300,_RNCINvNtCs8M7rtMEmd2k_14copybook_codec7lib_api20decode_file_to_jsonlINtNtNtCs4eoO4cHkFdT_3std2io6cursor6CursorRAhj23_EQINtNtCs31agqjrRntl_5alloc3vec3VechEEs_0Cs1qMUk3KA0Zp_23redefines_comprehensive
FN:1424,_RNCINvNtCs8M7rtMEmd2k_14copybook_codec7lib_api20encode_jsonl_to_fileINtNtNtCs4eoO4cHkFdT_3std2io6cursor6CursorRINtNtCs31agqjrRntl_5alloc3vec3VechEEQB1L_E0Cs1qMUk3KA0Zp_23redefines_comprehensive
FN:1441,_RNCINvNtCs8M7rtMEmd2k_14copybook_codec7lib_api20encode_jsonl_to_fileINtNtNtCs4eoO4cHkFdT_3std2io6cursor6CursorRINtNtCs31agqjrRntl_5alloc3vec3VechEEQB1L_Es0_0Cs1qMUk3KA0Zp_23redefines_comprehensive
FN:1434,_RNCINvNtCs8M7rtMEmd2k_14copybook_codec7lib_api20encode_jsonl_to_fileINtNtNtCs4eoO4cHkFdT_3std2io6cursor6CursorRINtNtCs31agqjrRntl_5alloc3vec3VechEEQB1L_Es_0Cs1qMUk3KA0Zp_23redefines_comprehensive
FN:1424,_RNCINvNtCs8M7rtMEmd2k_14copybook_codec7lib_api20encode_jsonl_to_fileINtNtNtCs4eoO4cHkFdT_3std2io6cursor6CursorRShEQINtNtCs31agqjrRntl_5alloc3vec3VechEE0Cs1qMUk3KA0Zp_23redefines_comprehensive
FN:1441,_RNCINvNtCs8M7rtMEmd2k_14copybook_codec7lib_api20encode_jsonl_to_fileINtNtNtCs4eoO4cHkFdT_3std2io6cursor6CursorRShEQINtNtCs31agqjrRntl_5alloc3vec3VechEEs0_0Cs1qMUk3KA0Zp_23redefines_comprehensive
FN:1434,_RNCINvNtCs8M7rtMEmd2k_14copybook_codec7lib_api20encode_jsonl_to_fileINtNtNtCs4eoO4cHkFdT_3std2io6cursor6CursorRShEQINtNtCs31agqjrRntl_5alloc3vec3VechEEs_0Cs1qMUk3KA0Zp_23redefines_comprehensive
FN:1273,_RINvNtCs8M7rtMEmd2k_14copybook_codec7lib_api20decode_file_to_jsonlINtNtNtCs4eoO4cHkFdT_3std2io6cursor6CursorRINtNtCs31agqjrRntl_5alloc3vec3VechEEQB1J_ECs4AY4OFbcjkZ_32zoned_encoding_performance_tests
FN:1283,_RNCINvNtCs8M7rtMEmd2k_14copybook_codec7lib_api20decode_file_to_jsonlINtNtNtCs4eoO4cHkFdT_3std2io6cursor6CursorRINtNtCs31agqjrRntl_5alloc3vec3VechEEQB1L_E0Cs4AY4OFbcjkZ_32zoned_encoding_performance_tests
FN:1303,_RNCINvNtCs8M7rtMEmd2k_14copybook_codec7lib_api20decode_file_to_jsonlINtNtNtCs4eoO4cHkFdT_3std2io6cursor6CursorRINtNtCs31agqjrRntl_5alloc3vec3VechEEQB1L_Es0_0Cs4AY4OFbcjkZ_32zoned_encoding_performance_tests
FN:1367,_RNCINvNtCs8M7rtMEmd2k_14copybook_codec7lib_api20decode_file_to_jsonlINtNtNtCs4eoO4cHkFdT_3std2io6cursor6CursorRINtNtCs31agqjrRntl_5alloc3vec3VechEEQB1L_Es1_0Cs4AY4OFbcjkZ_32zoned_encoding_performance_tests
FN:1370,_RNCINvNtCs8M7rtMEmd2k_14copybook_codec7lib_api20decode_file_to_jsonlINtNtNtCs4eoO4cHkFdT_3std2io6cursor6CursorRINtNtCs31agqjrRntl_5alloc3vec3VechEEQB1L_Es2_0Cs4AY4OFbcjkZ_32zoned_encoding_performance_tests
FN:1391,_RNCINvNtCs8M7rtMEmd2k_14copybook_codec7lib_api20decode_file_to_jsonlINtNtNtCs4eoO4cHkFdT_3std2io6cursor6CursorRINtNtCs31agqjrRntl_5alloc3vec3VechEEQB1L_Es3_0Cs4AY4OFbcjkZ_32zoned_encoding_performance_tests
FN:1300,_RNCINvNtCs8M7rtMEmd2k_14copybook_codec7lib_api20decode_file_to_jsonlINtNtNtCs4eoO4cHkFdT_3std2io6cursor6CursorRINtNtCs31agqjrRntl_5alloc3vec3VechEEQB1L_Es_0Cs4AY4OFbcjkZ_32zoned_encoding_performance_tests
FNDA:7,_RINvNtCs8M7rtMEmd2k_14copybook_codec7lib_api20decode_file_to_jsonlNtNtCs4eoO4cHkFdT_3std2fs4FileQDNtNtB16_2io5WriteEL_ECsi2GSroy6duf_8copybook
FNDA:3,_RINvNtCs8M7rtMEmd2k_14copybook_codec7lib_api20encode_jsonl_to_fileNtNtCs4eoO4cHkFdT_3std2fs4FileQDNtNtB16_2io5WriteEL_ECsi2GSroy6duf_8copybook
FNDA:7,_RNCINvNtCs8M7rtMEmd2k_14copybook_codec7lib_api20decode_file_to_jsonlNtNtCs4eoO4cHkFdT_3std2fs4FileQDNtNtB18_2io5WriteEL_E0Csi2GSroy6duf_8copybook
FNDA:0,_RNCINvNtCs8M7rtMEmd2k_14copybook_codec7lib_api20decode_file_to_jsonlNtNtCs4eoO4cHkFdT_3std2fs4FileQDNtNtB18_2io5WriteEL_Es0_0Csi2GSroy6duf_8copybook
FNDA:0,_RNCINvNtCs8M7rtMEmd2k_14copybook_codec7lib_api20decode_file_to_jsonlNtNtCs4eoO4cHkFdT_3std2fs4FileQDNtNtB18_2io5WriteEL_Es1_0Csi2GSroy6duf_8copybook
FNDA:0,_RNCINvNtCs8M7rtMEmd2k_14copybook_codec7lib_api20decode_file_to_jsonlNtNtCs4eoO4cHkFdT_3std2fs4FileQDNtNtB18_2io5WriteEL_Es2_0Csi2GSroy6duf_8copybook
FNDA:7,_RNCINvNtCs8M7rtMEmd2k_14copybook_codec7lib_api20decode_file_to_jsonlNtNtCs4eoO4cHkFdT_3std2fs4FileQDNtNtB18_2io5WriteEL_Es3_0Csi2GSroy6duf_8copybook
FNDA:0,_RNCINvNtCs8M7rtMEmd2k_14copybook_codec7lib_api20decode_file_to_jsonlNtNtCs4eoO4cHkFdT_3std2fs4FileQDNtNtB18_2io5WriteEL_Es_0Csi2GSroy6duf_8copybook
FNDA:0,_RNCINvNtCs8M7rtMEmd2k_14copybook_codec7lib_api20encode_jsonl_to_fileNtNtCs4eoO4cHkFdT_3std2fs4FileQDNtNtB18_2io5WriteEL_E0Csi2GSroy6duf_8copybook
FNDA:0,_RNCINvNtCs8M7rtMEmd2k_14copybook_codec7lib_api20encode_jsonl_to_fileNtNtCs4eoO4cHkFdT_3std2fs4FileQDNtNtB18_2io5WriteEL_Es0_0Csi2GSroy6duf_8copybook
FNDA:0,_RNCINvNtCs8M7rtMEmd2k_14copybook_codec7lib_api20encode_jsonl_to_fileNtNtCs4eoO4cHkFdT_3std2fs4FileQDNtNtB18_2io5WriteEL_Es_0Csi2GSroy6duf_8copybook
FNDA:3,_RNvMs0_NtCs8M7rtMEmd2k_14copybook_codec7lib_apiINtB5_14RecordIteratorINtNtNtNtCs4eoO4cHkFdT_3std2io8buffered9bufreader9BufReaderNtNtB1e_2fs4FileEE3newCsi2GSroy6duf_8copybook
FNDA:8,_RNvXs1_NtCs8M7rtMEmd2k_14copybook_codec7lib_apiINtB5_14RecordIteratorINtNtNtNtCs4eoO4cHkFdT_3std2io8buffered9bufreader9BufReaderNtNtB1e_2fs4FileEENtNtNtNtCshnvtj5zUHGu_4core4iter6traits8iterator8Iterator4nextCsi2GSroy6duf_8copybook
FNDA:0,_RNvMNtCs8M7rtMEmd2k_14copybook_codec7lib_apiNtB2_10RunSummary10error_rate
FNDA:19,_RNvMNtCs8M7rtMEmd2k_14copybook_codec7lib_apiNtB2_10RunSummary10has_errors
FNDA:21,_RNvMNtCs8M7rtMEmd2k_14copybook_codec7lib_apiNtB2_10RunSummary12has_warnings
FNDA:0,_RNvMNtCs8M7rtMEmd2k_14copybook_codec7lib_apiNtB2_10RunSummary12success_rate
FNDA:0,_RNvMNtCs8M7rtMEmd2k_14copybook_codec7lib_apiNtB2_10RunSummary12with_threads
FNDA:0,_RNvMNtCs8M7rtMEmd2k_14copybook_codec7lib_apiNtB2_10RunSummary13is_successful
FNDA:0,_RNvMNtCs8M7rtMEmd2k_14copybook_codec7lib_apiNtB2_10RunSummary13total_records
FNDA:0,_RNvMNtCs8M7rtMEmd2k_14copybook_codec7lib_apiNtB2_10RunSummary18bytes_processed_mb
FNDA:105,_RNvMNtCs8M7rtMEmd2k_14copybook_codec7lib_apiNtB2_10RunSummary20calculate_throughput
FNDA:0,_RNvMNtCs8M7rtMEmd2k_14copybook_codec7lib_apiNtB2_10RunSummary21set_peak_memory_bytes
FNDA:0,_RNvMNtCs8M7rtMEmd2k_14copybook_codec7lib_apiNtB2_10RunSummary22set_schema_fingerprint
FNDA:0,_RNvMNtCs8M7rtMEmd2k_14copybook_codec7lib_apiNtB2_10RunSummary23processing_time_seconds
FNDA:126,_RNvMNtCs8M7rtMEmd2k_14copybook_codec7lib_apiNtB2_10RunSummary3new
FNDA:607627,_RNvNtCs8M7rtMEmd2k_14copybook_codec7lib_api13decode_record
FNDA:2334,_RNvNtCs8M7rtMEmd2k_14copybook_codec7lib_api13encode_record
FNDA:10,_RNvNtCs8M7rtMEmd2k_14copybook_codec7lib_api18find_field_by_path
FNDA:8,_RNvNtCs8M7rtMEmd2k_14copybook_codec7lib_api19process_array_field
FNDA:10,_RNvNtCs8M7rtMEmd2k_14copybook_codec7lib_api19validate_odo_bounds
FNDA:3,_RNvNtCs8M7rtMEmd2k_14copybook_codec7lib_api20adjust_field_offsets
FNDA:2334,_RNvNtCs8M7rtMEmd2k_14copybook_codec7lib_api22encode_fields_to_bytes
FNDA:4139,_RNvNtCs8M7rtMEmd2k_14copybook_codec7lib_api23encode_fields_recursive
FNDA:1210441,_RNvNtCs8M7rtMEmd2k_14copybook_codec7lib_api24process_fields_recursive
FNDA:9,_RNvNtCs8M7rtMEmd2k_14copybook_codec7lib_api25decode_scalar_field_value
FNDA:8,_RNvNtCs8M7rtMEmd2k_14copybook_codec7lib_api25increment_warning_counter
FNDA:15478,_RNvNtCs8M7rtMEmd2k_14copybook_codec7lib_api26decode_record_with_scratch
FNDA:607627,_RNvNtCs8M7rtMEmd2k_14copybook_codec7lib_api27decode_record_with_raw_data
FNDA:10,_RNvNtCs8M7rtMEmd2k_14copybook_codec7lib_api27find_and_read_counter_field
FNDA:112589,_RNvNtCs8M7rtMEmd2k_14copybook_codec7lib_api32format_zoned_decimal_with_digits
FNDA:2,_RNvNtCs8M7rtMEmd2k_14copybook_codec7lib_api32process_array_field_with_scratch
FNDA:15498,_RNvNtCs8M7rtMEmd2k_14copybook_codec7lib_api34decode_record_with_scratch_and_raw
FNDA:27667,_RNvNtCs8M7rtMEmd2k_14copybook_codec7lib_api37process_fields_recursive_with_scratch
FNDA:0,_RNvXs_NtCs8M7rtMEmd2k_14copybook_codec7lib_apiNtB4_10RunSummaryNtNtCshnvtj5zUHGu_4core3fmt7Display3fmt
FNDA:0,_RNCNvNtCs8M7rtMEmd2k_14copybook_codec7lib_api13encode_record0B5_
FNDA:3,_RNCNvNtCs8M7rtMEmd2k_14copybook_codec7lib_api20adjust_field_offsets0B5_
FNDA:4,_RNCNvNtCs8M7rtMEmd2k_14copybook_codec7lib_api22encode_fields_to_bytes0B5_
FNDA:1,_RNCNvNtCs8M7rtMEmd2k_14copybook_codec7lib_api23encode_fields_recursive0B5_
FNDA:8,_RNCNvNtCs8M7rtMEmd2k_14copybook_codec7lib_api25increment_warning_counter0B5_
FNDA:0,_RNCNvNtCs8M7rtMEmd2k_14copybook_codec7lib_api27find_and_read_counter_field0B5_
FNDA:0,_RNCNvNtCs8M7rtMEmd2k_14copybook_codec7lib_api27find_and_read_counter_fields_0B5_
FNDA:1,_RINvNtCs8M7rtMEmd2k_14copybook_codec7lib_api20encode_jsonl_to_fileINtNtNtCs4eoO4cHkFdT_3std2io6cursor6CursorNtNtCs31agqjrRntl_5alloc6string6StringEQINtNtB1M_3vec3VechEECsbBC70Nz1Y6g_31binary_roundtrip_fidelity_tests
FNDA:0,_RNCINvNtCs8M7rtMEmd2k_14copybook_codec7lib_api20encode_jsonl_to_fileINtNtNtCs4eoO4cHkFdT_3std2io6cursor6CursorNtNtCs31agqjrRntl_5alloc6string6StringEQINtNtB1O_3vec3VechEE0CsbBC70Nz1Y6g_31binary_roundtrip_fidelity_tests
FNDA:0,_RNCINvNtCs8M7rtMEmd2k_14copybook_codec7lib_api20encode_jsonl_to_fileINtNtNtCs4eoO4cHkFdT_3std2io6cursor6CursorNtNtCs31agqjrRntl_5alloc6string6StringEQINtNtB1O_3vec3VechEEs0_0CsbBC70Nz1Y6g_31binary_roundtrip_fidelity_tests
FNDA:0,_RNCINvNtCs8M7rtMEmd2k_14copybook_codec7lib_api20encode_jsonl_to_fileINtNtNtCs4eoO4cHkFdT_3std2io6cursor6CursorNtNtCs31agqjrRntl_5alloc6string6StringEQINtNtB1O_3vec3VechEEs_0CsbBC70Nz1Y6g_31binary_roundtrip_fidelity_tests
FNDA:1,_RINvNtCs8M7rtMEmd2k_14copybook_codec7lib_api20decode_file_to_jsonlINtNtNtCs4eoO4cHkFdT_3std2io6cursor6CursorRINtNtCs31agqjrRntl_5alloc3vec3VechEEQB1J_ECslzLlZWW49z1_18canonical_fixtures
FNDA:1,_RINvNtCs8M7rtMEmd2k_14copybook_codec7lib_api20encode_jsonl_to_fileINtNtNtCs4eoO4cHkFdT_3std2io6cursor6CursorRShEQINtNtCs31agqjrRntl_5alloc3vec3VechEECslzLlZWW49z1_18canonical_fixtures
FNDA:1,_RNCINvNtCs8M7rtMEmd2k_14copybook_codec7lib_api20decode_file_to_jsonlINtNtNtCs4eoO4cHkFdT_3std2io6cursor6CursorRINtNtCs31agqjrRntl_5alloc3vec3VechEEQB1L_E0CslzLlZWW49z1_18canonical_fixtures
FNDA:0,_RNCINvNtCs8M7rtMEmd2k_14copybook_codec7lib_api20decode_file_to_jsonlINtNtNtCs4eoO4cHkFdT_3std2io6cursor6CursorRINtNtCs31agqjrRntl_5alloc3vec3VechEEQB1L_Es0_0CslzLlZWW49z1_18canonical_fixtures
FNDA:0,_RNCINvNtCs8M7rtMEmd2k_14copybook_codec7lib_api20decode_file_to_jsonlINtNtNtCs4eoO4cHkFdT_3std2io6cursor6CursorRINtNtCs31agqjrRntl_5alloc3vec3VechEEQB1L_Es1_0CslzLlZWW49z1_18canonical_fixtures
FNDA:0,_RNCINvNtCs8M7rtMEmd2k_14copybook_codec7lib_api20decode_file_to_jsonlINtNtNtCs4eoO4cHkFdT_3std2io6cursor6CursorRINtNtCs31agqjrRntl_5alloc3vec3VechEEQB1L_Es2_0CslzLlZWW49z1_18canonical_fixtures
FNDA:1,_RNCINvNtCs8M7rtMEmd2k_14copybook_codec7lib_api20decode_file_to_jsonlINtNtNtCs4eoO4cHkFdT_3std2io6cursor6CursorRINtNtCs31agqjrRntl_5alloc3vec3VechEEQB1L_Es3_0CslzLlZWW49z1_18canonical_fixtures
FNDA:0,_RNCINvNtCs8M7rtMEmd2k_14copybook_codec7lib_api20decode_file_to_jsonlINtNtNtCs4eoO4cHkFdT_3std2io6cursor6CursorRINtNtCs31agqjrRntl_5alloc3vec3VechEEQB1L_Es_0CslzLlZWW49z1_18canonical_fixtures
FNDA:0,_RNCINvNtCs8M7rtMEmd2k_14copybook_codec7lib_api20encode_jsonl_to_fileINtNtNtCs4eoO4cHkFdT_3std2io6cursor6CursorRShEQINtNtCs31agqjrRntl_5alloc3vec3VechEE0CslzLlZWW49z1_18canonical_fixtures
FNDA:0,_RNCINvNtCs8M7rtMEmd2k_14copybook_codec7lib_api20encode_jsonl_to_fileINtNtNtCs4eoO4cHkFdT_3std2io6cursor6CursorRShEQINtNtCs31agqjrRntl_5alloc3vec3VechEEs0_0CslzLlZWW49z1_18canonical_fixtures
FNDA:0,_RNCINvNtCs8M7rtMEmd2k_14copybook_codec7lib_api20encode_jsonl_to_fileINtNtNtCs4eoO4cHkFdT_3std2io6cursor6CursorRShEQINtNtCs31agqjrRntl_5alloc3vec3VechEEs_0CslzLlZWW49z1_18canonical_fixtures
FNDA:14,_RINvNtCs8M7rtMEmd2k_14copybook_codec7lib_api20decode_file_to_jsonlINtNtNtCs4eoO4cHkFdT_3std2io6cursor6CursorRINtNtCs31agqjrRntl_5alloc3vec3VechEEQB1J_ECs9bNFeEA8lew_34cobol_fixture_zoned_encoding_tests
FNDA:14,_RNCINvNtCs8M7rtMEmd2k_14copybook_codec7lib_api20decode_file_to_jsonlINtNtNtCs4eoO4cHkFdT_3std2io6cursor6CursorRINtNtCs31agqjrRntl_5alloc3vec3VechEEQB1L_E0Cs9bNFeEA8lew_34cobol_fixture_zoned_encoding_tests
FNDA:0,_RNCINvNtCs8M7rtMEmd2k_14copybook_codec7lib_api20decode_file_to_jsonlINtNtNtCs4eoO4cHkFdT_3std2io6cursor6CursorRINtNtCs31agqjrRntl_5alloc3vec3VechEEQB1L_Es0_0Cs9bNFeEA8lew_34cobol_fixture_zoned_encoding_tests
FNDA:0,_RNCINvNtCs8M7rtMEmd2k_14copybook_codec7lib_api20decode_file_to_jsonlINtNtNtCs4eoO4cHkFdT_3std2io6cursor6CursorRINtNtCs31agqjrRntl_5alloc3vec3VechEEQB1L_Es1_0Cs9bNFeEA8lew_34cobol_fixture_zoned_encoding_tests
FNDA:0,_RNCINvNtCs8M7rtMEmd2k_14copybook_codec7lib_api20decode_file_to_jsonlINtNtNtCs4eoO4cHkFdT_3std2io6cursor6CursorRINtNtCs31agqjrRntl_5alloc3vec3VechEEQB1L_Es2_0Cs9bNFeEA8lew_34cobol_fixture_zoned_encoding_tests
FNDA:13,_RNCINvNtCs8M7rtMEmd2k_14copybook_codec7lib_api20decode_file_to_jsonlINtNtNtCs4eoO4cHkFdT_3std2io6cursor6CursorRINtNtCs31agqjrRntl_5alloc3vec3VechEEQB1L_Es3_0Cs9bNFeEA8lew_34cobol_fixture_zoned_encoding_tests
FNDA:0,_RNCINvNtCs8M7rtMEmd2k_14copybook_codec7lib_api20decode_file_to_jsonlINtNtNtCs4eoO4cHkFdT_3std2io6cursor6CursorRINtNtCs31agqjrRntl_5alloc3vec3VechEEQB1L_Es_0Cs9bNFeEA8lew_34cobol_fixture_zoned_encoding_tests
FNDA:2,_RINvNtCs8M7rtMEmd2k_14copybook_codec7lib_api20decode_file_to_jsonlINtNtNtCs4eoO4cHkFdT_3std2io6cursor6CursorINtNtCs31agqjrRntl_5alloc3vec3VechEEQB1I_ECshMCmDISD09f_27comprehensive_numeric_tests
FNDA:4,_RINvNtCs8M7rtMEmd2k_14copybook_codec7lib_api20decode_file_to_jsonlINtNtNtCs4eoO4cHkFdT_3std2io6cursor6CursorRAhj2_EQINtNtCs31agqjrRntl_5alloc3vec3VechEECshMCmDISD09f_27comprehensive_numeric_tests
FNDA:6,_RINvNtCs8M7rtMEmd2k_14copybook_codec7lib_api20decode_file_to_jsonlINtNtNtCs4eoO4cHkFdT_3std2io6cursor6CursorRAhj3_EQINtNtCs31agqjrRntl_5alloc3vec3VechEECshMCmDISD09f_27comprehensive_numeric_tests
FNDA:8,_RINvNtCs8M7rtMEmd2k_14copybook_codec7lib_api20decode_file_to_jsonlINtNtNtCs4eoO4cHkFdT_3std2io6cursor6CursorRAhj5_EQINtNtCs31agqjrRntl_5alloc3vec3VechEECshMCmDISD09f_27comprehensive_numeric_tests
FNDA:1,_RINvNtCs8M7rtMEmd2k_14copybook_codec7lib_api20decode_file_to_jsonlINtNtNtCs4eoO4cHkFdT_3std2io6cursor6CursorRAhj9_EQINtNtCs31agqjrRntl_5alloc3vec3VechEECshMCmDISD09f_27comprehensive_numeric_tests
FNDA:3,_RINvNtCs8M7rtMEmd2k_14copybook_codec7lib_api20decode_file_to_jsonlINtNtNtCs4eoO4cHkFdT_3std2io6cursor6CursorRAhja_EQINtNtCs31agqjrRntl_5alloc3vec3VechEECshMCmDISD09f_27comprehensive_numeric_tests
FNDA:2,_RINvNtCs8M7rtMEmd2k_14copybook_codec7lib_api20decode_file_to_jsonlINtNtNtCs4eoO4cHkFdT_3std2io6cursor6CursorRAhjc_EQINtNtCs31agqjrRntl_5alloc3vec3VechEECshMCmDISD09f_27comprehensive_numeric_tests
FNDA:1,_RINvNtCs8M7rtMEmd2k_14copybook_codec7lib_api20decode_file_to_jsonlINtNtNtCs4eoO4cHkFdT_3std2io6cursor6CursorRAhjf_EQINtNtCs31agqjrRntl_5alloc3vec3VechEECshMCmDISD09f_27comprehensive_numeric_tests
FNDA:2,_RNCINvNtCs8M7rtMEmd2k_14copybook_codec7lib_api20decode_file_to_jsonlINtNtNtCs4eoO4cHkFdT_3std2io6cursor6CursorINtNtCs31agqjrRntl_5alloc3vec3VechEEQB1K_E0CshMCmDISD09f_27comprehensive_numeric_tests
FNDA:0,_RNCINvNtCs8M7rtMEmd2k_14copybook_codec7lib_api20decode_file_to_jsonlINtNtNtCs4eoO4cHkFdT_3std2io6cursor6CursorINtNtCs31agqjrRntl_5alloc3vec3VechEEQB1K_Es0_0CshMCmDISD09f_27comprehensive_numeric_tests
FNDA:0,_RNCINvNtCs8M7rtMEmd2k_14copybook_codec7lib_api20decode_file_to_jsonlINtNtNtCs4eoO4cHkFdT_3std2io6cursor6CursorINtNtCs31agqjrRntl_5alloc3vec3VechEEQB1K_Es1_0CshMCmDISD09f_27comprehensive_numeric_tests
FNDA:0,_RNCINvNtCs8M7rtMEmd2k_14copybook_codec7lib_api20decode_file_to_jsonlINtNtNtCs4eoO4cHkFdT_3std2io6cursor6CursorINtNtCs31agqjrRntl_5alloc3vec3VechEEQB1K_Es2_0CshMCmDISD09f_27comprehensive_numeric_tests
FNDA:2,_RNCINvNtCs8M7rtMEmd2k_14copybook_codec7lib_api20decode_file_to_jsonlINtNtNtCs4eoO4cHkFdT_3std2io6cursor6CursorINtNtCs31agqjrRntl_5alloc3vec3VechEEQB1K_Es3_0CshMCmDISD09f_27comprehensive_numeric_tests
FNDA:0,_RNCINvNtCs8M7rtMEmd2k_14copybook_codec7lib_api20decode_file_to_jsonlINtNtNtCs4eoO4cHkFdT_3std2io6cursor6CursorINtNtCs31agqjrRntl_5alloc3vec3VechEEQB1K_Es_0CshMCmDISD09f_27comprehensive_numeric_tests
FNDA:4,_RNCINvNtCs8M7rtMEmd2k_14copybook_codec7lib_api20decode_file_to_jsonlINtNtNtCs4eoO4cHkFdT_3std2io6cursor6CursorRAhj2_EQINtNtCs31agqjrRntl_5alloc3vec3VechEE0CshMCmDISD09f_27comprehensive_numeric_tests
FNDA:0,_RNCINvNtCs8M7rtMEmd2k_14copybook_codec7lib_api20decode_file_to_jsonlINtNtNtCs4eoO4cHkFdT_3std2io6cursor6CursorRAhj2_EQINtNtCs31agqjrRntl_5alloc3vec3VechEEs0_0CshMCmDISD09f_27comprehensive_numeric_tests
FNDA:0,_RNCINvNtCs8M7rtMEmd2k_14copybook_codec7lib_api20decode_file_to_jsonlINtNtNtCs4eoO4cHkFdT_3std2io6cursor6CursorRAhj2_EQINtNtCs31agqjrRntl_5alloc3vec3VechEEs1_0CshMCmDISD09f_27comprehensive_numeric_tests
FNDA:0,_RNCINvNtCs8M7rtMEmd2k_14copybook_codec7lib_api20decode_file_to_jsonlINtNtNtCs4eoO4cHkFdT_3std2io6cursor6CursorRAhj2_EQINtNtCs31agqjrRntl_5alloc3vec3VechEEs2_0CshMCmDISD09f_27comprehensive_numeric_tests
FNDA:3,_RNCINvNtCs8M7rtMEmd2k_14copybook_codec7lib_api20decode_file_to_jsonlINtNtNtCs4eoO4cHkFdT_3std2io6cursor6CursorRAhj2_EQINtNtCs31agqjrRntl_5alloc3vec3VechEEs3_0CshMCmDISD09f_27comprehensive_numeric_tests
FNDA:0,_RNCINvNtCs8M7rtMEmd2k_14copybook_codec7lib_api20decode_file_to_jsonlINtNtNtCs4eoO4cHkFdT_3std2io6cursor6CursorRAhj2_EQINtNtCs31agqjrRntl_5alloc3vec3VechEEs_0CshMCmDISD09f_27comprehensive_numeric_tests
FNDA:6,_RNCINvNtCs8M7rtMEmd2k_14copybook_codec7lib_api20decode_file_to_jsonlINtNtNtCs4eoO4cHkFdT_3std2io6cursor6CursorRAhj3_EQINtNtCs31agqjrRntl_5alloc3vec3VechEE0CshMCmDISD09f_27comprehensive_numeric_tests
FNDA:0,_RNCINvNtCs8M7rtMEmd2k_14copybook_codec7lib_api20decode_file_to_jsonlINtNtNtCs4eoO4cHkFdT_3std2io6cursor6CursorRAhj3_EQINtNtCs31agqjrRntl_5alloc3vec3VechEEs0_0CshMCmDISD09f_27comprehensive_numeric_tests
FNDA:0,_RNCINvNtCs8M7rtMEmd2k_14copybook_codec7lib_api20decode_file_to_jsonlINtNtNtCs4eoO4cHkFdT_3std2io6cursor6CursorRAhj3_EQINtNtCs31agqjrRntl_5alloc3vec3VechEEs1_0CshMCmDISD09f_27comprehensive_numeric_tests
FNDA:0,_RNCINvNtCs8M7rtMEmd2k_14copybook_codec7lib_api20decode_file_to_jsonlINtNtNtCs4eoO4cHkFdT_3std2io6cursor6CursorRAhj3_EQINtNtCs31agqjrRntl_5alloc3vec3VechEEs2_0CshMCmDISD09f_27comprehensive_numeric_tests
FNDA:5,_RNCINvNtCs8M7rtMEmd2k_14copybook_codec7lib_api20decode_file_to_jsonlINtNtNtCs4eoO4cHkFdT_3std2io6cursor6CursorRAhj3_EQINtNtCs31agqjrRntl_5alloc3vec3VechEEs3_0CshMCmDISD09f_27comprehensive_numeric_tests
FNDA:0,_RNCINvNtCs8M7rtMEmd2k_14copybook_codec7lib_api20decode_file_to_jsonlINtNtNtCs4eoO4cHkFdT_3std2io6cursor6CursorRAhj3_EQINtNtCs31agqjrRntl_5alloc3vec3VechEEs_0CshMCmDISD09f_27comprehensive_numeric_tests
FNDA:8,_RNCINvNtCs8M7rtMEmd2k_14copybook_codec7lib_api20decode_file_to_jsonlINtNtNtCs4eoO4cHkFdT_3std2io6cursor6CursorRAhj5_EQINtNtCs31agqjrRntl_5alloc3vec3VechEE0CshMCmDISD09f_27comprehensive_numeric_tests
FNDA:0,_RNCINvNtCs8M7rtMEmd2k_14copybook_codec7lib_api20decode_file_to_jsonlINtNtNtCs4eoO4cHkFdT_3std2io6cursor6CursorRAhj5_EQINtNtCs31agqjrRntl_5alloc3vec3VechEEs0_0CshMCmDISD09f_27comprehensive_numeric_tests
FNDA:0,_RNCINvNtCs8M7rtMEmd2k_14copybook_codec7lib_api20decode_file_to_jsonlINtNtNtCs4eoO4cHkFdT_3std2io6cursor6CursorRAhj5_EQINtNtCs31agqjrRntl_5alloc3vec3VechEEs1_0CshMCmDISD09f_27comprehensive_numeric_tests
FNDA:0,_RNCINvNtCs8M7rtMEmd2k_14copybook_codec7lib_api20decode_file_to_jsonlINtNtNtCs4eoO4cHkFdT_3std2io6cursor6CursorRAhj5_EQINtNtCs31agqjrRntl_5alloc3vec3VechEEs2_0CshMCmDISD09f_27comprehensive_numeric_tests
FNDA:7,_RNCINvNtCs8M7rtMEmd2k_14copybook_codec7lib_api20decode_file_to_jsonlINtNtNtCs4eoO4cHkFdT_3std2io6cursor6CursorRAhj5_EQINtNtCs31agqjrRntl_5alloc3vec3VechEEs3_0CshMCmDISD09f_27comprehensive_numeric_tests
FNDA:0,_RNCINvNtCs8M7rtMEmd2k_14copybook_codec7lib_api20decode_file_to_jsonlINtNtNtCs4eoO4cHkFdT_3std2io6cursor6CursorRAhj5_EQINtNtCs31agqjrRntl_5alloc3vec3VechEEs_0CshMCmDISD09f_27comprehensive_numeric_tests
FNDA:1,_RNCINvNtCs8M7rtMEmd2k_14copybook_codec7lib_api20decode_file_to_jsonlINtNtNtCs4eoO4cHkFdT_3std2io6cursor6CursorRAhj9_EQINtNtCs31agqjrRntl_5alloc3vec3VechEE0CshMCmDISD09f_27comprehensive_numeric_tests
FNDA:0,_RNCINvNtCs8M7rtMEmd2k_14copybook_codec7lib_api20decode_file_to_jsonlINtNtNtCs4eoO4cHkFdT_3std2io6cursor6CursorRAhj9_EQINtNtCs31agqjrRntl_5alloc3vec3VechEEs0_0CshMCmDISD09f_27comprehensive_numeric_tests
FNDA:0,_RNCINvNtCs8M7rtMEmd2k_14copybook_codec7lib_api20decode_file_to_jsonlINtNtNtCs4eoO4cHkFdT_3std2io6cursor6CursorRAhj9_EQINtNtCs31agqjrRntl_5alloc3vec3VechEEs1_0CshMCmDISD09f_27comprehensive_numeric_tests
FNDA:0,_RNCINvNtCs8M7rtMEmd2k_14copybook_codec7lib_api20decode_file_to_jsonlINtNtNtCs4eoO4cHkFdT_3std2io6cursor6CursorRAhj9_EQINtNtCs31agqjrRntl_5alloc3vec3VechEEs2_0CshMCmDISD09f_27comprehensive_numeric_tests
FNDA:1,_RNCINvNtCs8M7rtMEmd2k_14copybook_codec7lib_api20decode_file_to_jsonlINtNtNtCs4eoO4cHkFdT_3std2io6cursor6CursorRAhj9_EQINtNtCs31agqjrRntl_5alloc3vec3VechEEs3_0CshMCmDISD09f_27comprehensive_numeric_tests
FNDA:0,_RNCINvNtCs8M7rtMEmd2k_14copybook_codec7lib_api20decode_file_to_jsonlINtNtNtCs4eoO4cHkFdT_3std2io6cursor6CursorRAhj9_EQINtNtCs31agqjrRntl_5alloc3vec3VechEEs_0CshMCmDISD09f_27comprehensive_numeric_tests
FNDA:3,_RNCINvNtCs8M7rtMEmd2k_14copybook_codec7lib_api20decode_file_to_jsonlINtNtNtCs4eoO4cHkFdT_3std2io6cursor6CursorRAhja_EQINtNtCs31agqjrRntl_5alloc3vec3VechEE0CshMCmDISD09f_27comprehensive_numeric_tests
FNDA:0,_RNCINvNtCs8M7rtMEmd2k_14copybook_codec7lib_api20decode_file_to_jsonlINtNtNtCs4eoO4cHkFdT_3std2io6cursor6CursorRAhja_EQINtNtCs31agqjrRntl_5alloc3vec3VechEEs0_0CshMCmDISD09f_27comprehensive_numeric_tests
FNDA:0,_RNCINvNtCs8M7rtMEmd2k_14copybook_codec7lib_api20decode_file_to_jsonlINtNtNtCs4eoO4cHkFdT_3std2io6cursor6CursorRAhja_EQINtNtCs31agqjrRntl_5alloc3vec3VechEEs1_0CshMCmDISD09f_27comprehensive_numeric_tests
FNDA:0,_RNCINvNtCs8M7rtMEmd2k_14copybook_codec7lib_api20decode_file_to_jsonlINtNtNtCs4eoO4cHkFdT_3std2io6cursor6CursorRAhja_EQINtNtCs31agqjrRntl_5alloc3vec3VechEEs2_0CshMCmDISD09f_27comprehensive_numeric_tests
FNDA:3,_RNCINvNtCs8M7rtMEmd2k_14copybook_codec7lib_api20decode_file_to_jsonlINtNtNtCs4eoO4cHkFdT_3std2io6cursor6CursorRAhja_EQINtNtCs31agqjrRntl_5alloc3vec3VechEEs3_0CshMCmDISD09f_27comprehensive_numeric_tests
FNDA:0,_RNCINvNtCs8M7rtMEmd2k_14copybook_codec7lib_api20decode_file_to_jsonlINtNtNtCs4eoO4cHkFdT_3std2io6cursor6CursorRAhja_EQINtNtCs31agqjrRntl_5alloc3vec3VechEEs_0CshMCmDISD09f_27comprehensive_numeric_tests
FNDA:2,_RNCINvNtCs8M7rtMEmd2k_14copybook_codec7lib_api20decode_file_to_jsonlINtNtNtCs4eoO4cHkFdT_3std2io6cursor6CursorRAhjc_EQINtNtCs31agqjrRntl_5alloc3vec3VechEE0CshMCmDISD09f_27comprehensive_numeric_tests
FNDA:0,_RNCINvNtCs8M7rtMEmd2k_14copybook_codec7lib_api20decode_file_to_jsonlINtNtNtCs4eoO4cHkFdT_3std2io6cursor6CursorRAhjc_EQINtNtCs31agqjrRntl_5alloc3vec3VechEEs0_0CshMCmDISD09f_27comprehensive_numeric_tests
FNDA:0,_RNCINvNtCs8M7rtMEmd2k_14copybook_codec7lib_api20decode_file_to_jsonlINtNtNtCs4eoO4cHkFdT_3std2io6cursor6CursorRAhjc_EQINtNtCs31agqjrRntl_5alloc3vec3VechEEs1_0CshMCmDISD09f_27comprehensive_numeric_tests
FNDA:0,_RNCINvNtCs8M7rtMEmd2k_14copybook_codec7lib_api20decode_file_to_jsonlINtNtNtCs4eoO4cHkFdT_3std2io6cursor6CursorRAhjc_EQINtNtCs31agqjrRntl_5alloc3vec3VechEEs2_0CshMCmDISD09f_27comprehensive_numeric_tests
FNDA:2,_RNCINvNtCs8M7rtMEmd2k_14copybook_codec7lib_api20decode_file_to_jsonlINtNtNtCs4eoO4cHkFdT_3std2io6cursor6CursorRAhjc_EQINtNtCs31agqjrRntl_5alloc3vec3VechEEs3_0CshMCmDISD09f_27comprehensive_numeric_tests
FNDA:0,_RNCINvNtCs8M7rtMEmd2k_14copybook_codec7lib_api20decode_file_to_jsonlINtNtNtCs4eoO4cHkFdT_3std2io6cursor6CursorRAhjc_EQINtNtCs31agqjrRntl_5alloc3vec3VechEEs_0CshMCmDISD09f_27comprehensive_numeric_tests
FNDA:1,_RNCINvNtCs8M7rtMEmd2k_14copybook_codec7lib_api20decode_file_to_jsonlINtNtNtCs4eoO4cHkFdT_3std2io6cursor6CursorRAhjf_EQINtNtCs31agqjrRntl_5alloc3vec3VechEE0CshMCmDISD09f_27comprehensive_numeric_tests
FNDA:0,_RNCINvNtCs8M7rtMEmd2k_14copybook_codec7lib_api20decode_file_to_jsonlINtNtNtCs4eoO4cHkFdT_3std2io6cursor6CursorRAhjf_EQINtNtCs31agqjrRntl_5alloc3vec3VechEEs0_0CshMCmDISD09f_27comprehensive_numeric_tests
FNDA:0,_RNCINvNtCs8M7rtMEmd2k_14copybook_codec7lib_api20decode_file_to_jsonlINtNtNtCs4eoO4cHkFdT_3std2io6cursor6CursorRAhjf_EQINtNtCs31agqjrRntl_5alloc3vec3VechEEs1_0CshMCmDISD09f_27comprehensive_numeric_tests
FNDA:0,_RNCINvNtCs8M7rtMEmd2k_14copybook_codec7lib_api20decode_file_to_jsonlINtNtNtCs4eoO4cHkFdT_3std2io6cursor6CursorRAhjf_EQINtNtCs31agqjrRntl_5alloc3vec3VechEEs2_0CshMCmDISD09f_27comprehensive_numeric_tests
FNDA:1,_RNCINvNtCs8M7rtMEmd2k_14copybook_codec7lib_api20decode_file_to_jsonlINtNtNtCs4eoO4cHkFdT_3std2io6cursor6CursorRAhjf_EQINtNtCs31agqjrRntl_5alloc3vec3VechEEs3_0CshMCmDISD09f_27comprehensive_numeric_tests
FNDA:0,_RNCINvNtCs8M7rtMEmd2k_14copybook_codec7lib_api20decode_file_to_jsonlINtNtNtCs4eoO4cHkFdT_3std2io6cursor6CursorRAhjf_EQINtNtCs31agqjrRntl_5alloc3vec3VechEEs_0CshMCmDISD09f_27comprehensive_numeric_tests
FNDA:2,_RINvNtCs8M7rtMEmd2k_14copybook_codec7lib_api20decode_file_to_jsonlINtNtNtCs4eoO4cHkFdT_3std2io6cursor6CursorINtNtCs31agqjrRntl_5alloc3vec3VechEEQB1I_ECsgzuDHo0g7lo_23comprehensive_rdw_tests
FNDA:1,_RINvNtCs8M7rtMEmd2k_14copybook_codec7lib_api20decode_file_to_jsonlINtNtNtCs4eoO4cHkFdT_3std2io6cursor6CursorRAhj0_EQINtNtCs31agqjrRntl_5alloc3vec3VechEECsgzuDHo0g7lo_23comprehensive_rdw_tests
FNDA:1,_RINvNtCs8M7rtMEmd2k_14copybook_codec7lib_api20decode_file_to_jsonlINtNtNtCs4eoO4cHkFdT_3std2io6cursor6CursorRAhj10_EQINtNtCs31agqjrRntl_5alloc3vec3VechEECsgzuDHo0g7lo_23comprehensive_rdw_tests
FNDA:1,_RINvNtCs8M7rtMEmd2k_14copybook_codec7lib_api20decode_file_to_jsonlINtNtNtCs4eoO4cHkFdT_3std2io6cursor6CursorRAhj1b_EQINtNtCs31agqjrRntl_5alloc3vec3VechEECsgzuDHo0g7lo_23comprehensive_rdw_tests
FNDA:1,_RINvNtCs8M7rtMEmd2k_14copybook_codec7lib_api20decode_file_to_jsonlINtNtNtCs4eoO4cHkFdT_3std2io6cursor6CursorRAhj2_EQINtNtCs31agqjrRntl_5alloc3vec3VechEECsgzuDHo0g7lo_23comprehensive_rdw_tests
FNDA:1,_RINvNtCs8M7rtMEmd2k_14copybook_codec7lib_api20decode_file_to_jsonlINtNtNtCs4eoO4cHkFdT_3std2io6cursor6CursorRAhj4_EQINtNtCs31agqjrRntl_5alloc3vec3VechEECsgzuDHo0g7lo_23comprehensive_rdw_tests
FNDA:4,_RINvNtCs8M7rtMEmd2k_14copybook_codec7lib_api20decode_file_to_jsonlINtNtNtCs4eoO4cHkFdT_3std2io6cursor6CursorRAhj9_EQINtNtCs31agqjrRntl_5alloc3vec3VechEECsgzuDHo0g7lo_23comprehensive_rdw_tests
FNDA:2,_RINvNtCs8M7rtMEmd2k_14copybook_codec7lib_api20decode_file_to_jsonlINtNtNtCs4eoO4cHkFdT_3std2io6cursor6CursorRAhjc_EQINtNtCs31agqjrRntl_5alloc3vec3VechEECsgzuDHo0g7lo_23comprehensive_rdw_tests
FNDA:2,_RINvNtCs8M7rtMEmd2k_14copybook_codec7lib_api20decode_file_to_jsonlINtNtNtCs4eoO4cHkFdT_3std2io6cursor6CursorRAhje_EQINtNtCs31agqjrRntl_5alloc3vec3VechEECsgzuDHo0g7lo_23comprehensive_rdw_tests
FNDA:1,_RINvNtCs8M7rtMEmd2k_14copybook_codec7lib_api20decode_file_to_jsonlINtNtNtCs4eoO4cHkFdT_3std2io6cursor6CursorRAhjf_EQINtNtCs31agqjrRntl_5alloc3vec3VechEECsgzuDHo0g7lo_23comprehensive_rdw_tests
FNDA:2,_RNCINvNtCs8M7rtMEmd2k_14copybook_codec7lib_api20decode_file_to_jsonlINtNtNtCs4eoO4cHkFdT_3std2io6cursor6CursorINtNtCs31agqjrRntl_5alloc3vec3VechEEQB1K_E0CsgzuDHo0g7lo_23comprehensive_rdw_tests
FNDA:0,_RNCINvNtCs8M7rtMEmd2k_14copybook_codec7lib_api20decode_file_to_jsonlINtNtNtCs4eoO4cHkFdT_3std2io6cursor6CursorINtNtCs31agqjrRntl_5alloc3vec3VechEEQB1K_Es0_0CsgzuDHo0g7lo_23comprehensive_rdw_tests
FNDA:0,_RNCINvNtCs8M7rtMEmd2k_14copybook_codec7lib_api20decode_file_to_jsonlINtNtNtCs4eoO4cHkFdT_3std2io6cursor6CursorINtNtCs31agqjrRntl_5alloc3vec3VechEEQB1K_Es1_0CsgzuDHo0g7lo_23comprehensive_rdw_tests
FNDA:0,_RNCINvNtCs8M7rtMEmd2k_14copybook_codec7lib_api20decode_file_to_jsonlINtNtNtCs4eoO4cHkFdT_3std2io6cursor6CursorINtNtCs31agqjrRntl_5alloc3vec3VechEEQB1K_Es2_0CsgzuDHo0g7lo_23comprehensive_rdw_tests
FNDA:2,_RNCINvNtCs8M7rtMEmd2k_14copybook_codec7lib_api20decode_file_to_jsonlINtNtNtCs4eoO4cHkFdT_3std2io6cursor6CursorINtNtCs31agqjrRntl_5alloc3vec3VechEEQB1K_Es3_0CsgzuDHo0g7lo_23comprehensive_rdw_tests
FNDA:0,_RNCINvNtCs8M7rtMEmd2k_14copybook_codec7lib_api20decode_file_to_jsonlINtNtNtCs4eoO4cHkFdT_3std2io6cursor6CursorINtNtCs31agqjrRntl_5alloc3vec3VechEEQB1K_Es_0CsgzuDHo0g7lo_23comprehensive_rdw_tests
FNDA:1,_RNCINvNtCs8M7rtMEmd2k_14copybook_codec7lib_api20decode_file_to_jsonlINtNtNtCs4eoO4cHkFdT_3std2io6cursor6CursorRAhj0_EQINtNtCs31agqjrRntl_5alloc3vec3VechEE0CsgzuDHo0g7lo_23comprehensive_rdw_tests
FNDA:0,_RNCINvNtCs8M7rtMEmd2k_14copybook_codec7lib_api20decode_file_to_jsonlINtNtNtCs4eoO4cHkFdT_3std2io6cursor6CursorRAhj0_EQINtNtCs31agqjrRntl_5alloc3vec3VechEEs0_0CsgzuDHo0g7lo_23comprehensive_rdw_tests
FNDA:0,_RNCINvNtCs8M7rtMEmd2k_14copybook_codec7lib_api20decode_file_to_jsonlINtNtNtCs4eoO4cHkFdT_3std2io6cursor6CursorRAhj0_EQINtNtCs31agqjrRntl_5alloc3vec3VechEEs1_0CsgzuDHo0g7lo_23comprehensive_rdw_tests
FNDA:0,_RNCINvNtCs8M7rtMEmd2k_14copybook_codec7lib_api20decode_file_to_jsonlINtNtNtCs4eoO4cHkFdT_3std2io6cursor6CursorRAhj0_EQINtNtCs31agqjrRntl_5alloc3vec3VechEEs2_0CsgzuDHo0g7lo_23comprehensive_rdw_tests
FNDA:1,_RNCINvNtCs8M7rtMEmd2k_14copybook_codec7lib_api20decode_file_to_jsonlINtNtNtCs4eoO4cHkFdT_3std2io6cursor6CursorRAhj0_EQINtNtCs31agqjrRntl_5alloc3vec3VechEEs3_0CsgzuDHo0g7lo_23comprehensive_rdw_tests
FNDA:0,_RNCINvNtCs8M7rtMEmd2k_14copybook_codec7lib_api20decode_file_to_jsonlINtNtNtCs4eoO4cHkFdT_3std2io6cursor6CursorRAhj0_EQINtNtCs31agqjrRntl_5alloc3vec3VechEEs_0CsgzuDHo0g7lo_23comprehensive_rdw_tests
FNDA:1,_RNCINvNtCs8M7rtMEmd2k_14copybook_codec7lib_api20decode_file_to_jsonlINtNtNtCs4eoO4cHkFdT_3std2io6cursor6CursorRAhj10_EQINtNtCs31agqjrRntl_5alloc3vec3VechEE0CsgzuDHo0g7lo_23comprehensive_rdw_tests
FNDA:0,_RNCINvNtCs8M7rtMEmd2k_14copybook_codec7lib_api20decode_file_to_jsonlINtNtNtCs4eoO4cHkFdT_3std2io6cursor6CursorRAhj10_EQINtNtCs31agqjrRntl_5alloc3vec3VechEEs0_0CsgzuDHo0g7lo_23comprehensive_rdw_tests
FNDA:0,_RNCINvNtCs8M7rtMEmd2k_14copybook_codec7lib_api20decode_file_to_jsonlINtNtNtCs4eoO4cHkFdT_3std2io6cursor6CursorRAhj10_EQINtNtCs31agqjrRntl_5alloc3vec3VechEEs1_0CsgzuDHo0g7lo_23comprehensive_rdw_tests
FNDA:0,_RNCINvNtCs8M7rtMEmd2k_14copybook_codec7lib_api20decode_file_to_jsonlINtNtNtCs4eoO4cHkFdT_3std2io6cursor6CursorRAhj10_EQINtNtCs31agqjrRntl_5alloc3vec3VechEEs2_0CsgzuDHo0g7lo_23comprehensive_rdw_tests
FNDA:1,_RNCINvNtCs8M7rtMEmd2k_14copybook_codec7lib_api20decode_file_to_jsonlINtNtNtCs4eoO4cHkFdT_3std2io6cursor6CursorRAhj10_EQINtNtCs31agqjrRntl_5alloc3vec3VechEEs3_0CsgzuDHo0g7lo_23comprehensive_rdw_tests
FNDA:0,_RNCINvNtCs8M7rtMEmd2k_14copybook_codec7lib_api20decode_file_to_jsonlINtNtNtCs4eoO4cHkFdT_3std2io6cursor6CursorRAhj10_EQINtNtCs31agqjrRntl_5alloc3vec3VechEEs_0CsgzuDHo0g7lo_23comprehensive_rdw_tests
FNDA:1,_RNCINvNtCs8M7rtMEmd2k_14copybook_codec7lib_api20decode_file_to_jsonlINtNtNtCs4eoO4cHkFdT_3std2io6cursor6CursorRAhj1b_EQINtNtCs31agqjrRntl_5alloc3vec3VechEE0CsgzuDHo0g7lo_23comprehensive_rdw_tests
FNDA:0,_RNCINvNtCs8M7rtMEmd2k_14copybook_codec7lib_api20decode_file_to_jsonlINtNtNtCs4eoO4cHkFdT_3std2io6cursor6CursorRAhj1b_EQINtNtCs31agqjrRntl_5alloc3vec3VechEEs0_0CsgzuDHo0g7lo_23comprehensive_rdw_tests
FNDA:0,_RNCINvNtCs8M7rtMEmd2k_14copybook_codec7lib_api20decode_file_to_jsonlINtNtNtCs4eoO4cHkFdT_3std2io6cursor6CursorRAhj1b_EQINtNtCs31agqjrRntl_5alloc3vec3VechEEs1_0CsgzuDHo0g7lo_23comprehensive_rdw_tests
FNDA:0,_RNCINvNtCs8M7rtMEmd2k_14copybook_codec7lib_api20decode_file_to_jsonlINtNtNtCs4eoO4cHkFdT_3std2io6cursor6CursorRAhj1b_EQINtNtCs31agqjrRntl_5alloc3vec3VechEEs2_0CsgzuDHo0g7lo_23comprehensive_rdw_tests
FNDA:1,_RNCINvNtCs8M7rtMEmd2k_14copybook_codec7lib_api20decode_file_to_jsonlINtNtNtCs4eoO4cHkFdT_3std2io6cursor6CursorRAhj1b_EQINtNtCs31agqjrRntl_5alloc3vec3VechEEs3_0CsgzuDHo0g7lo_23comprehensive_rdw_tests
FNDA:0,_RNCINvNtCs8M7rtMEmd2k_14copybook_codec7lib_api20decode_file_to_jsonlINtNtNtCs4eoO4cHkFdT_3std2io6cursor6CursorRAhj1b_EQINtNtCs31agqjrRntl_5alloc3vec3VechEEs_0CsgzuDHo0g7lo_23comprehensive_rdw_tests
FNDA:1,_RNCINvNtCs8M7rtMEmd2k_14copybook_codec7lib_api20decode_file_to_jsonlINtNtNtCs4eoO4cHkFdT_3std2io6cursor6CursorRAhj2_EQINtNtCs31agqjrRntl_5alloc3vec3VechEE0CsgzuDHo0g7lo_23comprehensive_rdw_tests
FNDA:0,_RNCINvNtCs8M7rtMEmd2k_14copybook_codec7lib_api20decode_file_to_jsonlINtNtNtCs4eoO4cHkFdT_3std2io6cursor6CursorRAhj2_EQINtNtCs31agqjrRntl_5alloc3vec3VechEEs0_0CsgzuDHo0g7lo_23comprehensive_rdw_tests
FNDA:0,_RNCINvNtCs8M7rtMEmd2k_14copybook_codec7lib_api20decode_file_to_jsonlINtNtNtCs4eoO4cHkFdT_3std2io6cursor6CursorRAhj2_EQINtNtCs31agqjrRntl_5alloc3vec3VechEEs1_0CsgzuDHo0g7lo_23comprehensive_rdw_tests
FNDA:0,_RNCINvNtCs8M7rtMEmd2k_14copybook_codec7lib_api20decode_file_to_jsonlINtNtNtCs4eoO4cHkFdT_3std2io6cursor6CursorRAhj2_EQINtNtCs31agqjrRntl_5alloc3vec3VechEEs2_0CsgzuDHo0g7lo_23comprehensive_rdw_tests
FNDA:1,_RNCINvNtCs8M7rtMEmd2k_14copybook_codec7lib_api20decode_file_to_jsonlINtNtNtCs4eoO4cHkFdT_3std2io6cursor6CursorRAhj2_EQINtNtCs31agqjrRntl_5alloc3vec3VechEEs3_0CsgzuDHo0g7lo_23comprehensive_rdw_tests
FNDA:0,_RNCINvNtCs8M7rtMEmd2k_14copybook_codec7lib_api20decode_file_to_jsonlINtNtNtCs4eoO4cHkFdT_3std2io6cursor6CursorRAhj2_EQINtNtCs31agqjrRntl_5alloc3vec3VechEEs_0CsgzuDHo0g7lo_23comprehensive_rdw_tests
FNDA:1,_RNCINvNtCs8M7rtMEmd2k_14copybook_codec7lib_api20decode_file_to_jsonlINtNtNtCs4eoO4cHkFdT_3std2io6cursor6CursorRAhj4_EQINtNtCs31agqjrRntl_5alloc3vec3VechEE0CsgzuDHo0g7lo_23comprehensive_rdw_tests
FNDA:0,_RNCINvNtCs8M7rtMEmd2k_14copybook_codec7lib_api20decode_file_to_jsonlINtNtNtCs4eoO4cHkFdT_3std2io6cursor6CursorRAhj4_EQINtNtCs31agqjrRntl_5alloc3vec3VechEEs0_0CsgzuDHo0g7lo_23comprehensive_rdw_tests
FNDA:0,_RNCINvNtCs8M7rtMEmd2k_14copybook_codec7lib_api20decode_file_to_jsonlINtNtNtCs4eoO4cHkFdT_3std2io6cursor6CursorRAhj4_EQINtNtCs31agqjrRntl_5alloc3vec3VechEEs1_0CsgzuDHo0g7lo_23comprehensive_rdw_tests
FNDA:0,_RNCINvNtCs8M7rtMEmd2k_14copybook_codec7lib_api20decode_file_to_jsonlINtNtNtCs4eoO4cHkFdT_3std2io6cursor6CursorRAhj4_EQINtNtCs31agqjrRntl_5alloc3vec3VechEEs2_0CsgzuDHo0g7lo_23comprehensive_rdw_tests
FNDA:1,_RNCINvNtCs8M7rtMEmd2k_14copybook_codec7lib_api20decode_file_to_jsonlINtNtNtCs4eoO4cHkFdT_3std2io6cursor6CursorRAhj4_EQINtNtCs31agqjrRntl_5alloc3vec3VechEEs3_0CsgzuDHo0g7lo_23comprehensive_rdw_tests
FNDA:0,_RNCINvNtCs8M7rtMEmd2k_14copybook_codec7lib_api20decode_file_to_jsonlINtNtNtCs4eoO4cHkFdT_3std2io6cursor6CursorRAhj4_EQINtNtCs31agqjrRntl_5alloc3vec3VechEEs_0CsgzuDHo0g7lo_23comprehensive_rdw_tests
FNDA:4,_RNCINvNtCs8M7rtMEmd2k_14copybook_codec7lib_api20decode_file_to_jsonlINtNtNtCs4eoO4cHkFdT_3std2io6cursor6CursorRAhj9_EQINtNtCs31agqjrRntl_5alloc3vec3VechEE0CsgzuDHo0g7lo_23comprehensive_rdw_tests
FNDA:0,_RNCINvNtCs8M7rtMEmd2k_14copybook_codec7lib_api20decode_file_to_jsonlINtNtNtCs4eoO4cHkFdT_3std2io6cursor6CursorRAhj9_EQINtNtCs31agqjrRntl_5alloc3vec3VechEEs0_0CsgzuDHo0g7lo_23comprehensive_rdw_tests
FNDA:0,_RNCINvNtCs8M7rtMEmd2k_14copybook_codec7lib_api20decode_file_to_jsonlINtNtNtCs4eoO4cHkFdT_3std2io6cursor6CursorRAhj9_EQINtNtCs31agqjrRntl_5alloc3vec3VechEEs1_0CsgzuDHo0g7lo_23comprehensive_rdw_tests
FNDA:0,_RNCINvNtCs8M7rtMEmd2k_14copybook_codec7lib_api20decode_file_to_jsonlINtNtNtCs4eoO4cHkFdT_3std2io6cursor6CursorRAhj9_EQINtNtCs31agqjrRntl_5alloc3vec3VechEEs2_0CsgzuDHo0g7lo_23comprehensive_rdw_tests
FNDA:1,_RNCINvNtCs8M7rtMEmd2k_14copybook_codec7lib_api20decode_file_to_jsonlINtNtNtCs4eoO4cHkFdT_3std2io6cursor6CursorRAhj9_EQINtNtCs31agqjrRntl_5alloc3vec3VechEEs3_0CsgzuDHo0g7lo_23comprehensive_rdw_tests
FNDA:0,_RNCINvNtCs8M7rtMEmd2k_14copybook_codec7lib_api20decode_file_to_jsonlINtNtNtCs4eoO4cHkFdT_3std2io6cursor6CursorRAhj9_EQINtNtCs31agqjrRntl_5alloc3vec3VechEEs_0CsgzuDHo0g7lo_23comprehensive_rdw_tests
FNDA:2,_RNCINvNtCs8M7rtMEmd2k_14copybook_codec7lib_api20decode_file_to_jsonlINtNtNtCs4eoO4cHkFdT_3std2io6cursor6CursorRAhjc_EQINtNtCs31agqjrRntl_5alloc3vec3VechEE0CsgzuDHo0g7lo_23comprehensive_rdw_tests
FNDA:0,_RNCINvNtCs8M7rtMEmd2k_14copybook_codec7lib_api20decode_file_to_jsonlINtNtNtCs4eoO4cHkFdT_3std2io6cursor6CursorRAhjc_EQINtNtCs31agqjrRntl_5alloc3vec3VechEEs0_0CsgzuDHo0g7lo_23comprehensive_rdw_tests
FNDA:0,_RNCINvNtCs8M7rtMEmd2k_14copybook_codec7lib_api20decode_file_to_jsonlINtNtNtCs4eoO4cHkFdT_3std2io6cursor6CursorRAhjc_EQINtNtCs31agqjrRntl_5alloc3vec3VechEEs1_0CsgzuDHo0g7lo_23comprehensive_rdw_tests
FNDA:0,_RNCINvNtCs8M7rtMEmd2k_14copybook_codec7lib_api20decode_file_to_jsonlINtNtNtCs4eoO4cHkFdT_3std2io6cursor6CursorRAhjc_EQINtNtCs31agqjrRntl_5alloc3vec3VechEEs2_0CsgzuDHo0g7lo_23comprehensive_rdw_tests
FNDA:2,_RNCINvNtCs8M7rtMEmd2k_14copybook_codec7lib_api20decode_file_to_jsonlINtNtNtCs4eoO4cHkFdT_3std2io6cursor6CursorRAhjc_EQINtNtCs31agqjrRntl_5alloc3vec3VechEEs3_0CsgzuDHo0g7lo_23comprehensive_rdw_tests
FNDA:0,_RNCINvNtCs8M7rtMEmd2k_14copybook_codec7lib_api20decode_file_to_jsonlINtNtNtCs4eoO4cHkFdT_3std2io6cursor6CursorRAhjc_EQINtNtCs31agqjrRntl_5alloc3vec3VechEEs_0CsgzuDHo0g7lo_23comprehensive_rdw_tests
FNDA:2,_RNCINvNtCs8M7rtMEmd2k_14copybook_codec7lib_api20decode_file_to_jsonlINtNtNtCs4eoO4cHkFdT_3std2io6cursor6CursorRAhje_EQINtNtCs31agqjrRntl_5alloc3vec3VechEE0CsgzuDHo0g7lo_23comprehensive_rdw_tests
FNDA:0,_RNCINvNtCs8M7rtMEmd2k_14copybook_codec7lib_api20decode_file_to_jsonlINtNtNtCs4eoO4cHkFdT_3std2io6cursor6CursorRAhje_EQINtNtCs31agqjrRntl_5alloc3vec3VechEEs0_0CsgzuDHo0g7lo_23comprehensive_rdw_tests
FNDA:0,_RNCINvNtCs8M7rtMEmd2k_14copybook_codec7lib_api20decode_file_to_jsonlINtNtNtCs4eoO4cHkFdT_3std2io6cursor6CursorRAhje_EQINtNtCs31agqjrRntl_5alloc3vec3VechEEs1_0CsgzuDHo0g7lo_23comprehensive_rdw_tests
FNDA:0,_RNCINvNtCs8M7rtMEmd2k_14copybook_codec7lib_api20decode_file_to_jsonlINtNtNtCs4eoO4cHkFdT_3std2io6cursor6CursorRAhje_EQINtNtCs31agqjrRntl_5alloc3vec3VechEEs2_0CsgzuDHo0g7lo_23comprehensive_rdw_tests
FNDA:1,_RNCINvNtCs8M7rtMEmd2k_14copybook_codec7lib_api20decode_file_to_jsonlINtNtNtCs4eoO4cHkFdT_3std2io6cursor6CursorRAhje_EQINtNtCs31agqjrRntl_5alloc3vec3VechEEs3_0CsgzuDHo0g7lo_23comprehensive_rdw_tests
FNDA:0,_RNCINvNtCs8M7rtMEmd2k_14copybook_codec7lib_api20decode_file_to_jsonlINtNtNtCs4eoO4cHkFdT_3std2io6cursor6CursorRAhje_EQINtNtCs31agqjrRntl_5alloc3vec3VechEEs_0CsgzuDHo0g7lo_23comprehensive_rdw_tests
FNDA:1,_RNCINvNtCs8M7rtMEmd2k_14copybook_codec7lib_api20decode_file_to_jsonlINtNtNtCs4eoO4cHkFdT_3std2io6cursor6CursorRAhjf_EQINtNtCs31agqjrRntl_5alloc3vec3VechEE0CsgzuDHo0g7lo_23comprehensive_rdw_tests
FNDA:0,_RNCINvNtCs8M7rtMEmd2k_14copybook_codec7lib_api20decode_file_to_jsonlINtNtNtCs4eoO4cHkFdT_3std2io6cursor6CursorRAhjf_EQINtNtCs31agqjrRntl_5alloc3vec3VechEEs0_0CsgzuDHo0g7lo_23comprehensive_rdw_tests
FNDA:0,_RNCINvNtCs8M7rtMEmd2k_14copybook_codec7lib_api20decode_file_to_jsonlINtNtNtCs4eoO4cHkFdT_3std2io6cursor6CursorRAhjf_EQINtNtCs31agqjrRntl_5alloc3vec3VechEEs1_0CsgzuDHo0g7lo_23comprehensive_rdw_tests
FNDA:0,_RNCINvNtCs8M7rtMEmd2k_14copybook_codec7lib_api20decode_file_to_jsonlINtNtNtCs4eoO4cHkFdT_3std2io6cursor6CursorRAhjf_EQINtNtCs31agqjrRntl_5alloc3vec3VechEEs2_0CsgzuDHo0g7lo_23comprehensive_rdw_tests
FNDA:1,_RNCINvNtCs8M7rtMEmd2k_14copybook_codec7lib_api20decode_file_to_jsonlINtNtNtCs4eoO4cHkFdT_3std2io6cursor6CursorRAhjf_EQINtNtCs31agqjrRntl_5alloc3vec3VechEEs3_0CsgzuDHo0g7lo_23comprehensive_rdw_tests
FNDA:0,_RNCINvNtCs8M7rtMEmd2k_14copybook_codec7lib_api20decode_file_to_jsonlINtNtNtCs4eoO4cHkFdT_3std2io6cursor6CursorRAhjf_EQINtNtCs31agqjrRntl_5alloc3vec3VechEEs_0CsgzuDHo0g7lo_23comprehensive_rdw_tests
FNDA:1,_RINvNtCs8M7rtMEmd2k_14copybook_codec7lib_api20decode_file_to_jsonlINtNtNtCs4eoO4cHkFdT_3std2io6cursor6CursorRAhj11_EQINtNtCs31agqjrRntl_5alloc3vec3VechEECsc6sau5EZUC8_33comprehensive_redefines_odo_tests
FNDA:0,_RINvNtCs8M7rtMEmd2k_14copybook_codec7lib_api20decode_file_to_jsonlINtNtNtCs4eoO4cHkFdT_3std2io6cursor6CursorRAhj14_EQINtNtCs31agqjrRntl_5alloc3vec3VechEECsc6sau5EZUC8_33comprehensive_redefines_odo_tests
FNDA:0,_RINvNtCs8M7rtMEmd2k_14copybook_codec7lib_api20decode_file_to_jsonlINtNtNtCs4eoO4cHkFdT_3std2io6cursor6CursorRAhj1c_EQINtNtCs31agqjrRntl_5alloc3vec3VechEECsc6sau5EZUC8_33comprehensive_redefines_odo_tests
FNDA:2,_RINvNtCs8M7rtMEmd2k_14copybook_codec7lib_api20decode_file_to_jsonlINtNtNtCs4eoO4cHkFdT_3std2io6cursor6CursorRAhj8_EQINtNtCs31agqjrRntl_5alloc3vec3VechEECsc6sau5EZUC8_33comprehensive_redefines_odo_tests
FNDA:1,_RNCINvNtCs8M7rtMEmd2k_14copybook_codec7lib_api20decode_file_to_jsonlINtNtNtCs4eoO4cHkFdT_3std2io6cursor6CursorRAhj11_EQINtNtCs31agqjrRntl_5alloc3vec3VechEE0Csc6sau5EZUC8_33comprehensive_redefines_odo_tests
FNDA:0,_RNCINvNtCs8M7rtMEmd2k_14copybook_codec7lib_api20decode_file_to_jsonlINtNtNtCs4eoO4cHkFdT_3std2io6cursor6CursorRAhj11_EQINtNtCs31agqjrRntl_5alloc3vec3VechEEs0_0Csc6sau5EZUC8_33comprehensive_redefines_odo_tests
FNDA:0,_RNCINvNtCs8M7rtMEmd2k_14copybook_codec7lib_api20decode_file_to_jsonlINtNtNtCs4eoO4cHkFdT_3std2io6cursor6CursorRAhj11_EQINtNtCs31agqjrRntl_5alloc3vec3VechEEs1_0Csc6sau5EZUC8_33comprehensive_redefines_odo_tests
FNDA:0,_RNCINvNtCs8M7rtMEmd2k_14copybook_codec7lib_api20decode_file_to_jsonlINtNtNtCs4eoO4cHkFdT_3std2io6cursor6CursorRAhj11_EQINtNtCs31agqjrRntl_5alloc3vec3VechEEs2_0Csc6sau5EZUC8_33comprehensive_redefines_odo_tests
FNDA:1,_RNCINvNtCs8M7rtMEmd2k_14copybook_codec7lib_api20decode_file_to_jsonlINtNtNtCs4eoO4cHkFdT_3std2io6cursor6CursorRAhj11_EQINtNtCs31agqjrRntl_5alloc3vec3VechEEs3_0Csc6sau5EZUC8_33comprehensive_redefines_odo_tests
FNDA:0,_RNCINvNtCs8M7rtMEmd2k_14copybook_codec7lib_api20decode_file_to_jsonlINtNtNtCs4eoO4cHkFdT_3std2io6cursor6CursorRAhj11_EQINtNtCs31agqjrRntl_5alloc3vec3VechEEs_0Csc6sau5EZUC8_33comprehensive_redefines_odo_tests
FNDA:0,_RNCINvNtCs8M7rtMEmd2k_14copybook_codec7lib_api20decode_file_to_jsonlINtNtNtCs4eoO4cHkFdT_3std2io6cursor6CursorRAhj14_EQINtNtCs31agqjrRntl_5alloc3vec3VechEE0Csc6sau5EZUC8_33comprehensive_redefines_odo_tests
FNDA:0,_RNCINvNtCs8M7rtMEmd2k_14copybook_codec7lib_api20decode_file_to_jsonlINtNtNtCs4eoO4cHkFdT_3std2io6cursor6CursorRAhj14_EQINtNtCs31agqjrRntl_5alloc3vec3VechEEs0_0Csc6sau5EZUC8_33comprehensive_redefines_odo_tests
FNDA:0,_RNCINvNtCs8M7rtMEmd2k_14copybook_codec7lib_api20decode_file_to_jsonlINtNtNtCs4eoO4cHkFdT_3std2io6cursor6CursorRAhj14_EQINtNtCs31agqjrRntl_5alloc3vec3VechEEs1_0Csc6sau5EZUC8_33comprehensive_redefines_odo_tests
FNDA:0,_RNCINvNtCs8M7rtMEmd2k_14copybook_codec7lib_api20decode_file_to_jsonlINtNtNtCs4eoO4cHkFdT_3std2io6cursor6CursorRAhj14_EQINtNtCs31agqjrRntl_5alloc3vec3VechEEs2_0Csc6sau5EZUC8_33comprehensive_redefines_odo_tests
FNDA:0,_RNCINvNtCs8M7rtMEmd2k_14copybook_codec7lib_api20decode_file_to_jsonlINtNtNtCs4eoO4cHkFdT_3std2io6cursor6CursorRAhj14_EQINtNtCs31agqjrRntl_5alloc3vec3VechEEs3_0Csc6sau5EZUC8_33comprehensive_redefines_odo_tests
FNDA:0,_RNCINvNtCs8M7rtMEmd2k_14copybook_codec7lib_api20decode_file_to_jsonlINtNtNtCs4eoO4cHkFdT_3std2io6cursor6CursorRAhj14_EQINtNtCs31agqjrRntl_5alloc3vec3VechEEs_0Csc6sau5EZUC8_33comprehensive_redefines_odo_tests
FNDA:0,_RNCINvNtCs8M7rtMEmd2k_14copybook_codec7lib_api20decode_file_to_jsonlINtNtNtCs4eoO4cHkFdT_3std2io6cursor6CursorRAhj1c_EQINtNtCs31agqjrRntl_5alloc3vec3VechEE0Csc6sau5EZUC8_33comprehensive_redefines_odo_tests
FNDA:0,_RNCINvNtCs8M7rtMEmd2k_14copybook_codec7lib_api20decode_file_to_jsonlINtNtNtCs4eoO4cHkFdT_3std2io6cursor6CursorRAhj1c_EQINtNtCs31agqjrRntl_5alloc3vec3VechEEs0_0Csc6sau5EZUC8_33comprehensive_redefines_odo_tests
FNDA:0,_RNCINvNtCs8M7rtMEmd2k_14copybook_codec7lib_api20decode_file_to_jsonlINtNtNtCs4eoO4cHkFdT_3std2io6cursor6CursorRAhj1c_EQINtNtCs31agqjrRntl_5alloc3vec3VechEEs1_0Csc6sau5EZUC8_33comprehensive_redefines_odo_tests
FNDA:0,_RNCINvNtCs8M7rtMEmd2k_14copybook_codec7lib_api20decode_file_to_jsonlINtNtNtCs4eoO4cHkFdT_3std2io6cursor6CursorRAhj1c_EQINtNtCs31agqjrRntl_5alloc3vec3VechEEs2_0Csc6sau5EZUC8_33comprehensive_redefines_odo_tests
FNDA:0,_RNCINvNtCs8M7rtMEmd2k_14copybook_codec7lib_api20decode_file_to_jsonlINtNtNtCs4eoO4cHkFdT_3std2io6cursor6CursorRAhj1c_EQINtNtCs31agqjrRntl_5alloc3vec3VechEEs3_0Csc6sau5EZUC8_33comprehensive_redefines_odo_tests
FNDA:0,_RNCINvNtCs8M7rtMEmd2k_14copybook_codec7lib_api20decode_file_to_jsonlINtNtNtCs4eoO4cHkFdT_3std2io6cursor6CursorRAhj1c_EQINtNtCs31agqjrRntl_5alloc3vec3VechEEs_0Csc6sau5EZUC8_33comprehensive_redefines_odo_tests
FNDA:2,_RNCINvNtCs8M7rtMEmd2k_14copybook_codec7lib_api20decode_file_to_jsonlINtNtNtCs4eoO4cHkFdT_3std2io6cursor6CursorRAhj8_EQINtNtCs31agqjrRntl_5alloc3vec3VechEE0Csc6sau5EZUC8_33comprehensive_redefines_odo_tests
FNDA:0,_RNCINvNtCs8M7rtMEmd2k_14copybook_codec7lib_api20decode_file_to_jsonlINtNtNtCs4eoO4cHkFdT_3std2io6cursor6CursorRAhj8_EQINtNtCs31agqjrRntl_5alloc3vec3VechEEs0_0Csc6sau5EZUC8_33comprehensive_redefines_odo_tests
FNDA:0,_RNCINvNtCs8M7rtMEmd2k_14copybook_codec7lib_api20decode_file_to_jsonlINtNtNtCs4eoO4cHkFdT_3std2io6cursor6CursorRAhj8_EQINtNtCs31agqjrRntl_5alloc3vec3VechEEs1_0Csc6sau5EZUC8_33comprehensive_redefines_odo_tests
FNDA:0,_RNCINvNtCs8M7rtMEmd2k_14copybook_codec7lib_api20decode_file_to_jsonlINtNtNtCs4eoO4cHkFdT_3std2io6cursor6CursorRAhj8_EQINtNtCs31agqjrRntl_5alloc3vec3VechEEs2_0Csc6sau5EZUC8_33comprehensive_redefines_odo_tests
FNDA:2,_RNCINvNtCs8M7rtMEmd2k_14copybook_codec7lib_api20decode_file_to_jsonlINtNtNtCs4eoO4cHkFdT_3std2io6cursor6CursorRAhj8_EQINtNtCs31agqjrRntl_5alloc3vec3VechEEs3_0Csc6sau5EZUC8_33comprehensive_redefines_odo_tests
FNDA:0,_RNCINvNtCs8M7rtMEmd2k_14copybook_codec7lib_api20decode_file_to_jsonlINtNtNtCs4eoO4cHkFdT_3std2io6cursor6CursorRAhj8_EQINtNtCs31agqjrRntl_5alloc3vec3VechEEs_0Csc6sau5EZUC8_33comprehensive_redefines_odo_tests
FNDA:0,_RINvNtCs7MLK0KUMdQf_14copybook_codec7lib_api12iter_recordspEB4_
FNDA:0,_RINvNtCs7MLK0KUMdQf_14copybook_codec7lib_api22iter_records_from_filepEB4_
FNDA:0,_RNCINvNtCs7MLK0KUMdQf_14copybook_codec7lib_api22iter_records_from_filepE0B6_
FNDA:0,_RNvMNtCs7MLK0KUMdQf_14copybook_codec7lib_apiNtB2_10RunSummary10error_rate
FNDA:0,_RNvMNtCs7MLK0KUMdQf_14copybook_codec7lib_apiNtB2_10RunSummary10has_errors
FNDA:0,_RNvMNtCs7MLK0KUMdQf_14copybook_codec7lib_apiNtB2_10RunSummary12has_warnings
FNDA:0,_RNvMNtCs7MLK0KUMdQf_14copybook_codec7lib_apiNtB2_10RunSummary12success_rate
FNDA:0,_RNvMNtCs7MLK0KUMdQf_14copybook_codec7lib_apiNtB2_10RunSummary12with_threads
FNDA:0,_RNvMNtCs7MLK0KUMdQf_14copybook_codec7lib_apiNtB2_10RunSummary13is_successful
FNDA:0,_RNvMNtCs7MLK0KUMdQf_14copybook_codec7lib_apiNtB2_10RunSummary13total_records
FNDA:0,_RNvMNtCs7MLK0KUMdQf_14copybook_codec7lib_apiNtB2_10RunSummary18bytes_processed_mb
FNDA:0,_RNvMNtCs7MLK0KUMdQf_14copybook_codec7lib_apiNtB2_10RunSummary21set_peak_memory_bytes
FNDA:0,_RNvMNtCs7MLK0KUMdQf_14copybook_codec7lib_apiNtB2_10RunSummary22set_schema_fingerprint
FNDA:0,_RNvMNtCs7MLK0KUMdQf_14copybook_codec7lib_apiNtB2_10RunSummary23processing_time_seconds
FNDA:0,_RNvMs0_NtCs7MLK0KUMdQf_14copybook_codec7lib_apiINtB5_14RecordIteratorpE6schemaB7_
FNDA:0,_RNvMs0_NtCs7MLK0KUMdQf_14copybook_codec7lib_apiINtB5_14RecordIteratorpE7optionsB7_
FNDA:0,_RNvXININtCs7MLK0KUMdQf_14copybook_codec7lib_apis1_0pEINtB5_14RecordIteratorpENtNtNtNtCshnvtj5zUHGu_4core4iter6traits8iterator8Iterator4nextB7_
FNDA:0,_RNvXs_NtCs7MLK0KUMdQf_14copybook_codec7lib_apiNtB4_10RunSummaryNtNtCshnvtj5zUHGu_4core3fmt7Display3fmt
FNDA:1,_RINvNtCs7MLK0KUMdQf_14copybook_codec7lib_api20decode_file_to_jsonlINtNtNtCs4eoO4cHkFdT_3std2io6cursor6CursorINtNtCs31agqjrRntl_5alloc3vec3VechEEQB1I_EB4_
FNDA:1,_RINvNtCs7MLK0KUMdQf_14copybook_codec7lib_api20encode_jsonl_to_fileINtNtNtCs4eoO4cHkFdT_3std2io6cursor6CursorRShEQINtNtCs31agqjrRntl_5alloc3vec3VechEEB4_
FNDA:1,_RNCINvNtCs7MLK0KUMdQf_14copybook_codec7lib_api20decode_file_to_jsonlINtNtNtCs4eoO4cHkFdT_3std2io6cursor6CursorINtNtCs31agqjrRntl_5alloc3vec3VechEEQB1K_E0B6_
FNDA:0,_RNCINvNtCs7MLK0KUMdQf_14copybook_codec7lib_api20decode_file_to_jsonlINtNtNtCs4eoO4cHkFdT_3std2io6cursor6CursorINtNtCs31agqjrRntl_5alloc3vec3VechEEQB1K_Es0_0B6_
FNDA:0,_RNCINvNtCs7MLK0KUMdQf_14copybook_codec7lib_api20decode_file_to_jsonlINtNtNtCs4eoO4cHkFdT_3std2io6cursor6CursorINtNtCs31agqjrRntl_5alloc3vec3VechEEQB1K_Es1_0B6_
FNDA:0,_RNCINvNtCs7MLK0KUMdQf_14copybook_codec7lib_api20decode_file_to_jsonlINtNtNtCs4eoO4cHkFdT_3std2io6cursor6CursorINtNtCs31agqjrRntl_5alloc3vec3VechEEQB1K_Es2_0B6_
FNDA:1,_RNCINvNtCs7MLK0KUMdQf_14copybook_codec7lib_api20decode_file_to_jsonlINtNtNtCs4eoO4cHkFdT_3std2io6cursor6CursorINtNtCs31agqjrRntl_5alloc3vec3VechEEQB1K_Es3_0B6_
FNDA:0,_RNCINvNtCs7MLK0KUMdQf_14copybook_codec7lib_api20decode_file_to_jsonlINtNtNtCs4eoO4cHkFdT_3std2io6cursor6CursorINtNtCs31agqjrRntl_5alloc3vec3VechEEQB1K_Es_0B6_
FNDA:0,_RNCINvNtCs7MLK0KUMdQf_14copybook_codec7lib_api20encode_jsonl_to_fileINtNtNtCs4eoO4cHkFdT_3std2io6cursor6CursorRShEQINtNtCs31agqjrRntl_5alloc3vec3VechEE0B6_
FNDA:0,_RNCINvNtCs7MLK0KUMdQf_14copybook_codec7lib_api20encode_jsonl_to_fileINtNtNtCs4eoO4cHkFdT_3std2io6cursor6CursorRShEQINtNtCs31agqjrRntl_5alloc3vec3VechEEs0_0B6_
FNDA:0,_RNCINvNtCs7MLK0KUMdQf_14copybook_codec7lib_api20encode_jsonl_to_fileINtNtNtCs4eoO4cHkFdT_3std2io6cursor6CursorRShEQINtNtCs31agqjrRntl_5alloc3vec3VechEEs_0B6_
FNDA:0,_RNCNvNtCs7MLK0KUMdQf_14copybook_codec7lib_api13encode_record0B5_
FNDA:0,_RNCNvNtCs7MLK0KUMdQf_14copybook_codec7lib_api20adjust_field_offsets0B5_
FNDA:0,_RNCNvNtCs7MLK0KUMdQf_14copybook_codec7lib_api22encode_fields_to_bytes0B5_
FNDA:0,_RNCNvNtCs7MLK0KUMdQf_14copybook_codec7lib_api23encode_fields_recursive0B5_
FNDA:4,_RNCNvNtCs7MLK0KUMdQf_14copybook_codec7lib_api25increment_warning_counter0B5_
FNDA:0,_RNCNvNtCs7MLK0KUMdQf_14copybook_codec7lib_api27find_and_read_counter_field0B5_
FNDA:0,_RNCNvNtCs7MLK0KUMdQf_14copybook_codec7lib_api27find_and_read_counter_fields_0B5_
FNDA:1,_RNvMs0_NtCs7MLK0KUMdQf_14copybook_codec7lib_apiINtB5_14RecordIteratorINtNtNtCs4eoO4cHkFdT_3std2io6cursor6CursorINtNtCs31agqjrRntl_5alloc3vec3VechEEE20current_record_indexB7_
FNDA:1,_RNvMs0_NtCs7MLK0KUMdQf_14copybook_codec7lib_apiINtB5_14RecordIteratorINtNtNtCs4eoO4cHkFdT_3std2io6cursor6CursorINtNtCs31agqjrRntl_5alloc3vec3VechEEE3newB7_
FNDA:1,_RNvMs0_NtCs7MLK0KUMdQf_14copybook_codec7lib_apiINtB5_14RecordIteratorINtNtNtCs4eoO4cHkFdT_3std2io6cursor6CursorINtNtCs31agqjrRntl_5alloc3vec3VechEEE6is_eofB7_
FNDA:2,_RNvMNtCs7MLK0KUMdQf_14copybook_codec7lib_apiNtB2_10RunSummary20calculate_throughput
FNDA:2,_RNvMNtCs7MLK0KUMdQf_14copybook_codec7lib_apiNtB2_10RunSummary3new
FNDA:1,_RNvNtCs7MLK0KUMdQf_14copybook_codec7lib_api13decode_record
FNDA:3,_RNvNtCs7MLK0KUMdQf_14copybook_codec7lib_api13encode_record
FNDA:0,_RNvNtCs7MLK0KUMdQf_14copybook_codec7lib_api18find_field_by_path
FNDA:0,_RNvNtCs7MLK0KUMdQf_14copybook_codec7lib_api19process_array_field
FNDA:0,_RNvNtCs7MLK0KUMdQf_14copybook_codec7lib_api19validate_odo_bounds
FNDA:0,_RNvNtCs7MLK0KUMdQf_14copybook_codec7lib_api20adjust_field_offsets
FNDA:3,_RNvNtCs7MLK0KUMdQf_14copybook_codec7lib_api22encode_fields_to_bytes
FNDA:6,_RNvNtCs7MLK0KUMdQf_14copybook_codec7lib_api23encode_fields_recursive
FNDA:2,_RNvNtCs7MLK0KUMdQf_14copybook_codec7lib_api24process_fields_recursive
FNDA:0,_RNvNtCs7MLK0KUMdQf_14copybook_codec7lib_api25decode_scalar_field_value
FNDA:4,_RNvNtCs7MLK0KUMdQf_14copybook_codec7lib_api25increment_warning_counter
FNDA:2,_RNvNtCs7MLK0KUMdQf_14copybook_codec7lib_api26decode_record_with_scratch
FNDA:1,_RNvNtCs7MLK0KUMdQf_14copybook_codec7lib_api27decode_record_with_raw_data
FNDA:0,_RNvNtCs7MLK0KUMdQf_14copybook_codec7lib_api27find_and_read_counter_field
FNDA:1,_RNvNtCs7MLK0KUMdQf_14copybook_codec7lib_api32format_zoned_decimal_with_digits
FNDA:0,_RNvNtCs7MLK0KUMdQf_14copybook_codec7lib_api32process_array_field_with_scratch
FNDA:2,_RNvNtCs7MLK0KUMdQf_14copybook_codec7lib_api34decode_record_with_scratch_and_raw
FNDA:4,_RNvNtCs7MLK0KUMdQf_14copybook_codec7lib_api37process_fields_recursive_with_scratch
FNDA:1,_RNvNtNtCs7MLK0KUMdQf_14copybook_codec7lib_api5testss_18test_decode_record
FNDA:1,_RNvNtNtCs7MLK0KUMdQf_14copybook_codec7lib_api5testss_18test_encode_record
FNDA:1,_RNvNtNtCs7MLK0KUMdQf_14copybook_codec7lib_api5testss_20test_record_iterator
FNDA:1,_RNvNtNtCs7MLK0KUMdQf_14copybook_codec7lib_api5testss_25test_decode_file_to_jsonl
FNDA:1,_RNvNtNtCs7MLK0KUMdQf_14copybook_codec7lib_api5testss_25test_encode_jsonl_to_file
FNDA:0,_RINvNtCs8M7rtMEmd2k_14copybook_codec7lib_api20decode_file_to_jsonlINtNtNtCs4eoO4cHkFdT_3std2io6cursor6CursorRINtNtCs31agqjrRntl_5alloc3vec3VechEEQB1J_ECsfrfqSxIOjnf_41enterprise_mainframe_production_scenarios
FNDA:0,_RNCINvNtCs8M7rtMEmd2k_14copybook_codec7lib_api20decode_file_to_jsonlINtNtNtCs4eoO4cHkFdT_3std2io6cursor6CursorRINtNtCs31agqjrRntl_5alloc3vec3VechEEQB1L_E0CsfrfqSxIOjnf_41enterprise_mainframe_production_scenarios
FNDA:0,_RNCINvNtCs8M7rtMEmd2k_14copybook_codec7lib_api20decode_file_to_jsonlINtNtNtCs4eoO4cHkFdT_3std2io6cursor6CursorRINtNtCs31agqjrRntl_5alloc3vec3VechEEQB1L_Es0_0CsfrfqSxIOjnf_41enterprise_mainframe_production_scenarios
FNDA:0,_RNCINvNtCs8M7rtMEmd2k_14copybook_codec7lib_api20decode_file_to_jsonlINtNtNtCs4eoO4cHkFdT_3std2io6cursor6CursorRINtNtCs31agqjrRntl_5alloc3vec3VechEEQB1L_Es1_0CsfrfqSxIOjnf_41enterprise_mainframe_production_scenarios
FNDA:0,_RNCINvNtCs8M7rtMEmd2k_14copybook_codec7lib_api20decode_file_to_jsonlINtNtNtCs4eoO4cHkFdT_3std2io6cursor6CursorRINtNtCs31agqjrRntl_5alloc3vec3VechEEQB1L_Es2_0CsfrfqSxIOjnf_41enterprise_mainframe_production_scenarios
FNDA:0,_RNCINvNtCs8M7rtMEmd2k_14copybook_codec7lib_api20decode_file_to_jsonlINtNtNtCs4eoO4cHkFdT_3std2io6cursor6CursorRINtNtCs31agqjrRntl_5alloc3vec3VechEEQB1L_Es3_0CsfrfqSxIOjnf_41enterprise_mainframe_production_scenarios
FNDA:0,_RNCINvNtCs8M7rtMEmd2k_14copybook_codec7lib_api20decode_file_to_jsonlINtNtNtCs4eoO4cHkFdT_3std2io6cursor6CursorRINtNtCs31agqjrRntl_5alloc3vec3VechEEQB1L_Es_0CsfrfqSxIOjnf_41enterprise_mainframe_production_scenarios
FNDA:1,_RINvNtCs8M7rtMEmd2k_14copybook_codec7lib_api20decode_file_to_jsonlINtNtNtCs4eoO4cHkFdT_3std2io6cursor6CursorRINtNtCs31agqjrRntl_5alloc3vec3VechEEQB1J_ECsaBuigDW70JO_15golden_fixtures
FNDA:1,_RINvNtCs8M7rtMEmd2k_14copybook_codec7lib_api20encode_jsonl_to_fileINtNtNtCs4eoO4cHkFdT_3std2io6cursor6CursorRShEQINtNtCs31agqjrRntl_5alloc3vec3VechEECsaBuigDW70JO_15golden_fixtures
FNDA:1,_RNCINvNtCs8M7rtMEmd2k_14copybook_codec7lib_api20decode_file_to_jsonlINtNtNtCs4eoO4cHkFdT_3std2io6cursor6CursorRINtNtCs31agqjrRntl_5alloc3vec3VechEEQB1L_E0CsaBuigDW70JO_15golden_fixtures
FNDA:0,_RNCINvNtCs8M7rtMEmd2k_14copybook_codec7lib_api20decode_file_to_jsonlINtNtNtCs4eoO4cHkFdT_3std2io6cursor6CursorRINtNtCs31agqjrRntl_5alloc3vec3VechEEQB1L_Es0_0CsaBuigDW70JO_15golden_fixtures
FNDA:0,_RNCINvNtCs8M7rtMEmd2k_14copybook_codec7lib_api20decode_file_to_jsonlINtNtNtCs4eoO4cHkFdT_3std2io6cursor6CursorRINtNtCs31agqjrRntl_5alloc3vec3VechEEQB1L_Es1_0CsaBuigDW70JO_15golden_fixtures
FNDA:0,_RNCINvNtCs8M7rtMEmd2k_14copybook_codec7lib_api20decode_file_to_jsonlINtNtNtCs4eoO4cHkFdT_3std2io6cursor6CursorRINtNtCs31agqjrRntl_5alloc3vec3VechEEQB1L_Es2_0CsaBuigDW70JO_15golden_fixtures
FNDA:1,_RNCINvNtCs8M7rtMEmd2k_14copybook_codec7lib_api20decode_file_to_jsonlINtNtNtCs4eoO4cHkFdT_3std2io6cursor6CursorRINtNtCs31agqjrRntl_5alloc3vec3VechEEQB1L_Es3_0CsaBuigDW70JO_15golden_fixtures
FNDA:0,_RNCINvNtCs8M7rtMEmd2k_14copybook_codec7lib_api20decode_file_to_jsonlINtNtNtCs4eoO4cHkFdT_3std2io6cursor6CursorRINtNtCs31agqjrRntl_5alloc3vec3VechEEQB1L_Es_0CsaBuigDW70JO_15golden_fixtures
FNDA:0,_RNCINvNtCs8M7rtMEmd2k_14copybook_codec7lib_api20encode_jsonl_to_fileINtNtNtCs4eoO4cHkFdT_3std2io6cursor6CursorRShEQINtNtCs31agqjrRntl_5alloc3vec3VechEE0CsaBuigDW70JO_15golden_fixtures
FNDA:0,_RNCINvNtCs8M7rtMEmd2k_14copybook_codec7lib_api20encode_jsonl_to_fileINtNtNtCs4eoO4cHkFdT_3std2io6cursor6CursorRShEQINtNtCs31agqjrRntl_5alloc3vec3VechEEs0_0CsaBuigDW70JO_15golden_fixtures
FNDA:0,_RNCINvNtCs8M7rtMEmd2k_14copybook_codec7lib_api20encode_jsonl_to_fileINtNtNtCs4eoO4cHkFdT_3std2io6cursor6CursorRShEQINtNtCs31agqjrRntl_5alloc3vec3VechEEs_0CsaBuigDW70JO_15golden_fixtures
FNDA:3,_RINvNtCs8M7rtMEmd2k_14copybook_codec7lib_api20decode_file_to_jsonlINtNtNtCs4eoO4cHkFdT_3std2io6cursor6CursorRINtNtCs31agqjrRntl_5alloc3vec3VechEEQB1J_ECsg7HvolesBgV_29integration_memory_management
FNDA:3,_RNCINvNtCs8M7rtMEmd2k_14copybook_codec7lib_api20decode_file_to_jsonlINtNtNtCs4eoO4cHkFdT_3std2io6cursor6CursorRINtNtCs31agqjrRntl_5alloc3vec3VechEEQB1L_E0Csg7HvolesBgV_29integration_memory_management
FNDA:0,_RNCINvNtCs8M7rtMEmd2k_14copybook_codec7lib_api20decode_file_to_jsonlINtNtNtCs4eoO4cHkFdT_3std2io6cursor6CursorRINtNtCs31agqjrRntl_5alloc3vec3VechEEQB1L_Es0_0Csg7HvolesBgV_29integration_memory_management
FNDA:0,_RNCINvNtCs8M7rtMEmd2k_14copybook_codec7lib_api20decode_file_to_jsonlINtNtNtCs4eoO4cHkFdT_3std2io6cursor6CursorRINtNtCs31agqjrRntl_5alloc3vec3VechEEQB1L_Es1_0Csg7HvolesBgV_29integration_memory_management
FNDA:0,_RNCINvNtCs8M7rtMEmd2k_14copybook_codec7lib_api20decode_file_to_jsonlINtNtNtCs4eoO4cHkFdT_3std2io6cursor6CursorRINtNtCs31agqjrRntl_5alloc3vec3VechEEQB1L_Es2_0Csg7HvolesBgV_29integration_memory_management
FNDA:3,_RNCINvNtCs8M7rtMEmd2k_14copybook_codec7lib_api20decode_file_to_jsonlINtNtNtCs4eoO4cHkFdT_3std2io6cursor6CursorRINtNtCs31agqjrRntl_5alloc3vec3VechEEQB1L_Es3_0Csg7HvolesBgV_29integration_memory_management
FNDA:0,_RNCINvNtCs8M7rtMEmd2k_14copybook_codec7lib_api20decode_file_to_jsonlINtNtNtCs4eoO4cHkFdT_3std2io6cursor6CursorRINtNtCs31agqjrRntl_5alloc3vec3VechEEQB1L_Es_0Csg7HvolesBgV_29integration_memory_management
FNDA:1,_RINvNtCs8M7rtMEmd2k_14copybook_codec7lib_api20decode_file_to_jsonlINtNtNtCs4eoO4cHkFdT_3std2io6cursor6CursorRAhj1c_EQINtNtCs31agqjrRntl_5alloc3vec3VechEECskPdd2mul4kv_25integration_odo_redefines
FNDA:1,_RINvNtCs8M7rtMEmd2k_14copybook_codec7lib_api20decode_file_to_jsonlINtNtNtCs4eoO4cHkFdT_3std2io6cursor6CursorRAhj23_EQINtNtCs31agqjrRntl_5alloc3vec3VechEECskPdd2mul4kv_25integration_odo_redefines
FNDA:2,_RINvNtCs8M7rtMEmd2k_14copybook_codec7lib_api20encode_jsonl_to_fileINtNtNtCs4eoO4cHkFdT_3std2io6cursor6CursorRShEQINtNtCs31agqjrRntl_5alloc3vec3VechEECskPdd2mul4kv_25integration_odo_redefines
FNDA:1,_RNCINvNtCs8M7rtMEmd2k_14copybook_codec7lib_api20decode_file_to_jsonlINtNtNtCs4eoO4cHkFdT_3std2io6cursor6CursorRAhj1c_EQINtNtCs31agqjrRntl_5alloc3vec3VechEE0CskPdd2mul4kv_25integration_odo_redefines
FNDA:0,_RNCINvNtCs8M7rtMEmd2k_14copybook_codec7lib_api20decode_file_to_jsonlINtNtNtCs4eoO4cHkFdT_3std2io6cursor6CursorRAhj1c_EQINtNtCs31agqjrRntl_5alloc3vec3VechEEs0_0CskPdd2mul4kv_25integration_odo_redefines
FNDA:0,_RNCINvNtCs8M7rtMEmd2k_14copybook_codec7lib_api20decode_file_to_jsonlINtNtNtCs4eoO4cHkFdT_3std2io6cursor6CursorRAhj1c_EQINtNtCs31agqjrRntl_5alloc3vec3VechEEs1_0CskPdd2mul4kv_25integration_odo_redefines
FNDA:0,_RNCINvNtCs8M7rtMEmd2k_14copybook_codec7lib_api20decode_file_to_jsonlINtNtNtCs4eoO4cHkFdT_3std2io6cursor6CursorRAhj1c_EQINtNtCs31agqjrRntl_5alloc3vec3VechEEs2_0CskPdd2mul4kv_25integration_odo_redefines
FNDA:0,_RNCINvNtCs8M7rtMEmd2k_14copybook_codec7lib_api20decode_file_to_jsonlINtNtNtCs4eoO4cHkFdT_3std2io6cursor6CursorRAhj1c_EQINtNtCs31agqjrRntl_5alloc3vec3VechEEs3_0CskPdd2mul4kv_25integration_odo_redefines
FNDA:0,_RNCINvNtCs8M7rtMEmd2k_14copybook_codec7lib_api20decode_file_to_jsonlINtNtNtCs4eoO4cHkFdT_3std2io6cursor6CursorRAhj1c_EQINtNtCs31agqjrRntl_5alloc3vec3VechEEs_0CskPdd2mul4kv_25integration_odo_redefines
FNDA:1,_RNCINvNtCs8M7rtMEmd2k_14copybook_codec7lib_api20decode_file_to_jsonlINtNtNtCs4eoO4cHkFdT_3std2io6cursor6CursorRAhj23_EQINtNtCs31agqjrRntl_5alloc3vec3VechEE0CskPdd2mul4kv_25integration_odo_redefines
FNDA:0,_RNCINvNtCs8M7rtMEmd2k_14copybook_codec7lib_api20decode_file_to_jsonlINtNtNtCs4eoO4cHkFdT_3std2io6cursor6CursorRAhj23_EQINtNtCs31agqjrRntl_5alloc3vec3VechEEs0_0CskPdd2mul4kv_25integration_odo_redefines
FNDA:0,_RNCINvNtCs8M7rtMEmd2k_14copybook_codec7lib_api20decode_file_to_jsonlINtNtNtCs4eoO4cHkFdT_3std2io6cursor6CursorRAhj23_EQINtNtCs31agqjrRntl_5alloc3vec3VechEEs1_0CskPdd2mul4kv_25integration_odo_redefines
FNDA:0,_RNCINvNtCs8M7rtMEmd2k_14copybook_codec7lib_api20decode_file_to_jsonlINtNtNtCs4eoO4cHkFdT_3std2io6cursor6CursorRAhj23_EQINtNtCs31agqjrRntl_5alloc3vec3VechEEs2_0CskPdd2mul4kv_25integration_odo_redefines
FNDA:0,_RNCINvNtCs8M7rtMEmd2k_14copybook_codec7lib_api20decode_file_to_jsonlINtNtNtCs4eoO4cHkFdT_3std2io6cursor6CursorRAhj23_EQINtNtCs31agqjrRntl_5alloc3vec3VechEEs3_0CskPdd2mul4kv_25integration_odo_redefines
FNDA:0,_RNCINvNtCs8M7rtMEmd2k_14copybook_codec7lib_api20decode_file_to_jsonlINtNtNtCs4eoO4cHkFdT_3std2io6cursor6CursorRAhj23_EQINtNtCs31agqjrRntl_5alloc3vec3VechEEs_0CskPdd2mul4kv_25integration_odo_redefines
FNDA:0,_RNCINvNtCs8M7rtMEmd2k_14copybook_codec7lib_api20encode_jsonl_to_fileINtNtNtCs4eoO4cHkFdT_3std2io6cursor6CursorRShEQINtNtCs31agqjrRntl_5alloc3vec3VechEE0CskPdd2mul4kv_25integration_odo_redefines
FNDA:0,_RNCINvNtCs8M7rtMEmd2k_14copybook_codec7lib_api20encode_jsonl_to_fileINtNtNtCs4eoO4cHkFdT_3std2io6cursor6CursorRShEQINtNtCs31agqjrRntl_5alloc3vec3VechEEs0_0CskPdd2mul4kv_25integration_odo_redefines
FNDA:0,_RNCINvNtCs8M7rtMEmd2k_14copybook_codec7lib_api20encode_jsonl_to_fileINtNtNtCs4eoO4cHkFdT_3std2io6cursor6CursorRShEQINtNtCs31agqjrRntl_5alloc3vec3VechEEs_0CskPdd2mul4kv_25integration_odo_redefines
FNDA:3,_RINvNtCs8M7rtMEmd2k_14copybook_codec7lib_api20decode_file_to_jsonlINtNtNtCs4eoO4cHkFdT_3std2io6cursor6CursorRAhj2_EQINtNtCs31agqjrRntl_5alloc3vec3VechEECslw1aZpohcdE_21numeric_comprehensive
FNDA:5,_RINvNtCs8M7rtMEmd2k_14copybook_codec7lib_api20decode_file_to_jsonlINtNtNtCs4eoO4cHkFdT_3std2io6cursor6CursorRAhj3_EQINtNtCs31agqjrRntl_5alloc3vec3VechEECslw1aZpohcdE_21numeric_comprehensive
FNDA:1,_RINvNtCs8M7rtMEmd2k_14copybook_codec7lib_api20decode_file_to_jsonlINtNtNtCs4eoO4cHkFdT_3std2io6cursor6CursorRAhj4_EQINtNtCs31agqjrRntl_5alloc3vec3VechEECslw1aZpohcdE_21numeric_comprehensive
FNDA:1,_RINvNtCs8M7rtMEmd2k_14copybook_codec7lib_api20decode_file_to_jsonlINtNtNtCs4eoO4cHkFdT_3std2io6cursor6CursorRAhj5_EQINtNtCs31agqjrRntl_5alloc3vec3VechEECslw1aZpohcdE_21numeric_comprehensive
FNDA:1,_RINvNtCs8M7rtMEmd2k_14copybook_codec7lib_api20decode_file_to_jsonlINtNtNtCs4eoO4cHkFdT_3std2io6cursor6CursorRAhj8_EQINtNtCs31agqjrRntl_5alloc3vec3VechEECslw1aZpohcdE_21numeric_comprehensive
FNDA:2,_RINvNtCs8M7rtMEmd2k_14copybook_codec7lib_api20decode_file_to_jsonlINtNtNtCs4eoO4cHkFdT_3std2io6cursor6CursorRAhjb_EQINtNtCs31agqjrRntl_5alloc3vec3VechEECslw1aZpohcdE_21numeric_comprehensive
FNDA:3,_RNCINvNtCs8M7rtMEmd2k_14copybook_codec7lib_api20decode_file_to_jsonlINtNtNtCs4eoO4cHkFdT_3std2io6cursor6CursorRAhj2_EQINtNtCs31agqjrRntl_5alloc3vec3VechEE0Cslw1aZpohcdE_21numeric_comprehensive
FNDA:0,_RNCINvNtCs8M7rtMEmd2k_14copybook_codec7lib_api20decode_file_to_jsonlINtNtNtCs4eoO4cHkFdT_3std2io6cursor6CursorRAhj2_EQINtNtCs31agqjrRntl_5alloc3vec3VechEEs0_0Cslw1aZpohcdE_21numeric_comprehensive
FNDA:0,_RNCINvNtCs8M7rtMEmd2k_14copybook_codec7lib_api20decode_file_to_jsonlINtNtNtCs4eoO4cHkFdT_3std2io6cursor6CursorRAhj2_EQINtNtCs31agqjrRntl_5alloc3vec3VechEEs1_0Cslw1aZpohcdE_21numeric_comprehensive
FNDA:0,_RNCINvNtCs8M7rtMEmd2k_14copybook_codec7lib_api20decode_file_to_jsonlINtNtNtCs4eoO4cHkFdT_3std2io6cursor6CursorRAhj2_EQINtNtCs31agqjrRntl_5alloc3vec3VechEEs2_0Cslw1aZpohcdE_21numeric_comprehensive
FNDA:3,_RNCINvNtCs8M7rtMEmd2k_14copybook_codec7lib_api20decode_file_to_jsonlINtNtNtCs4eoO4cHkFdT_3std2io6cursor6CursorRAhj2_EQINtNtCs31agqjrRntl_5alloc3vec3VechEEs3_0Cslw1aZpohcdE_21numeric_comprehensive
FNDA:0,_RNCINvNtCs8M7rtMEmd2k_14copybook_codec7lib_api20decode_file_to_jsonlINtNtNtCs4eoO4cHkFdT_3std2io6cursor6CursorRAhj2_EQINtNtCs31agqjrRntl_5alloc3vec3VechEEs_0Cslw1aZpohcdE_21numeric_comprehensive
FNDA:5,_RNCINvNtCs8M7rtMEmd2k_14copybook_codec7lib_api20decode_file_to_jsonlINtNtNtCs4eoO4cHkFdT_3std2io6cursor6CursorRAhj3_EQINtNtCs31agqjrRntl_5alloc3vec3VechEE0Cslw1aZpohcdE_21numeric_comprehensive
FNDA:0,_RNCINvNtCs8M7rtMEmd2k_14copybook_codec7lib_api20decode_file_to_jsonlINtNtNtCs4eoO4cHkFdT_3std2io6cursor6CursorRAhj3_EQINtNtCs31agqjrRntl_5alloc3vec3VechEEs0_0Cslw1aZpohcdE_21numeric_comprehensive
FNDA:0,_RNCINvNtCs8M7rtMEmd2k_14copybook_codec7lib_api20decode_file_to_jsonlINtNtNtCs4eoO4cHkFdT_3std2io6cursor6CursorRAhj3_EQINtNtCs31agqjrRntl_5alloc3vec3VechEEs1_0Cslw1aZpohcdE_21numeric_comprehensive
FNDA:0,_RNCINvNtCs8M7rtMEmd2k_14copybook_codec7lib_api20decode_file_to_jsonlINtNtNtCs4eoO4cHkFdT_3std2io6cursor6CursorRAhj3_EQINtNtCs31agqjrRntl_5alloc3vec3VechEEs2_0Cslw1aZpohcdE_21numeric_comprehensive
FNDA:5,_RNCINvNtCs8M7rtMEmd2k_14copybook_codec7lib_api20decode_file_to_jsonlINtNtNtCs4eoO4cHkFdT_3std2io6cursor6CursorRAhj3_EQINtNtCs31agqjrRntl_5alloc3vec3VechEEs3_0Cslw1aZpohcdE_21numeric_comprehensive
FNDA:0,_RNCINvNtCs8M7rtMEmd2k_14copybook_codec7lib_api20decode_file_to_jsonlINtNtNtCs4eoO4cHkFdT_3std2io6cursor6CursorRAhj3_EQINtNtCs31agqjrRntl_5alloc3vec3VechEEs_0Cslw1aZpohcdE_21numeric_comprehensive
FNDA:1,_RNCINvNtCs8M7rtMEmd2k_14copybook_codec7lib_api20decode_file_to_jsonlINtNtNtCs4eoO4cHkFdT_3std2io6cursor6CursorRAhj4_EQINtNtCs31agqjrRntl_5alloc3vec3VechEE0Cslw1aZpohcdE_21numeric_comprehensive
FNDA:0,_RNCINvNtCs8M7rtMEmd2k_14copybook_codec7lib_api20decode_file_to_jsonlINtNtNtCs4eoO4cHkFdT_3std2io6cursor6CursorRAhj4_EQINtNtCs31agqjrRntl_5alloc3vec3VechEEs0_0Cslw1aZpohcdE_21numeric_comprehensive
FNDA:0,_RNCINvNtCs8M7rtMEmd2k_14copybook_codec7lib_api20decode_file_to_jsonlINtNtNtCs4eoO4cHkFdT_3std2io6cursor6CursorRAhj4_EQINtNtCs31agqjrRntl_5alloc3vec3VechEEs1_0Cslw1aZpohcdE_21numeric_comprehensive
FNDA:0,_RNCINvNtCs8M7rtMEmd2k_14copybook_codec7lib_api20decode_file_to_jsonlINtNtNtCs4eoO4cHkFdT_3std2io6cursor6CursorRAhj4_EQINtNtCs31agqjrRntl_5alloc3vec3VechEEs2_0Cslw1aZpohcdE_21numeric_comprehensive
FNDA:1,_RNCINvNtCs8M7rtMEmd2k_14copybook_codec7lib_api20decode_file_to_jsonlINtNtNtCs4eoO4cHkFdT_3std2io6cursor6CursorRAhj4_EQINtNtCs31agqjrRntl_5alloc3vec3VechEEs3_0Cslw1aZpohcdE_21numeric_comprehensive
FNDA:0,_RNCINvNtCs8M7rtMEmd2k_14copybook_codec7lib_api20decode_file_to_jsonlINtNtNtCs4eoO4cHkFdT_3std2io6cursor6CursorRAhj4_EQINtNtCs31agqjrRntl_5alloc3vec3VechEEs_0Cslw1aZpohcdE_21numeric_comprehensive
FNDA:1,_RNCINvNtCs8M7rtMEmd2k_14copybook_codec7lib_api20decode_file_to_jsonlINtNtNtCs4eoO4cHkFdT_3std2io6cursor6CursorRAhj5_EQINtNtCs31agqjrRntl_5alloc3vec3VechEE0Cslw1aZpohcdE_21numeric_comprehensive
FNDA:0,_RNCINvNtCs8M7rtMEmd2k_14copybook_codec7lib_api20decode_file_to_jsonlINtNtNtCs4eoO4cHkFdT_3std2io6cursor6CursorRAhj5_EQINtNtCs31agqjrRntl_5alloc3vec3VechEEs0_0Cslw1aZpohcdE_21numeric_comprehensive
FNDA:0,_RNCINvNtCs8M7rtMEmd2k_14copybook_codec7lib_api20decode_file_to_jsonlINtNtNtCs4eoO4cHkFdT_3std2io6cursor6CursorRAhj5_EQINtNtCs31agqjrRntl_5alloc3vec3VechEEs1_0Cslw1aZpohcdE_21numeric_comprehensive
FNDA:0,_RNCINvNtCs8M7rtMEmd2k_14copybook_codec7lib_api20decode_file_to_jsonlINtNtNtCs4eoO4cHkFdT_3std2io6cursor6CursorRAhj5_EQINtNtCs31agqjrRntl_5alloc3vec3VechEEs2_0Cslw1aZpohcdE_21numeric_comprehensive
FNDA:1,_RNCINvNtCs8M7rtMEmd2k_14copybook_codec7lib_api20decode_file_to_jsonlINtNtNtCs4eoO4cHkFdT_3std2io6cursor6CursorRAhj5_EQINtNtCs31agqjrRntl_5alloc3vec3VechEEs3_0Cslw1aZpohcdE_21numeric_comprehensive
FNDA:0,_RNCINvNtCs8M7rtMEmd2k_14copybook_codec7lib_api20decode_file_to_jsonlINtNtNtCs4eoO4cHkFdT_3std2io6cursor6CursorRAhj5_EQINtNtCs31agqjrRntl_5alloc3vec3VechEEs_0Cslw1aZpohcdE_21numeric_comprehensive
FNDA:1,_RNCINvNtCs8M7rtMEmd2k_14copybook_codec7lib_api20decode_file_to_jsonlINtNtNtCs4eoO4cHkFdT_3std2io6cursor6CursorRAhj8_EQINtNtCs31agqjrRntl_5alloc3vec3VechEE0Cslw1aZpohcdE_21numeric_comprehensive
FNDA:0,_RNCINvNtCs8M7rtMEmd2k_14copybook_codec7lib_api20decode_file_to_jsonlINtNtNtCs4eoO4cHkFdT_3std2io6cursor6CursorRAhj8_EQINtNtCs31agqjrRntl_5alloc3vec3VechEEs0_0Cslw1aZpohcdE_21numeric_comprehensive
FNDA:0,_RNCINvNtCs8M7rtMEmd2k_14copybook_codec7lib_api20decode_file_to_jsonlINtNtNtCs4eoO4cHkFdT_3std2io6cursor6CursorRAhj8_EQINtNtCs31agqjrRntl_5alloc3vec3VechEEs1_0Cslw1aZpohcdE_21numeric_comprehensive
FNDA:0,_RNCINvNtCs8M7rtMEmd2k_14copybook_codec7lib_api20decode_file_to_jsonlINtNtNtCs4eoO4cHkFdT_3std2io6cursor6CursorRAhj8_EQINtNtCs31agqjrRntl_5alloc3vec3VechEEs2_0Cslw1aZpohcdE_21numeric_comprehensive
FNDA:1,_RNCINvNtCs8M7rtMEmd2k_14copybook_codec7lib_api20decode_file_to_jsonlINtNtNtCs4eoO4cHkFdT_3std2io6cursor6CursorRAhj8_EQINtNtCs31agqjrRntl_5alloc3vec3VechEEs3_0Cslw1aZpohcdE_21numeric_comprehensive
FNDA:0,_RNCINvNtCs8M7rtMEmd2k_14copybook_codec7lib_api20decode_file_to_jsonlINtNtNtCs4eoO4cHkFdT_3std2io6cursor6CursorRAhj8_EQINtNtCs31agqjrRntl_5alloc3vec3VechEEs_0Cslw1aZpohcdE_21numeric_comprehensive
FNDA:2,_RNCINvNtCs8M7rtMEmd2k_14copybook_codec7lib_api20decode_file_to_jsonlINtNtNtCs4eoO4cHkFdT_3std2io6cursor6CursorRAhjb_EQINtNtCs31agqjrRntl_5alloc3vec3VechEE0Cslw1aZpohcdE_21numeric_comprehensive
FNDA:0,_RNCINvNtCs8M7rtMEmd2k_14copybook_codec7lib_api20decode_file_to_jsonlINtNtNtCs4eoO4cHkFdT_3std2io6cursor6CursorRAhjb_EQINtNtCs31agqjrRntl_5alloc3vec3VechEEs0_0Cslw1aZpohcdE_21numeric_comprehensive
FNDA:0,_RNCINvNtCs8M7rtMEmd2k_14copybook_codec7lib_api20decode_file_to_jsonlINtNtNtCs4eoO4cHkFdT_3std2io6cursor6CursorRAhjb_EQINtNtCs31agqjrRntl_5alloc3vec3VechEEs1_0Cslw1aZpohcdE_21numeric_comprehensive
FNDA:0,_RNCINvNtCs8M7rtMEmd2k_14copybook_codec7lib_api20decode_file_to_jsonlINtNtNtCs4eoO4cHkFdT_3std2io6cursor6CursorRAhjb_EQINtNtCs31agqjrRntl_5alloc3vec3VechEEs2_0Cslw1aZpohcdE_21numeric_comprehensive
FNDA:2,_RNCINvNtCs8M7rtMEmd2k_14copybook_codec7lib_api20decode_file_to_jsonlINtNtNtCs4eoO4cHkFdT_3std2io6cursor6CursorRAhjb_EQINtNtCs31agqjrRntl_5alloc3vec3VechEEs3_0Cslw1aZpohcdE_21numeric_comprehensive
FNDA:0,_RNCINvNtCs8M7rtMEmd2k_14copybook_codec7lib_api20decode_file_to_jsonlINtNtNtCs4eoO4cHkFdT_3std2io6cursor6CursorRAhjb_EQINtNtCs31agqjrRntl_5alloc3vec3VechEEs_0Cslw1aZpohcdE_21numeric_comprehensive
FNDA:1,_RINvNtCs8M7rtMEmd2k_14copybook_codec7lib_api20decode_file_to_jsonlINtNtNtCs4eoO4cHkFdT_3std2io6cursor6CursorRAhj17_EQINtNtCs31agqjrRntl_5alloc3vec3VechEECs39nnvYeCEEq_17odo_comprehensive
FNDA:1,_RINvNtCs8M7rtMEmd2k_14copybook_codec7lib_api20decode_file_to_jsonlINtNtNtCs4eoO4cHkFdT_3std2io6cursor6CursorRAhj21_EQINtNtCs31agqjrRntl_5alloc3vec3VechEECs39nnvYeCEEq_17odo_comprehensive
FNDA:2,_RINvNtCs8M7rtMEmd2k_14copybook_codec7lib_api20decode_file_to_jsonlINtNtNtCs4eoO4cHkFdT_3std2io6cursor6CursorRAhj35_EQINtNtCs31agqjrRntl_5alloc3vec3VechEECs39nnvYeCEEq_17odo_comprehensive
FNDA:1,_RINvNtCs8M7rtMEmd2k_14copybook_codec7lib_api20decode_file_to_jsonlINtNtNtCs4eoO4cHkFdT_3std2io6cursor6CursorRAhj3_EQINtNtCs31agqjrRntl_5alloc3vec3VechEECs39nnvYeCEEq_17odo_comprehensive
FNDA:1,_RINvNtCs8M7rtMEmd2k_14copybook_codec7lib_api20decode_file_to_jsonlINtNtNtCs4eoO4cHkFdT_3std2io6cursor6CursorRINtNtCs31agqjrRntl_5alloc3vec3VechEEQB1J_ECs39nnvYeCEEq_17odo_comprehensive
FNDA:1,_RINvNtCs8M7rtMEmd2k_14copybook_codec7lib_api20decode_file_to_jsonlINtNtNtCs4eoO4cHkFdT_3std2io6cursor6CursorRShEQINtNtCs31agqjrRntl_5alloc3vec3VechEECs39nnvYeCEEq_17odo_comprehensive
FNDA:2,_RINvNtCs8M7rtMEmd2k_14copybook_codec7lib_api20encode_jsonl_to_fileINtNtNtCs4eoO4cHkFdT_3std2io6cursor6CursorRShEQINtNtCs31agqjrRntl_5alloc3vec3VechEECs39nnvYeCEEq_17odo_comprehensive
FNDA:1,_RNCINvNtCs8M7rtMEmd2k_14copybook_codec7lib_api20decode_file_to_jsonlINtNtNtCs4eoO4cHkFdT_3std2io6cursor6CursorRAhj17_EQINtNtCs31agqjrRntl_5alloc3vec3VechEE0Cs39nnvYeCEEq_17odo_comprehensive
FNDA:0,_RNCINvNtCs8M7rtMEmd2k_14copybook_codec7lib_api20decode_file_to_jsonlINtNtNtCs4eoO4cHkFdT_3std2io6cursor6CursorRAhj17_EQINtNtCs31agqjrRntl_5alloc3vec3VechEEs0_0Cs39nnvYeCEEq_17odo_comprehensive
FNDA:0,_RNCINvNtCs8M7rtMEmd2k_14copybook_codec7lib_api20decode_file_to_jsonlINtNtNtCs4eoO4cHkFdT_3std2io6cursor6CursorRAhj17_EQINtNtCs31agqjrRntl_5alloc3vec3VechEEs1_0Cs39nnvYeCEEq_17odo_comprehensive
FNDA:0,_RNCINvNtCs8M7rtMEmd2k_14copybook_codec7lib_api20decode_file_to_jsonlINtNtNtCs4eoO4cHkFdT_3std2io6cursor6CursorRAhj17_EQINtNtCs31agqjrRntl_5alloc3vec3VechEEs2_0Cs39nnvYeCEEq_17odo_comprehensive
FNDA:0,_RNCINvNtCs8M7rtMEmd2k_14copybook_codec7lib_api20decode_file_to_jsonlINtNtNtCs4eoO4cHkFdT_3std2io6cursor6CursorRAhj17_EQINtNtCs31agqjrRntl_5alloc3vec3VechEEs3_0Cs39nnvYeCEEq_17odo_comprehensive
FNDA:0,_RNCINvNtCs8M7rtMEmd2k_14copybook_codec7lib_api20decode_file_to_jsonlINtNtNtCs4eoO4cHkFdT_3std2io6cursor6CursorRAhj17_EQINtNtCs31agqjrRntl_5alloc3vec3VechEEs_0Cs39nnvYeCEEq_17odo_comprehensive
FNDA:1,_RNCINvNtCs8M7rtMEmd2k_14copybook_codec7lib_api20decode_file_to_jsonlINtNtNtCs4eoO4cHkFdT_3std2io6cursor6CursorRAhj21_EQINtNtCs31agqjrRntl_5alloc3vec3VechEE0Cs39nnvYeCEEq_17odo_comprehensive
FNDA:0,_RNCINvNtCs8M7rtMEmd2k_14copybook_codec7lib_api20decode_file_to_jsonlINtNtNtCs4eoO4cHkFdT_3std2io6cursor6CursorRAhj21_EQINtNtCs31agqjrRntl_5alloc3vec3VechEEs0_0Cs39nnvYeCEEq_17odo_comprehensive
FNDA:0,_RNCINvNtCs8M7rtMEmd2k_14copybook_codec7lib_api20decode_file_to_jsonlINtNtNtCs4eoO4cHkFdT_3std2io6cursor6CursorRAhj21_EQINtNtCs31agqjrRntl_5alloc3vec3VechEEs1_0Cs39nnvYeCEEq_17odo_comprehensive
FNDA:0,_RNCINvNtCs8M7rtMEmd2k_14copybook_codec7lib_api20decode_file_to_jsonlINtNtNtCs4eoO4cHkFdT_3std2io6cursor6CursorRAhj21_EQINtNtCs31agqjrRntl_5alloc3vec3VechEEs2_0Cs39nnvYeCEEq_17odo_comprehensive
FNDA:0,_RNCINvNtCs8M7rtMEmd2k_14copybook_codec7lib_api20decode_file_to_jsonlINtNtNtCs4eoO4cHkFdT_3std2io6cursor6CursorRAhj21_EQINtNtCs31agqjrRntl_5alloc3vec3VechEEs3_0Cs39nnvYeCEEq_17odo_comprehensive
FNDA:0,_RNCINvNtCs8M7rtMEmd2k_14copybook_codec7lib_api20decode_file_to_jsonlINtNtNtCs4eoO4cHkFdT_3std2io6cursor6CursorRAhj21_EQINtNtCs31agqjrRntl_5alloc3vec3VechEEs_0Cs39nnvYeCEEq_17odo_comprehensive
FNDA:2,_RNCINvNtCs8M7rtMEmd2k_14copybook_codec7lib_api20decode_file_to_jsonlINtNtNtCs4eoO4cHkFdT_3std2io6cursor6CursorRAhj35_EQINtNtCs31agqjrRntl_5alloc3vec3VechEE0Cs39nnvYeCEEq_17odo_comprehensive
FNDA:0,_RNCINvNtCs8M7rtMEmd2k_14copybook_codec7lib_api20decode_file_to_jsonlINtNtNtCs4eoO4cHkFdT_3std2io6cursor6CursorRAhj35_EQINtNtCs31agqjrRntl_5alloc3vec3VechEEs0_0Cs39nnvYeCEEq_17odo_comprehensive
FNDA:0,_RNCINvNtCs8M7rtMEmd2k_14copybook_codec7lib_api20decode_file_to_jsonlINtNtNtCs4eoO4cHkFdT_3std2io6cursor6CursorRAhj35_EQINtNtCs31agqjrRntl_5alloc3vec3VechEEs1_0Cs39nnvYeCEEq_17odo_comprehensive
FNDA:0,_RNCINvNtCs8M7rtMEmd2k_14copybook_codec7lib_api20decode_file_to_jsonlINtNtNtCs4eoO4cHkFdT_3std2io6cursor6CursorRAhj35_EQINtNtCs31agqjrRntl_5alloc3vec3VechEEs2_0Cs39nnvYeCEEq_17odo_comprehensive
FNDA:0,_RNCINvNtCs8M7rtMEmd2k_14copybook_codec7lib_api20decode_file_to_jsonlINtNtNtCs4eoO4cHkFdT_3std2io6cursor6CursorRAhj35_EQINtNtCs31agqjrRntl_5alloc3vec3VechEEs3_0Cs39nnvYeCEEq_17odo_comprehensive
FNDA:0,_RNCINvNtCs8M7rtMEmd2k_14copybook_codec7lib_api20decode_file_to_jsonlINtNtNtCs4eoO4cHkFdT_3std2io6cursor6CursorRAhj35_EQINtNtCs31agqjrRntl_5alloc3vec3VechEEs_0Cs39nnvYeCEEq_17odo_comprehensive
FNDA:1,_RNCINvNtCs8M7rtMEmd2k_14copybook_codec7lib_api20decode_file_to_jsonlINtNtNtCs4eoO4cHkFdT_3std2io6cursor6CursorRAhj3_EQINtNtCs31agqjrRntl_5alloc3vec3VechEE0Cs39nnvYeCEEq_17odo_comprehensive
FNDA:0,_RNCINvNtCs8M7rtMEmd2k_14copybook_codec7lib_api20decode_file_to_jsonlINtNtNtCs4eoO4cHkFdT_3std2io6cursor6CursorRAhj3_EQINtNtCs31agqjrRntl_5alloc3vec3VechEEs0_0Cs39nnvYeCEEq_17odo_comprehensive
FNDA:0,_RNCINvNtCs8M7rtMEmd2k_14copybook_codec7lib_api20decode_file_to_jsonlINtNtNtCs4eoO4cHkFdT_3std2io6cursor6CursorRAhj3_EQINtNtCs31agqjrRntl_5alloc3vec3VechEEs1_0Cs39nnvYeCEEq_17odo_comprehensive
FNDA:0,_RNCINvNtCs8M7rtMEmd2k_14copybook_codec7lib_api20decode_file_to_jsonlINtNtNtCs4eoO4cHkFdT_3std2io6cursor6CursorRAhj3_EQINtNtCs31agqjrRntl_5alloc3vec3VechEEs2_0Cs39nnvYeCEEq_17odo_comprehensive
FNDA:0,_RNCINvNtCs8M7rtMEmd2k_14copybook_codec7lib_api20decode_file_to_jsonlINtNtNtCs4eoO4cHkFdT_3std2io6cursor6CursorRAhj3_EQINtNtCs31agqjrRntl_5alloc3vec3VechEEs3_0Cs39nnvYeCEEq_17odo_comprehensive
FNDA:0,_RNCINvNtCs8M7rtMEmd2k_14copybook_codec7lib_api20decode_file_to_jsonlINtNtNtCs4eoO4cHkFdT_3std2io6cursor6CursorRAhj3_EQINtNtCs31agqjrRntl_5alloc3vec3VechEEs_0Cs39nnvYeCEEq_17odo_comprehensive
FNDA:1,_RNCINvNtCs8M7rtMEmd2k_14copybook_codec7lib_api20decode_file_to_jsonlINtNtNtCs4eoO4cHkFdT_3std2io6cursor6CursorRINtNtCs31agqjrRntl_5alloc3vec3VechEEQB1L_E0Cs39nnvYeCEEq_17odo_comprehensive
FNDA:0,_RNCINvNtCs8M7rtMEmd2k_14copybook_codec7lib_api20decode_file_to_jsonlINtNtNtCs4eoO4cHkFdT_3std2io6cursor6CursorRINtNtCs31agqjrRntl_5alloc3vec3VechEEQB1L_Es0_0Cs39nnvYeCEEq_17odo_comprehensive
FNDA:0,_RNCINvNtCs8M7rtMEmd2k_14copybook_codec7lib_api20decode_file_to_jsonlINtNtNtCs4eoO4cHkFdT_3std2io6cursor6CursorRINtNtCs31agqjrRntl_5alloc3vec3VechEEQB1L_Es1_0Cs39nnvYeCEEq_17odo_comprehensive
FNDA:0,_RNCINvNtCs8M7rtMEmd2k_14copybook_codec7lib_api20decode_file_to_jsonlINtNtNtCs4eoO4cHkFdT_3std2io6cursor6CursorRINtNtCs31agqjrRntl_5alloc3vec3VechEEQB1L_Es2_0Cs39nnvYeCEEq_17odo_comprehensive
FNDA:0,_RNCINvNtCs8M7rtMEmd2k_14copybook_codec7lib_api20decode_file_to_jsonlINtNtNtCs4eoO4cHkFdT_3std2io6cursor6CursorRINtNtCs31agqjrRntl_5alloc3vec3VechEEQB1L_Es3_0Cs39nnvYeCEEq_17odo_comprehensive
FNDA:0,_RNCINvNtCs8M7rtMEmd2k_14copybook_codec7lib_api20decode_file_to_jsonlINtNtNtCs4eoO4cHkFdT_3std2io6cursor6CursorRINtNtCs31agqjrRntl_5alloc3vec3VechEEQB1L_Es_0Cs39nnvYeCEEq_17odo_comprehensive
FNDA:1,_RNCINvNtCs8M7rtMEmd2k_14copybook_codec7lib_api20decode_file_to_jsonlINtNtNtCs4eoO4cHkFdT_3std2io6cursor6CursorRShEQINtNtCs31agqjrRntl_5alloc3vec3VechEE0Cs39nnvYeCEEq_17odo_comprehensive
FNDA:0,_RNCINvNtCs8M7rtMEmd2k_14copybook_codec7lib_api20decode_file_to_jsonlINtNtNtCs4eoO4cHkFdT_3std2io6cursor6CursorRShEQINtNtCs31agqjrRntl_5alloc3vec3VechEEs0_0Cs39nnvYeCEEq_17odo_comprehensive
FNDA:0,_RNCINvNtCs8M7rtMEmd2k_14copybook_codec7lib_api20decode_file_to_jsonlINtNtNtCs4eoO4cHkFdT_3std2io6cursor6CursorRShEQINtNtCs31agqjrRntl_5alloc3vec3VechEEs1_0Cs39nnvYeCEEq_17odo_comprehensive
FNDA:0,_RNCINvNtCs8M7rtMEmd2k_14copybook_codec7lib_api20decode_file_to_jsonlINtNtNtCs4eoO4cHkFdT_3std2io6cursor6CursorRShEQINtNtCs31agqjrRntl_5alloc3vec3VechEEs2_0Cs39nnvYeCEEq_17odo_comprehensive
FNDA:0,_RNCINvNtCs8M7rtMEmd2k_14copybook_codec7lib_api20decode_file_to_jsonlINtNtNtCs4eoO4cHkFdT_3std2io6cursor6CursorRShEQINtNtCs31agqjrRntl_5alloc3vec3VechEEs3_0Cs39nnvYeCEEq_17odo_comprehensive
FNDA:0,_RNCINvNtCs8M7rtMEmd2k_14copybook_codec7lib_api20decode_file_to_jsonlINtNtNtCs4eoO4cHkFdT_3std2io6cursor6CursorRShEQINtNtCs31agqjrRntl_5alloc3vec3VechEEs_0Cs39nnvYeCEEq_17odo_comprehensive
FNDA:0,_RNCINvNtCs8M7rtMEmd2k_14copybook_codec7lib_api20encode_jsonl_to_fileINtNtNtCs4eoO4cHkFdT_3std2io6cursor6CursorRShEQINtNtCs31agqjrRntl_5alloc3vec3VechEE0Cs39nnvYeCEEq_17odo_comprehensive
FNDA:0,_RNCINvNtCs8M7rtMEmd2k_14copybook_codec7lib_api20encode_jsonl_to_fileINtNtNtCs4eoO4cHkFdT_3std2io6cursor6CursorRShEQINtNtCs31agqjrRntl_5alloc3vec3VechEEs0_0Cs39nnvYeCEEq_17odo_comprehensive
FNDA:0,_RNCINvNtCs8M7rtMEmd2k_14copybook_codec7lib_api20encode_jsonl_to_fileINtNtNtCs4eoO4cHkFdT_3std2io6cursor6CursorRShEQINtNtCs31agqjrRntl_5alloc3vec3VechEEs_0Cs39nnvYeCEEq_17odo_comprehensive
FNDA:0,_RINvNtCs8M7rtMEmd2k_14copybook_codec7lib_api20decode_file_to_jsonlINtNtNtCs4eoO4cHkFdT_3std2io6cursor6CursorRINtNtCs31agqjrRntl_5alloc3vec3VechEEQB1J_ECsazAqiJI9UET_32performance_hardening_validation
FNDA:0,_RNCINvNtCs8M7rtMEmd2k_14copybook_codec7lib_api20decode_file_to_jsonlINtNtNtCs4eoO4cHkFdT_3std2io6cursor6CursorRINtNtCs31agqjrRntl_5alloc3vec3VechEEQB1L_E0CsazAqiJI9UET_32performance_hardening_validation
FNDA:0,_RNCINvNtCs8M7rtMEmd2k_14copybook_codec7lib_api20decode_file_to_jsonlINtNtNtCs4eoO4cHkFdT_3std2io6cursor6CursorRINtNtCs31agqjrRntl_5alloc3vec3VechEEQB1L_Es0_0CsazAqiJI9UET_32performance_hardening_validation
FNDA:0,_RNCINvNtCs8M7rtMEmd2k_14copybook_codec7lib_api20decode_file_to_jsonlINtNtNtCs4eoO4cHkFdT_3std2io6cursor6CursorRINtNtCs31agqjrRntl_5alloc3vec3VechEEQB1L_Es1_0CsazAqiJI9UET_32performance_hardening_validation
FNDA:0,_RNCINvNtCs8M7rtMEmd2k_14copybook_codec7lib_api20decode_file_to_jsonlINtNtNtCs4eoO4cHkFdT_3std2io6cursor6CursorRINtNtCs31agqjrRntl_5alloc3vec3VechEEQB1L_Es2_0CsazAqiJI9UET_32performance_hardening_validation
FNDA:0,_RNCINvNtCs8M7rtMEmd2k_14copybook_codec7lib_api20decode_file_to_jsonlINtNtNtCs4eoO4cHkFdT_3std2io6cursor6CursorRINtNtCs31agqjrRntl_5alloc3vec3VechEEQB1L_Es3_0CsazAqiJI9UET_32performance_hardening_validation
FNDA:0,_RNCINvNtCs8M7rtMEmd2k_14copybook_codec7lib_api20decode_file_to_jsonlINtNtNtCs4eoO4cHkFdT_3std2io6cursor6CursorRINtNtCs31agqjrRntl_5alloc3vec3VechEEQB1L_Es_0CsazAqiJI9UET_32performance_hardening_validation
FNDA:3,_RINvNtCs8M7rtMEmd2k_14copybook_codec7lib_api20decode_file_to_jsonlINtNtNtCs4eoO4cHkFdT_3std2io6cursor6CursorRAhj4_EQINtNtCs31agqjrRntl_5alloc3vec3VechEECshQ4IvnJpZrL_17rdw_comprehensive
FNDA:7,_RINvNtCs8M7rtMEmd2k_14copybook_codec7lib_api20decode_file_to_jsonlINtNtNtCs4eoO4cHkFdT_3std2io6cursor6CursorRAhje_EQINtNtCs31agqjrRntl_5alloc3vec3VechEECshQ4IvnJpZrL_17rdw_comprehensive
FNDA:1,_RINvNtCs8M7rtMEmd2k_14copybook_codec7lib_api20decode_file_to_jsonlINtNtNtCs4eoO4cHkFdT_3std2io6cursor6CursorRINtNtCs31agqjrRntl_5alloc3vec3VechEEQB1J_ECshQ4IvnJpZrL_17rdw_comprehensive
FNDA:1,_RINvNtCs8M7rtMEmd2k_14copybook_codec7lib_api20encode_jsonl_to_fileINtNtNtCs4eoO4cHkFdT_3std2io6cursor6CursorRShEQINtNtCs31agqjrRntl_5alloc3vec3VechEECshQ4IvnJpZrL_17rdw_comprehensive
FNDA:3,_RNCINvNtCs8M7rtMEmd2k_14copybook_codec7lib_api20decode_file_to_jsonlINtNtNtCs4eoO4cHkFdT_3std2io6cursor6CursorRAhj4_EQINtNtCs31agqjrRntl_5alloc3vec3VechEE0CshQ4IvnJpZrL_17rdw_comprehensive
FNDA:0,_RNCINvNtCs8M7rtMEmd2k_14copybook_codec7lib_api20decode_file_to_jsonlINtNtNtCs4eoO4cHkFdT_3std2io6cursor6CursorRAhj4_EQINtNtCs31agqjrRntl_5alloc3vec3VechEEs0_0CshQ4IvnJpZrL_17rdw_comprehensive
FNDA:0,_RNCINvNtCs8M7rtMEmd2k_14copybook_codec7lib_api20decode_file_to_jsonlINtNtNtCs4eoO4cHkFdT_3std2io6cursor6CursorRAhj4_EQINtNtCs31agqjrRntl_5alloc3vec3VechEEs1_0CshQ4IvnJpZrL_17rdw_comprehensive
FNDA:0,_RNCINvNtCs8M7rtMEmd2k_14copybook_codec7lib_api20decode_file_to_jsonlINtNtNtCs4eoO4cHkFdT_3std2io6cursor6CursorRAhj4_EQINtNtCs31agqjrRntl_5alloc3vec3VechEEs2_0CshQ4IvnJpZrL_17rdw_comprehensive
FNDA:1,_RNCINvNtCs8M7rtMEmd2k_14copybook_codec7lib_api20decode_file_to_jsonlINtNtNtCs4eoO4cHkFdT_3std2io6cursor6CursorRAhj4_EQINtNtCs31agqjrRntl_5alloc3vec3VechEEs3_0CshQ4IvnJpZrL_17rdw_comprehensive
FNDA:0,_RNCINvNtCs8M7rtMEmd2k_14copybook_codec7lib_api20decode_file_to_jsonlINtNtNtCs4eoO4cHkFdT_3std2io6cursor6CursorRAhj4_EQINtNtCs31agqjrRntl_5alloc3vec3VechEEs_0CshQ4IvnJpZrL_17rdw_comprehensive
FNDA:7,_RNCINvNtCs8M7rtMEmd2k_14copybook_codec7lib_api20decode_file_to_jsonlINtNtNtCs4eoO4cHkFdT_3std2io6cursor6CursorRAhje_EQINtNtCs31agqjrRntl_5alloc3vec3VechEE0CshQ4IvnJpZrL_17rdw_comprehensive
FNDA:0,_RNCINvNtCs8M7rtMEmd2k_14copybook_codec7lib_api20decode_file_to_jsonlINtNtNtCs4eoO4cHkFdT_3std2io6cursor6CursorRAhje_EQINtNtCs31agqjrRntl_5alloc3vec3VechEEs0_0CshQ4IvnJpZrL_17rdw_comprehensive
FNDA:0,_RNCINvNtCs8M7rtMEmd2k_14copybook_codec7lib_api20decode_file_to_jsonlINtNtNtCs4eoO4cHkFdT_3std2io6cursor6CursorRAhje_EQINtNtCs31agqjrRntl_5alloc3vec3VechEEs1_0CshQ4IvnJpZrL_17rdw_comprehensive
FNDA:0,_RNCINvNtCs8M7rtMEmd2k_14copybook_codec7lib_api20decode_file_to_jsonlINtNtNtCs4eoO4cHkFdT_3std2io6cursor6CursorRAhje_EQINtNtCs31agqjrRntl_5alloc3vec3VechEEs2_0CshQ4IvnJpZrL_17rdw_comprehensive
FNDA:5,_RNCINvNtCs8M7rtMEmd2k_14copybook_codec7lib_api20decode_file_to_jsonlINtNtNtCs4eoO4cHkFdT_3std2io6cursor6CursorRAhje_EQINtNtCs31agqjrRntl_5alloc3vec3VechEEs3_0CshQ4IvnJpZrL_17rdw_comprehensive
FNDA:0,_RNCINvNtCs8M7rtMEmd2k_14copybook_codec7lib_api20decode_file_to_jsonlINtNtNtCs4eoO4cHkFdT_3std2io6cursor6CursorRAhje_EQINtNtCs31agqjrRntl_5alloc3vec3VechEEs_0CshQ4IvnJpZrL_17rdw_comprehensive
FNDA:1,_RNCINvNtCs8M7rtMEmd2k_14copybook_codec7lib_api20decode_file_to_jsonlINtNtNtCs4eoO4cHkFdT_3std2io6cursor6CursorRINtNtCs31agqjrRntl_5alloc3vec3VechEEQB1L_E0CshQ4IvnJpZrL_17rdw_comprehensive
FNDA:0,_RNCINvNtCs8M7rtMEmd2k_14copybook_codec7lib_api20decode_file_to_jsonlINtNtNtCs4eoO4cHkFdT_3std2io6cursor6CursorRINtNtCs31agqjrRntl_5alloc3vec3VechEEQB1L_Es0_0CshQ4IvnJpZrL_17rdw_comprehensive
FNDA:0,_RNCINvNtCs8M7rtMEmd2k_14copybook_codec7lib_api20decode_file_to_jsonlINtNtNtCs4eoO4cHkFdT_3std2io6cursor6CursorRINtNtCs31agqjrRntl_5alloc3vec3VechEEQB1L_Es1_0CshQ4IvnJpZrL_17rdw_comprehensive
FNDA:0,_RNCINvNtCs8M7rtMEmd2k_14copybook_codec7lib_api20decode_file_to_jsonlINtNtNtCs4eoO4cHkFdT_3std2io6cursor6CursorRINtNtCs31agqjrRntl_5alloc3vec3VechEEQB1L_Es2_0CshQ4IvnJpZrL_17rdw_comprehensive
FNDA:1,_RNCINvNtCs8M7rtMEmd2k_14copybook_codec7lib_api20decode_file_to_jsonlINtNtNtCs4eoO4cHkFdT_3std2io6cursor6CursorRINtNtCs31agqjrRntl_5alloc3vec3VechEEQB1L_Es3_0CshQ4IvnJpZrL_17rdw_comprehensive
FNDA:0,_RNCINvNtCs8M7rtMEmd2k_14copybook_codec7lib_api20decode_file_to_jsonlINtNtNtCs4eoO4cHkFdT_3std2io6cursor6CursorRINtNtCs31agqjrRntl_5alloc3vec3VechEEQB1L_Es_0CshQ4IvnJpZrL_17rdw_comprehensive
FNDA:0,_RNCINvNtCs8M7rtMEmd2k_14copybook_codec7lib_api20encode_jsonl_to_fileINtNtNtCs4eoO4cHkFdT_3std2io6cursor6CursorRShEQINtNtCs31agqjrRntl_5alloc3vec3VechEE0CshQ4IvnJpZrL_17rdw_comprehensive
FNDA:0,_RNCINvNtCs8M7rtMEmd2k_14copybook_codec7lib_api20encode_jsonl_to_fileINtNtNtCs4eoO4cHkFdT_3std2io6cursor6CursorRShEQINtNtCs31agqjrRntl_5alloc3vec3VechEEs0_0CshQ4IvnJpZrL_17rdw_comprehensive
FNDA:0,_RNCINvNtCs8M7rtMEmd2k_14copybook_codec7lib_api20encode_jsonl_to_fileINtNtNtCs4eoO4cHkFdT_3std2io6cursor6CursorRShEQINtNtCs31agqjrRntl_5alloc3vec3VechEEs_0CshQ4IvnJpZrL_17rdw_comprehensive
FNDA:3,_RINvNtCs8M7rtMEmd2k_14copybook_codec7lib_api20decode_file_to_jsonlINtNtNtCs4eoO4cHkFdT_3std2io6cursor6CursorRAhj23_EQINtNtCs31agqjrRntl_5alloc3vec3VechEECs1qMUk3KA0Zp_23redefines_comprehensive
FNDA:1,_RINvNtCs8M7rtMEmd2k_14copybook_codec7lib_api20encode_jsonl_to_fileINtNtNtCs4eoO4cHkFdT_3std2io6cursor6CursorRINtNtCs31agqjrRntl_5alloc3vec3VechEEQB1J_ECs1qMUk3KA0Zp_23redefines_comprehensive
FNDA:2,_RINvNtCs8M7rtMEmd2k_14copybook_codec7lib_api20encode_jsonl_to_fileINtNtNtCs4eoO4cHkFdT_3std2io6cursor6CursorRShEQINtNtCs31agqjrRntl_5alloc3vec3VechEECs1qMUk3KA0Zp_23redefines_comprehensive
FNDA:3,_RNCINvNtCs8M7rtMEmd2k_14copybook_codec7lib_api20decode_file_to_jsonlINtNtNtCs4eoO4cHkFdT_3std2io6cursor6CursorRAhj23_EQINtNtCs31agqjrRntl_5alloc3vec3VechEE0Cs1qMUk3KA0Zp_23redefines_comprehensive
FNDA:0,_RNCINvNtCs8M7rtMEmd2k_14copybook_codec7lib_api20decode_file_to_jsonlINtNtNtCs4eoO4cHkFdT_3std2io6cursor6CursorRAhj23_EQINtNtCs31agqjrRntl_5alloc3vec3VechEEs0_0Cs1qMUk3KA0Zp_23redefines_comprehensive
FNDA:0,_RNCINvNtCs8M7rtMEmd2k_14copybook_codec7lib_api20decode_file_to_jsonlINtNtNtCs4eoO4cHkFdT_3std2io6cursor6CursorRAhj23_EQINtNtCs31agqjrRntl_5alloc3vec3VechEEs1_0Cs1qMUk3KA0Zp_23redefines_comprehensive
FNDA:0,_RNCINvNtCs8M7rtMEmd2k_14copybook_codec7lib_api20decode_file_to_jsonlINtNtNtCs4eoO4cHkFdT_3std2io6cursor6CursorRAhj23_EQINtNtCs31agqjrRntl_5alloc3vec3VechEEs2_0Cs1qMUk3KA0Zp_23redefines_comprehensive
FNDA:3,_RNCINvNtCs8M7rtMEmd2k_14copybook_codec7lib_api20decode_file_to_jsonlINtNtNtCs4eoO4cHkFdT_3std2io6cursor6CursorRAhj23_EQINtNtCs31agqjrRntl_5alloc3vec3VechEEs3_0Cs1qMUk3KA0Zp_23redefines_comprehensive
FNDA:0,_RNCINvNtCs8M7rtMEmd2k_14copybook_codec7lib_api20decode_file_to_jsonlINtNtNtCs4eoO4cHkFdT_3std2io6cursor6CursorRAhj23_EQINtNtCs31agqjrRntl_5alloc3vec3VechEEs_0Cs1qMUk3KA0Zp_23redefines_comprehensive
FNDA:0,_RNCINvNtCs8M7rtMEmd2k_14copybook_codec7lib_api20encode_jsonl_to_fileINtNtNtCs4eoO4cHkFdT_3std2io6cursor6CursorRINtNtCs31agqjrRntl_5alloc3vec3VechEEQB1L_E0Cs1qMUk3KA0Zp_23redefines_comprehensive
FNDA:0,_RNCINvNtCs8M7rtMEmd2k_14copybook_codec7lib_api20encode_jsonl_to_fileINtNtNtCs4eoO4cHkFdT_3std2io6cursor6CursorRINtNtCs31agqjrRntl_5alloc3vec3VechEEQB1L_Es0_0Cs1qMUk3KA0Zp_23redefines_comprehensive
FNDA:0,_RNCINvNtCs8M7rtMEmd2k_14copybook_codec7lib_api20encode_jsonl_to_fileINtNtNtCs4eoO4cHkFdT_3std2io6cursor6CursorRINtNtCs31agqjrRntl_5alloc3vec3VechEEQB1L_Es_0Cs1qMUk3KA0Zp_23redefines_comprehensive
FNDA:0,_RNCINvNtCs8M7rtMEmd2k_14copybook_codec7lib_api20encode_jsonl_to_fileINtNtNtCs4eoO4cHkFdT_3std2io6cursor6CursorRShEQINtNtCs31agqjrRntl_5alloc3vec3VechEE0Cs1qMUk3KA0Zp_23redefines_comprehensive
FNDA:0,_RNCINvNtCs8M7rtMEmd2k_14copybook_codec7lib_api20encode_jsonl_to_fileINtNtNtCs4eoO4cHkFdT_3std2io6cursor6CursorRShEQINtNtCs31agqjrRntl_5alloc3vec3VechEEs0_0Cs1qMUk3KA0Zp_23redefines_comprehensive
FNDA:0,_RNCINvNtCs8M7rtMEmd2k_14copybook_codec7lib_api20encode_jsonl_to_fileINtNtNtCs4eoO4cHkFdT_3std2io6cursor6CursorRShEQINtNtCs31agqjrRntl_5alloc3vec3VechEEs_0Cs1qMUk3KA0Zp_23redefines_comprehensive
FNDA:4,_RINvNtCs8M7rtMEmd2k_14copybook_codec7lib_api20decode_file_to_jsonlINtNtNtCs4eoO4cHkFdT_3std2io6cursor6CursorRINtNtCs31agqjrRntl_5alloc3vec3VechEEQB1J_ECs4AY4OFbcjkZ_32zoned_encoding_performance_tests
FNDA:4,_RNCINvNtCs8M7rtMEmd2k_14copybook_codec7lib_api20decode_file_to_jsonlINtNtNtCs4eoO4cHkFdT_3std2io6cursor6CursorRINtNtCs31agqjrRntl_5alloc3vec3VechEEQB1L_E0Cs4AY4OFbcjkZ_32zoned_encoding_performance_tests
FNDA:0,_RNCINvNtCs8M7rtMEmd2k_14copybook_codec7lib_api20decode_file_to_jsonlINtNtNtCs4eoO4cHkFdT_3std2io6cursor6CursorRINtNtCs31agqjrRntl_5alloc3vec3VechEEQB1L_Es0_0Cs4AY4OFbcjkZ_32zoned_encoding_performance_tests
FNDA:0,_RNCINvNtCs8M7rtMEmd2k_14copybook_codec7lib_api20decode_file_to_jsonlINtNtNtCs4eoO4cHkFdT_3std2io6cursor6CursorRINtNtCs31agqjrRntl_5alloc3vec3VechEEQB1L_Es1_0Cs4AY4OFbcjkZ_32zoned_encoding_performance_tests
FNDA:0,_RNCINvNtCs8M7rtMEmd2k_14copybook_codec7lib_api20decode_file_to_jsonlINtNtNtCs4eoO4cHkFdT_3std2io6cursor6CursorRINtNtCs31agqjrRntl_5alloc3vec3VechEEQB1L_Es2_0Cs4AY4OFbcjkZ_32zoned_encoding_performance_tests
FNDA:4,_RNCINvNtCs8M7rtMEmd2k_14copybook_codec7lib_api20decode_file_to_jsonlINtNtNtCs4eoO4cHkFdT_3std2io6cursor6CursorRINtNtCs31agqjrRntl_5alloc3vec3VechEEQB1L_Es3_0Cs4AY4OFbcjkZ_32zoned_encoding_performance_tests
FNDA:0,_RNCINvNtCs8M7rtMEmd2k_14copybook_codec7lib_api20decode_file_to_jsonlINtNtNtCs4eoO4cHkFdT_3std2io6cursor6CursorRINtNtCs31agqjrRntl_5alloc3vec3VechEEQB1L_Es_0Cs4AY4OFbcjkZ_32zoned_encoding_performance_tests
FNF:64
FNH:39
DA:20,10
DA:21,10
DA:22,2
DA:23,2
DA:24,2
DA:25,2
DA:26,8
DA:27,8
DA:28,1
DA:29,1
DA:30,1
DA:31,1
DA:32,7
DA:33,7
DA:34,10
DA:66,128
DA:67,128
DA:68,128
DA:72,0
DA:73,0
DA:74,0
DA:75,0
DA:76,0
DA:77,0
DA:81,107
DA:82,107
DA:83,9
DA:84,9
DA:85,9
DA:86,98
DA:87,107
DA:91,19
DA:92,19
DA:93,19
DA:97,21
DA:98,21
DA:99,21
DA:103,0
DA:104,0
DA:105,0
DA:109,0
DA:110,0
DA:111,0
DA:116,0
DA:117,0
DA:118,0
DA:119,0
DA:121,0
DA:123,0
DA:127,0
DA:128,0
DA:129,0
DA:134,0
DA:135,0
DA:136,0
DA:141,0
DA:142,0
DA:143,0
DA:146,0
DA:147,0
DA:148,0
DA:151,0
DA:152,0
DA:153,0
DA:157,0
DA:158,0
DA:159,0
DA:160,0
DA:161,0
DA:162,0
DA:163,0
DA:164,0
DA:165,0
DA:166,0
DA:167,0
DA:168,0
DA:169,0
DA:170,0
DA:171,0
DA:172,0
DA:173,0
DA:174,0
DA:175,0
DA:176,0
DA:177,0
DA:178,0
DA:179,0
DA:180,0
DA:181,0
DA:182,0
DA:196,607628
DA:197,607628
DA:198,607628
DA:215,15480
DA:216,15480
DA:217,15480
DA:218,15480
DA:219,15480
DA:220,15480
DA:221,15480
DA:222,15480
DA:225,15500
DA:226,15500
DA:227,15500
DA:228,15500
DA:229,15500
DA:230,15500
DA:231,15500
DA:234,15500
DA:237,15500
DA:238,3
DA:239,3
DA:240,3
DA:241,3
DA:242,3
DA:243,3
DA:244,3
DA:245,0
DA:247,15497
DA:250,15500
DA:252,15472
DA:253,15500
DA:256,607628
DA:257,607628
DA:258,607628
DA:259,607628
DA:260,607628
DA:261,607628
DA:265,607628
DA:268,607628
DA:271,605354
DA:272,605354
DA:273,0
DA:274,0
DA:275,0
DA:276,0
DA:277,0
DA:278,0
DA:279,0
DA:280,0
DA:281,0
DA:282,0
DA:283,0
DA:286,0
DA:287,0
DA:288,0
DA:289,0
DA:290,0
DA:291,0
DA:292,0
DA:293,0
DA:297,605354
DA:298,607628
DA:300,1210443
DA:301,1210443
DA:302,1210443
DA:303,1210443
DA:304,1210443
DA:305,1210443
DA:308,2918511
DA:310,2918511
DA:311,8
DA:312,4
DA:313,2918503
DA:315,2918503
DA:318,602812
DA:322,2315691
DA:323,2315691
DA:327,2315691
DA:328,0
DA:329,0
DA:330,0
DA:331,0
DA:332,0
DA:333,2315691
DA:336,2315691
DA:337,1
DA:338,1
DA:339,1
DA:340,1
DA:341,2315690
DA:344,2315690
DA:346,2315690
DA:347,1
DA:348,2315689
DA:350,2315689
DA:352,2315689
DA:354,200018
DA:355,200018
DA:356,200018
DA:357,200018
DA:358,0
DA:359,200018
DA:362,114857
DA:363,114857
DA:364,114857
DA:366,114857
DA:367,114857
DA:368,114857
DA:369,114857
DA:370,114857
DA:371,114857
DA:372,114857
DA:373,2267
DA:375,112590
DA:376,112590
DA:377,112590
DA:378,112590
DA:379,112590
DA:382,0
DA:384,112590
DA:386,1
DA:387,1
DA:388,1
DA:389,1
DA:390,0
DA:392,1
DA:396,2000813
DA:397,2000813
DA:398,2000813
DA:401,2000813
DA:402,2000813
DA:403,2
DA:404,2000811
DA:406,0
DA:407,0
DA:411,0
DA:412,0
DA:414,0
DA:419,2313420
DA:424,1208154
DA:425,1210443
DA:429,27671
DA:430,27671
DA:431,27671
DA:432,27671
DA:433,27671
DA:434,27671
DA:435,27671
DA:439,99794
DA:440,72194
DA:443,12171
DA:444,12171
DA:445,12171
DA:446,12171
DA:447,12171
DA:448,12171
DA:449,12171
DA:450,43
DA:452,12128
DA:453,0
DA:454,0
DA:455,0
DA:456,12128
DA:457,12128
DA:458,12128
DA:462,60023
DA:463,0
DA:465,0
DA:466,60023
DA:468,60023
DA:469,2
DA:470,2
DA:471,1
DA:473,60021
DA:474,60021
DA:476,60021
DA:477,2
DA:478,2
DA:479,2
DA:480,2
DA:481,2
DA:482,2
DA:483,2
DA:484,2
DA:485,2
DA:486,2
DA:487,60019
DA:489,60019
DA:491,60019
DA:493,23279
DA:494,23279
DA:495,23279
DA:496,23279
DA:497,0
DA:498,23279
DA:501,24563
DA:502,24563
DA:503,24563
DA:506,24546
DA:507,24563
DA:508,24563
DA:509,24563
DA:510,24563
DA:511,24563
DA:512,24563
DA:513,24563
DA:514,24563
DA:515,17
DA:516,24546
DA:518,11
DA:519,11
DA:520,11
DA:521,11
DA:522,5
DA:524,6
DA:528,12166
DA:529,12166
DA:530,12166
DA:533,12158
DA:534,12166
DA:535,12166
DA:536,8
DA:537,12158
DA:539,0
DA:540,0
DA:544,0
DA:545,0
DA:547,0
DA:552,59994
DA:558,27600
DA:559,27671
DA:562,8
DA:563,8
DA:564,8
DA:565,8
DA:566,8
DA:567,8
DA:568,8
DA:569,8
DA:572,8
DA:573,0
DA:575,8
DA:576,8
DA:577,8
DA:580,8
DA:581,8
DA:584,8
DA:586,6
DA:590,6
DA:591,6
DA:592,6
DA:593,6
DA:596,6
DA:597,2
DA:598,2
DA:599,2
DA:600,2
DA:601,2
DA:602,2
DA:603,2
DA:604,2
DA:605,2
DA:606,4
DA:609,4
DA:610,12
DA:611,12
DA:612,12
DA:614,12
DA:617,3
DA:618,3
DA:619,3
DA:620,3
DA:623,9
DA:624,9
DA:628,12
DA:631,4
DA:632,4
DA:633,8
DA:636,2
DA:637,2
DA:638,2
DA:639,2
DA:640,2
DA:641,2
DA:642,2
DA:643,2
DA:644,2
DA:648,2
DA:649,0
DA:651,2
DA:652,2
DA:653,2
DA:656,2
DA:657,2
DA:660,2
DA:662,1
DA:666,1
DA:667,1
DA:668,1
DA:669,1
DA:671,1
DA:672,0
DA:673,0
DA:674,0
DA:675,0
DA:676,0
DA:677,0
DA:678,0
DA:679,0
DA:680,0
DA:681,0
DA:682,0
DA:683,1
DA:685,1
DA:687,3
DA:688,3
DA:689,3
DA:691,3
DA:693,3
DA:694,3
DA:695,3
DA:696,3
DA:697,0
DA:698,3
DA:701,0
DA:702,0
DA:703,0
DA:706,0
DA:707,0
DA:708,0
DA:709,0
DA:710,0
DA:711,0
DA:712,0
DA:713,0
DA:714,0
DA:715,0
DA:718,0
DA:719,0
DA:720,0
DA:723,0
DA:724,0
DA:725,0
DA:726,0
DA:727,0
DA:728,0
DA:729,0
DA:730,0
DA:732,0
DA:733,0
DA:734,0
DA:735,0
DA:737,0
DA:742,0
DA:745,0
DA:746,0
DA:747,0
DA:749,0
DA:750,0
DA:751,0
DA:752,0
DA:753,0
DA:754,0
DA:755,0
DA:756,0
DA:758,0
DA:761,0
DA:762,0
DA:764,0
DA:769,3
DA:772,1
DA:773,1
DA:774,2
DA:777,10
DA:778,10
DA:779,10
DA:780,10
DA:781,10
DA:782,10
DA:784,10
DA:787,10
DA:788,10
DA:790,10
DA:791,0
DA:792,0
DA:793,0
DA:794,0
DA:795,10
DA:797,10
DA:800,10
DA:802,8
DA:803,8
DA:804,8
DA:806,8
DA:807,8
DA:808,8
DA:809,8
DA:810,8
DA:811,8
DA:812,8
DA:813,0
DA:816,8
DA:817,8
DA:818,0
DA:819,0
DA:820,0
DA:821,0
DA:825,0
DA:827,8
DA:829,1
DA:830,1
DA:831,1
DA:832,0
DA:833,0
DA:834,0
DA:835,0
DA:836,0
DA:837,0
DA:838,0
DA:839,1
DA:840,1
DA:843,1
DA:844,1
DA:845,1
DA:848,1
DA:849,1
DA:850,1
DA:851,1
DA:852,1
DA:853,1
DA:854,1
DA:855,0
DA:856,1
DA:857,0
DA:858,0
DA:859,0
DA:860,0
DA:864,0
DA:865,1
DA:867,0
DA:868,0
DA:869,0
DA:870,0
DA:872,10
DA:875,10
DA:876,10
DA:877,10
DA:878,10
DA:879,10
DA:880,10
DA:881,10
DA:882,0
DA:884,0
DA:885,0
DA:886,0
DA:889,0
DA:890,0
DA:891,0
DA:892,0
DA:893,10
DA:896,3
DA:897,3
DA:898,3
DA:899,3
DA:900,3
DA:901,3
DA:902,3
DA:903,3
DA:904,3
DA:905,3
DA:906,0
DA:907,0
DA:908,3
DA:909,3
DA:910,3
DA:911,3
DA:912,3
DA:915,9
DA:916,9
DA:917,9
DA:918,9
DA:919,9
DA:922,9
DA:924,9
DA:925,9
DA:926,9
DA:927,9
DA:928,0
DA:929,9
DA:932,0
DA:933,0
DA:934,0
DA:936,0
DA:938,0
DA:939,0
DA:940,0
DA:941,0
DA:942,0
DA:943,0
DA:944,0
DA:946,0
DA:948,0
DA:949,0
DA:951,0
DA:957,0
DA:960,0
DA:961,0
DA:962,0
DA:963,0
DA:964,0
DA:965,0
DA:966,0
DA:967,0
DA:968,0
DA:969,0
DA:971,0
DA:973,0
DA:976,0
DA:977,0
DA:978,0
DA:979,0
DA:981,0
DA:985,0
DA:986,0
DA:987,0
DA:990,0
DA:991,0
DA:992,0
DA:993,0
DA:994,0
DA:995,0
DA:996,0
DA:997,0
DA:998,0
DA:1002,0
DA:1003,0
DA:1004,0
DA:1005,0
DA:1007,0
DA:1010,0
DA:1011,0
DA:1013,0
DA:1017,9
DA:1030,2337
DA:1032,2337
DA:1033,2
DA:1034,2
DA:1035,0
DA:1038,0
DA:1039,0
DA:1040,0
DA:1041,0
DA:1042,0
DA:1043,0
DA:1045,0
DA:1047,0
DA:1050,0
DA:1051,0
DA:1054,0
DA:1057,0
DA:1060,0
DA:1061,0
DA:1062,0
DA:1063,0
DA:1065,0
DA:1066,0
DA:1067,0
DA:1068,0
DA:1069,0
DA:1070,0
DA:1071,0
DA:1072,0
DA:1073,0
DA:1074,0
DA:1075,0
DA:1077,0
DA:1078,0
DA:1081,0
DA:1084,2337
DA:1087,2337
DA:1089,2334
DA:1090,2330
DA:1093,3
DA:1096,3
DA:1097,3
DA:1098,3
DA:1099,3
DA:1100,3
DA:1103,2337
DA:1106,2337
DA:1107,2337
DA:1108,2337
DA:1109,2337
DA:1110,2337
DA:1111,2337
DA:1113,4
DA:1114,4
DA:1116,2337
DA:1118,2337
DA:1119,2337
DA:1120,0
DA:1122,2333
DA:1123,2337
DA:1126,4145
DA:1127,4145
DA:1128,4145
DA:1129,4145
DA:1130,4145
DA:1131,4145
DA:1132,4145
DA:1133,4145
DA:1135,11377
DA:1136,7240
DA:1139,1808
DA:1140,1
DA:1141,1
DA:1142,1
DA:1143,1
DA:1144,1
DA:1145,1
DA:1146,0
DA:1148,1807
DA:1149,1807
DA:1150,1807
DA:1151,1807
DA:1152,1807
DA:1153,1807
DA:1154,4
DA:1158,35
DA:1159,29
DA:1161,23
DA:1162,23
DA:1163,23
DA:1165,23
DA:1166,18
DA:1167,18
DA:1169,18
DA:1170,9
DA:1171,9
DA:1172,5
DA:1173,12
DA:1174,35
DA:1177,4558
DA:1178,4558
DA:1179,4558
DA:1181,4558
DA:1182,4553
DA:1185,4553
DA:1186,522
DA:1187,522
DA:1188,522
DA:1189,522
DA:1190,522
DA:1191,522
DA:1192,522
DA:1193,0
DA:1196,4031
DA:1197,4031
DA:1198,4031
DA:1199,4031
DA:1200,4031
DA:1201,4031
DA:1202,1
DA:1204,4552
DA:1205,4552
DA:1206,4550
DA:1207,4550
DA:1208,4550
DA:1209,5
DA:1210,4557
DA:1213,839
DA:1214,839
DA:1215,839
DA:1217,839
DA:1218,839
DA:1220,836
DA:1221,839
DA:1222,836
DA:1223,836
DA:1224,836
DA:1225,836
DA:1226,836
DA:1227,0
DA:1228,836
DA:1230,0
DA:1231,0
DA:1232,0
DA:1233,0
DA:1235,0
DA:1236,0
DA:1237,0
DA:1238,0
DA:1239,0
DA:1240,0
DA:1241,0
DA:1242,0
DA:1244,0
DA:1245,0
DA:1246,0
DA:1247,0
DA:1251,4137
DA:1252,4145
DA:1267,12
DA:1268,12
DA:1269,12
DA:1270,12
DA:1271,12
DA:1273,113
DA:1274,113
DA:1275,113
DA:1276,113
DA:1277,113
DA:1278,113
DA:1279,113
DA:1280,113
DA:1283,113
DA:1284,113
DA:1285,113
DA:1287,113
DA:1290,86
DA:1293,76
DA:1295,15554
DA:1296,15480
DA:1298,15480
DA:1299,15453
DA:1300,15453
DA:1301,0
DA:1302,0
DA:1303,15453
DA:1304,0
DA:1305,0
DA:1306,15453
DA:1308,27
DA:1309,27
DA:1310,27
DA:1311,2
DA:1312,25
DA:1319,27
DA:1322,27
DA:1324,48
DA:1325,23
DA:1328,23
DA:1329,21
DA:1331,3
DA:1332,3
DA:1333,3
DA:1334,3
DA:1335,3
DA:1340,3
DA:1341,3
DA:1342,2
DA:1344,1
DA:1346,20
DA:1349,20
DA:1350,20
DA:1351,3
DA:1352,3
DA:1353,3
DA:1354,3
DA:1356,17
DA:1359,20
DA:1360,20
DA:1361,20
DA:1362,20
DA:1363,20
DA:1364,20
DA:1365,20
DA:1366,19
DA:1367,19
DA:1368,0
DA:1369,0
DA:1370,19
DA:1371,0
DA:1372,0
DA:1373,19
DA:1375,1
DA:1376,1
DA:1377,1
DA:1378,0
DA:1379,1
DA:1386,92
DA:1387,92
DA:1388,92
DA:1391,92
DA:1392,92
DA:1393,92
DA:1395,92
DA:1396,113
DA:1410,15
DA:1411,15
DA:1412,15
DA:1413,15
DA:1414,15
DA:1415,15
DA:1416,15
DA:1417,15
DA:1419,15
DA:1420,15
DA:1422,20
DA:1423,20
DA:1424,20
DA:1426,20
DA:1427,0
DA:1428,20
DA:1430,20
DA:1433,20
DA:1434,20
DA:1437,20
DA:1438,19
DA:1439,19
DA:1440,19
DA:1441,19
DA:1442,19
DA:1445,1
DA:1447,1
DA:1448,1
DA:1449,0
DA:1454,15
DA:1455,15
DA:1456,15
DA:1457,15
DA:1459,15
DA:1460,15
DA:1476,4
DA:1477,4
DA:1479,4
DA:1480,4
DA:1481,4
DA:1482,4
DA:1483,4
DA:1484,4
DA:1485,4
DA:1486,4
DA:1487,4
DA:1490,1
DA:1491,1
DA:1492,1
DA:1495,1
DA:1496,1
DA:1497,1
DA:1500,0
DA:1501,0
DA:1502,0
DA:1505,0
DA:1506,0
DA:1507,0
DA:1513,8
DA:1514,8
DA:1515,0
DA:1516,8
DA:1519,8
DA:1521,5
DA:1524,5
DA:1525,0
DA:1526,5
DA:1529,3
DA:1530,3
DA:1531,3
DA:1533,0
DA:1534,0
DA:1535,0
DA:1536,0
DA:1538,8
DA:1542,0
DA:1543,0
DA:1544,0
DA:1545,0
DA:1546,0
DA:1547,0
DA:1548,0
DA:1550,0
DA:1551,0
DA:1554,0
DA:1555,0
DA:1556,0
DA:1557,0
DA:1558,0
DA:1559,0
DA:1560,0
DA:1563,112590
DA:1564,112590
DA:1565,112590
DA:1566,112590
DA:1567,112590
DA:1571,112590
DA:1572,0
DA:1573,112590
DA:1577,112590
DA:1578,17
DA:1579,17
DA:1580,17
DA:1581,0
DA:1582,112573
DA:1585,112573
DA:1586,112573
DA:1587,112573
DA:1589,112573
DA:1590,8
DA:1591,112565
DA:1594,112573
DA:1595,112573
DA:1596,0
DA:1598,112573
DA:1600,112573
DA:1601,0
DA:1602,0
DA:1603,0
DA:1604,0
DA:1606,112573
DA:1607,112590
DA:1617,1
DA:1618,1
DA:1619,1
DA:1620,1
DA:1621,1
DA:1622,1
DA:1624,1
DA:1625,1
DA:1626,1
DA:1627,1
DA:1628,1
DA:1629,1
DA:1631,1
DA:1632,1
DA:1633,1
DA:1635,1
DA:1636,1
DA:1639,1
DA:1640,1
DA:1641,1
DA:1642,1
DA:1643,1
DA:1644,1
DA:1646,1
DA:1647,1
DA:1649,1
DA:1650,1
DA:1651,1
DA:1652,1
DA:1654,1
DA:1655,1
DA:1658,1
DA:1659,1
DA:1662,1
DA:1663,1
DA:1664,1
DA:1665,1
DA:1666,1
DA:1667,1
DA:1669,1
DA:1670,1
DA:1673,1
DA:1674,1
DA:1676,1
DA:1677,1
DA:1678,1
DA:1679,1
DA:1682,1
DA:1683,1
DA:1684,1
DA:1685,1
DA:1686,1
DA:1687,1
DA:1689,1
DA:1690,1
DA:1691,1
DA:1692,1
DA:1693,1
DA:1696,1
DA:1697,1
DA:1700,1
DA:1702,1
DA:1703,1
DA:1704,1
DA:1705,1
DA:1708,1
DA:1709,1
DA:1710,1
DA:1711,1
DA:1712,1
DA:1713,1
DA:1715,1
DA:1716,1
DA:1719,1
DA:1720,1
DA:1723,1
DA:1725,1
DA:1726,1
DA:1727,1
DA:1728,1
BRF:0
BRH:0
LF:1105
LH:717
end_of_record
SF:/home/steven/code/Rust/copybook-rs/copybook-codec/src/memory.rs
FN:48,_RNvMNtCs8M7rtMEmd2k_14copybook_codec6memoryNtB2_14ScratchBuffers20ensure_byte_capacity
FN:56,_RNvMNtCs8M7rtMEmd2k_14copybook_codec6memoryNtB2_14ScratchBuffers22ensure_string_capacity
FN:32,_RNvMNtCs8M7rtMEmd2k_14copybook_codec6memoryNtB2_14ScratchBuffers3new
FN:41,_RNvMNtCs8M7rtMEmd2k_14copybook_codec6memoryNtB2_14ScratchBuffers5clear
FN:473,_RNvMs3_NtCs8M7rtMEmd2k_14copybook_codec6memoryNtB5_18StreamingProcessor16record_processed
FN:455,_RNvMs3_NtCs8M7rtMEmd2k_14copybook_codec6memoryNtB5_18StreamingProcessor18is_memory_pressure
FN:449,_RNvMs3_NtCs8M7rtMEmd2k_14copybook_codec6memoryNtB5_18StreamingProcessor18with_default_limit
FN:460,_RNvMs3_NtCs8M7rtMEmd2k_14copybook_codec6memoryNtB5_18StreamingProcessor19update_memory_usage
FN:438,_RNvMs3_NtCs8M7rtMEmd2k_14copybook_codec6memoryNtB5_18StreamingProcessor3new
FN:480,_RNvMs3_NtCs8M7rtMEmd2k_14copybook_codec6memoryNtB5_18StreamingProcessor5stats
FN:65,_RNvXs_NtCs8M7rtMEmd2k_14copybook_codec6memoryNtB4_14ScratchBuffersNtNtCshnvtj5zUHGu_4core7default7Default7default
FN:285,_RINvMs2_NtCs7MLK0KUMdQf_14copybook_codec6memoryINtB6_10WorkerPoolllE3newNCNvNtB6_5testss_16test_worker_pool0EB8_
FN:285,_RINvMs2_NtCs7MLK0KUMdQf_14copybook_codec6memoryINtB6_10WorkerPoolllE3newNCNvNtB6_5testss_27test_deterministic_ordering0EB8_
FN:307,_RNCINvMs2_NtCs7MLK0KUMdQf_14copybook_codec6memoryINtB8_10WorkerPoolllE3newNCNvNtB8_5testss_16test_worker_pool0E0Ba_
FN:307,_RNCINvMs2_NtCs7MLK0KUMdQf_14copybook_codec6memoryINtB8_10WorkerPoolllE3newNCNvNtB8_5testss_27test_deterministic_ordering0E0Ba_
FN:81,_RNvMs0_NtCs7MLK0KUMdQf_14copybook_codec6memoryINtB5_15SequencedRecordReE3newB7_
FN:81,_RNvMs0_NtCs7MLK0KUMdQf_14copybook_codec6memoryINtB5_15SequencedRecordlE3newB7_
FN:137,_RNvMs1_NtCs7MLK0KUMdQf_14copybook_codec6memoryINtB5_12SequenceRingReE12recv_orderedB7_
FN:111,_RNvMs1_NtCs7MLK0KUMdQf_14copybook_codec6memoryINtB5_12SequenceRingReE3newB7_
FN:126,_RNvMs1_NtCs7MLK0KUMdQf_14copybook_codec6memoryINtB5_12SequenceRingReE6senderB7_
FN:137,_RNvMs1_NtCs7MLK0KUMdQf_14copybook_codec6memoryINtB5_12SequenceRinglE12recv_orderedB7_
FN:111,_RNvMs1_NtCs7MLK0KUMdQf_14copybook_codec6memoryINtB5_12SequenceRinglE3newB7_
FN:126,_RNvMs1_NtCs7MLK0KUMdQf_14copybook_codec6memoryINtB5_12SequenceRinglE6senderB7_
FN:365,_RNvMs2_NtCs7MLK0KUMdQf_14copybook_codec6memoryINtB5_10WorkerPoolllE12recv_orderedB7_
FN:350,_RNvMs2_NtCs7MLK0KUMdQf_14copybook_codec6memoryINtB5_10WorkerPoolllE6submitB7_
FN:385,_RNvMs2_NtCs7MLK0KUMdQf_14copybook_codec6memoryINtB5_10WorkerPoolllE8shutdownB7_
FN:48,_RNvMNtCs7MLK0KUMdQf_14copybook_codec6memoryNtB2_14ScratchBuffers20ensure_byte_capacity
FN:56,_RNvMNtCs7MLK0KUMdQf_14copybook_codec6memoryNtB2_14ScratchBuffers22ensure_string_capacity
FN:202,_RNvMs1_NtCs7MLK0KUMdQf_14copybook_codec6memoryINtB5_12SequenceRingpE16try_recv_orderedB7_
FN:237,_RNvMs1_NtCs7MLK0KUMdQf_14copybook_codec6memoryINtB5_12SequenceRingpE5statsB7_
FN:375,_RNvMs2_NtCs7MLK0KUMdQf_14copybook_codec6memoryINtB5_10WorkerPoolppE16try_recv_orderedB7_
FN:401,_RNvMs2_NtCs7MLK0KUMdQf_14copybook_codec6memoryINtB5_10WorkerPoolppE5statsB7_
FN:449,_RNvMs3_NtCs7MLK0KUMdQf_14copybook_codec6memoryNtB5_18StreamingProcessor18with_default_limit
FN:65,_RNvXs_NtCs7MLK0KUMdQf_14copybook_codec6memoryNtB4_14ScratchBuffersNtNtCshnvtj5zUHGu_4core7default7Default7default
FN:544,_RNvNtNtCs7MLK0KUMdQf_14copybook_codec6memory5testss_16test_worker_pool
FN:512,_RNvNtNtCs7MLK0KUMdQf_14copybook_codec6memory5testss_20test_scratch_buffers
FN:571,_RNvNtNtCs7MLK0KUMdQf_14copybook_codec6memory5testss_24test_streaming_processor
FN:528,_RNvNtNtCs7MLK0KUMdQf_14copybook_codec6memory5testss_26test_sequence_ring_ordered
FN:588,_RNvNtNtCs7MLK0KUMdQf_14copybook_codec6memory5testss_27test_deterministic_ordering
FN:549,_RNCNvNtNtCs7MLK0KUMdQf_14copybook_codec6memory5testss_16test_worker_pool0B7_
FN:598,_RNCNvNtNtCs7MLK0KUMdQf_14copybook_codec6memory5testss_27test_deterministic_ordering0B7_
FN:625,_RNCNvNtNtCs7MLK0KUMdQf_14copybook_codec6memory5testss_27test_deterministic_orderings_0B7_
FN:32,_RNvMNtCs7MLK0KUMdQf_14copybook_codec6memoryNtB2_14ScratchBuffers3new
FN:41,_RNvMNtCs7MLK0KUMdQf_14copybook_codec6memoryNtB2_14ScratchBuffers5clear
FN:473,_RNvMs3_NtCs7MLK0KUMdQf_14copybook_codec6memoryNtB5_18StreamingProcessor16record_processed
FN:455,_RNvMs3_NtCs7MLK0KUMdQf_14copybook_codec6memoryNtB5_18StreamingProcessor18is_memory_pressure
FN:460,_RNvMs3_NtCs7MLK0KUMdQf_14copybook_codec6memoryNtB5_18StreamingProcessor19update_memory_usage
FN:438,_RNvMs3_NtCs7MLK0KUMdQf_14copybook_codec6memoryNtB5_18StreamingProcessor3new
FN:480,_RNvMs3_NtCs7MLK0KUMdQf_14copybook_codec6memoryNtB5_18StreamingProcessor5stats
FNDA:0,_RNvMNtCs8M7rtMEmd2k_14copybook_codec6memoryNtB2_14ScratchBuffers20ensure_byte_capacity
FNDA:0,_RNvMNtCs8M7rtMEmd2k_14copybook_codec6memoryNtB2_14ScratchBuffers22ensure_string_capacity
FNDA:103,_RNvMNtCs8M7rtMEmd2k_14copybook_codec6memoryNtB2_14ScratchBuffers3new
FNDA:0,_RNvMNtCs8M7rtMEmd2k_14copybook_codec6memoryNtB2_14ScratchBuffers5clear
FNDA:0,_RNvMs3_NtCs8M7rtMEmd2k_14copybook_codec6memoryNtB5_18StreamingProcessor16record_processed
FNDA:0,_RNvMs3_NtCs8M7rtMEmd2k_14copybook_codec6memoryNtB5_18StreamingProcessor18is_memory_pressure
FNDA:0,_RNvMs3_NtCs8M7rtMEmd2k_14copybook_codec6memoryNtB5_18StreamingProcessor18with_default_limit
FNDA:0,_RNvMs3_NtCs8M7rtMEmd2k_14copybook_codec6memoryNtB5_18StreamingProcessor19update_memory_usage
FNDA:0,_RNvMs3_NtCs8M7rtMEmd2k_14copybook_codec6memoryNtB5_18StreamingProcessor3new
FNDA:0,_RNvMs3_NtCs8M7rtMEmd2k_14copybook_codec6memoryNtB5_18StreamingProcessor5stats
FNDA:0,_RNvXs_NtCs8M7rtMEmd2k_14copybook_codec6memoryNtB4_14ScratchBuffersNtNtCshnvtj5zUHGu_4core7default7Default7default
FNDA:1,_RINvMs2_NtCs7MLK0KUMdQf_14copybook_codec6memoryINtB6_10WorkerPoolllE3newNCNvNtB6_5testss_16test_worker_pool0EB8_
FNDA:3,_RINvMs2_NtCs7MLK0KUMdQf_14copybook_codec6memoryINtB6_10WorkerPoolllE3newNCNvNtB6_5testss_27test_deterministic_ordering0EB8_
FNDA:2,_RNCINvMs2_NtCs7MLK0KUMdQf_14copybook_codec6memoryINtB8_10WorkerPoolllE3newNCNvNtB8_5testss_16test_worker_pool0E0Ba_
FNDA:7,_RNCINvMs2_NtCs7MLK0KUMdQf_14copybook_codec6memoryINtB8_10WorkerPoolllE3newNCNvNtB8_5testss_27test_deterministic_ordering0E0Ba_
FNDA:3,_RNvMs0_NtCs7MLK0KUMdQf_14copybook_codec6memoryINtB5_15SequencedRecordReE3newB7_
FNDA:130,_RNvMs0_NtCs7MLK0KUMdQf_14copybook_codec6memoryINtB5_15SequencedRecordlE3newB7_
FNDA:3,_RNvMs1_NtCs7MLK0KUMdQf_14copybook_codec6memoryINtB5_12SequenceRingReE12recv_orderedB7_
FNDA:1,_RNvMs1_NtCs7MLK0KUMdQf_14copybook_codec6memoryINtB5_12SequenceRingReE3newB7_
FNDA:1,_RNvMs1_NtCs7MLK0KUMdQf_14copybook_codec6memoryINtB5_12SequenceRingReE6senderB7_
FNDA:65,_RNvMs1_NtCs7MLK0KUMdQf_14copybook_codec6memoryINtB5_12SequenceRinglE12recv_orderedB7_
FNDA:4,_RNvMs1_NtCs7MLK0KUMdQf_14copybook_codec6memoryINtB5_12SequenceRinglE3newB7_
FNDA:4,_RNvMs1_NtCs7MLK0KUMdQf_14copybook_codec6memoryINtB5_12SequenceRinglE6senderB7_
FNDA:65,_RNvMs2_NtCs7MLK0KUMdQf_14copybook_codec6memoryINtB5_10WorkerPoolllE12recv_orderedB7_
FNDA:65,_RNvMs2_NtCs7MLK0KUMdQf_14copybook_codec6memoryINtB5_10WorkerPoolllE6submitB7_
FNDA:4,_RNvMs2_NtCs7MLK0KUMdQf_14copybook_codec6memoryINtB5_10WorkerPoolllE8shutdownB7_
FNDA:0,_RNvMNtCs7MLK0KUMdQf_14copybook_codec6memoryNtB2_14ScratchBuffers20ensure_byte_capacity
FNDA:0,_RNvMNtCs7MLK0KUMdQf_14copybook_codec6memoryNtB2_14ScratchBuffers22ensure_string_capacity
FNDA:0,_RNvMs1_NtCs7MLK0KUMdQf_14copybook_codec6memoryINtB5_12SequenceRingpE16try_recv_orderedB7_
FNDA:0,_RNvMs1_NtCs7MLK0KUMdQf_14copybook_codec6memoryINtB5_12SequenceRingpE5statsB7_
FNDA:0,_RNvMs2_NtCs7MLK0KUMdQf_14copybook_codec6memoryINtB5_10WorkerPoolppE16try_recv_orderedB7_
FNDA:0,_RNvMs2_NtCs7MLK0KUMdQf_14copybook_codec6memoryINtB5_10WorkerPoolppE5statsB7_
FNDA:0,_RNvMs3_NtCs7MLK0KUMdQf_14copybook_codec6memoryNtB5_18StreamingProcessor18with_default_limit
FNDA:0,_RNvXs_NtCs7MLK0KUMdQf_14copybook_codec6memoryNtB4_14ScratchBuffersNtNtCshnvtj5zUHGu_4core7default7Default7default
FNDA:1,_RNvNtNtCs7MLK0KUMdQf_14copybook_codec6memory5testss_16test_worker_pool
FNDA:1,_RNvNtNtCs7MLK0KUMdQf_14copybook_codec6memory5testss_20test_scratch_buffers
FNDA:1,_RNvNtNtCs7MLK0KUMdQf_14copybook_codec6memory5testss_24test_streaming_processor
FNDA:1,_RNvNtNtCs7MLK0KUMdQf_14copybook_codec6memory5testss_26test_sequence_ring_ordered
FNDA:1,_RNvNtNtCs7MLK0KUMdQf_14copybook_codec6memory5testss_27test_deterministic_ordering
FNDA:5,_RNCNvNtNtCs7MLK0KUMdQf_14copybook_codec6memory5testss_16test_worker_pool0B7_
FNDA:60,_RNCNvNtNtCs7MLK0KUMdQf_14copybook_codec6memory5testss_27test_deterministic_ordering0B7_
FNDA:60,_RNCNvNtNtCs7MLK0KUMdQf_14copybook_codec6memory5testss_27test_deterministic_orderings_0B7_
FNDA:15,_RNvMNtCs7MLK0KUMdQf_14copybook_codec6memoryNtB2_14ScratchBuffers3new
FNDA:66,_RNvMNtCs7MLK0KUMdQf_14copybook_codec6memoryNtB2_14ScratchBuffers5clear
FNDA:1,_RNvMs3_NtCs7MLK0KUMdQf_14copybook_codec6memoryNtB5_18StreamingProcessor16record_processed
FNDA:2,_RNvMs3_NtCs7MLK0KUMdQf_14copybook_codec6memoryNtB5_18StreamingProcessor18is_memory_pressure
FNDA:1,_RNvMs3_NtCs7MLK0KUMdQf_14copybook_codec6memoryNtB5_18StreamingProcessor19update_memory_usage
FNDA:1,_RNvMs3_NtCs7MLK0KUMdQf_14copybook_codec6memoryNtB5_18StreamingProcessor3new
FNDA:1,_RNvMs3_NtCs7MLK0KUMdQf_14copybook_codec6memoryNtB5_18StreamingProcessor5stats
FNF:32
FNH:24
DA:32,118
DA:33,118
DA:34,118
DA:35,118
DA:36,118
DA:37,118
DA:38,118
DA:41,66
DA:42,66
DA:43,66
DA:44,66
DA:45,66
DA:48,0
DA:49,0
DA:50,0
DA:51,0
DA:52,0
DA:53,0
DA:56,0
DA:57,0
DA:58,0
DA:59,0
DA:60,0
DA:61,0
DA:65,0
DA:66,0
DA:67,0
DA:81,133
DA:82,133
DA:83,133
DA:111,5
DA:112,5
DA:114,5
DA:115,5
DA:116,5
DA:117,5
DA:118,5
DA:119,5
DA:120,5
DA:121,5
DA:122,5
DA:126,5
DA:127,5
DA:128,5
DA:137,68
DA:140,90
DA:141,22
DA:142,22
DA:143,0
DA:144,0
DA:146,22
DA:147,68
DA:150,68
DA:151,68
DA:153,68
DA:156,46
DA:157,46
DA:158,46
DA:162,22
DA:163,0
DA:166,22
DA:169,22
DA:170,0
DA:171,0
DA:172,0
DA:175,22
DA:179,0
DA:180,0
DA:187,0
DA:188,0
DA:189,0
DA:190,0
DA:191,0
DA:192,0
DA:195,68
DA:202,0
DA:204,0
DA:205,0
DA:206,0
DA:207,0
DA:210,0
DA:211,0
DA:212,0
DA:214,0
DA:216,0
DA:217,0
DA:221,0
DA:222,0
DA:226,0
DA:227,0
DA:231,0
DA:233,0
DA:237,0
DA:238,0
DA:239,0
DA:240,0
DA:241,0
DA:242,0
DA:243,0
DA:244,0
DA:285,4
DA:286,4
DA:287,4
DA:288,4
DA:289,4
DA:290,4
DA:291,4
DA:292,4
DA:294,4
DA:295,4
DA:296,4
DA:298,4
DA:299,4
DA:302,9
DA:303,9
DA:304,9
DA:305,9
DA:307,9
DA:308,9
DA:309,9
DA:311,74
DA:313,65
DA:314,65
DA:315,65
DA:318,65
DA:321,65
DA:324,65
DA:325,65
DA:326,0
DA:327,0
DA:328,65
DA:331,9
DA:332,9
DA:334,9
DA:337,4
DA:338,4
DA:339,4
DA:340,4
DA:341,4
DA:342,4
DA:343,4
DA:350,65
DA:351,65
DA:352,65
DA:353,65
DA:354,65
DA:355,65
DA:356,65
DA:357,65
DA:365,65
DA:366,65
DA:367,65
DA:375,0
DA:376,0
DA:377,0
DA:385,4
DA:387,4
DA:390,9
DA:391,9
DA:392,0
DA:393,9
DA:396,4
DA:397,4
DA:401,0
DA:402,0
DA:403,0
DA:404,0
DA:405,0
DA:406,0
DA:407,0
DA:438,1
DA:439,1
DA:440,1
DA:441,1
DA:442,1
DA:443,1
DA:444,1
DA:445,1
DA:449,0
DA:450,0
DA:451,0
DA:455,2
DA:456,2
DA:457,2
DA:460,1
DA:461,1
DA:462,1
DA:463,1
DA:464,1
DA:465,1
DA:466,0
DA:467,0
DA:468,0
DA:469,0
DA:470,1
DA:473,1
DA:474,1
DA:475,1
DA:476,1
DA:480,1
DA:481,1
DA:482,1
DA:483,1
DA:484,1
DA:485,1
DA:486,1
DA:487,1
DA:488,1
DA:512,1
DA:513,1
DA:516,1
DA:517,1
DA:518,1
DA:521,1
DA:522,1
DA:523,1
DA:524,1
DA:525,1
DA:528,1
DA:529,1
DA:530,1
DA:533,1
DA:534,1
DA:535,1
DA:538,1
DA:539,1
DA:540,1
DA:541,1
DA:544,1
DA:545,1
DA:549,5
DA:550,5
DA:551,5
DA:554,1
DA:557,6
DA:558,5
DA:559,5
DA:562,6
DA:563,5
DA:564,5
DA:567,1
DA:568,1
DA:571,1
DA:572,1
DA:574,1
DA:577,1
DA:578,1
DA:581,1
DA:582,1
DA:583,1
DA:584,1
DA:585,1
DA:588,1
DA:590,1
DA:592,4
DA:594,3
DA:595,3
DA:598,60
DA:600,60
DA:601,18
DA:602,42
DA:603,60
DA:604,60
DA:607,3
DA:608,3
DA:611,63
DA:612,60
DA:613,60
DA:616,3
DA:617,60
DA:618,60
DA:619,60
DA:622,3
DA:625,60
DA:626,3
DA:628,0
DA:632,1
BRF:0
BRH:0
LF:279
LH:204
end_of_record
SF:/home/steven/code/Rust/copybook-rs/copybook-codec/src/numeric.rs
FN:17,_RNvNtCs8M7rtMEmd2k_14copybook_codec7numeric6likely
FN:46,_RNvMNtCs8M7rtMEmd2k_14copybook_codec7numericNtB2_21EncodingAnalysisStats13record_format
FN:63,_RNvMNtCs8M7rtMEmd2k_14copybook_codec7numericNtB2_21EncodingAnalysisStats24determine_overall_format
FN:41,_RNvMNtCs8M7rtMEmd2k_14copybook_codec7numericNtB2_21EncodingAnalysisStats3new
FN:571,_RNvMs0_NtCs8M7rtMEmd2k_14copybook_codec7numericNtB5_12SmallDecimal11is_negative
FN:319,_RNvMs0_NtCs8M7rtMEmd2k_14copybook_codec7numericNtB5_12SmallDecimal12extract_sign
FN:576,_RNvMs0_NtCs8M7rtMEmd2k_14copybook_codec7numericNtB5_12SmallDecimal12total_digits
FN:237,_RNvMs0_NtCs8M7rtMEmd2k_14copybook_codec7numericNtB5_12SmallDecimal13is_zero_value
FN:328,_RNvMs0_NtCs8M7rtMEmd2k_14copybook_codec7numericNtB5_12SmallDecimal20parse_decimal_format
FN:359,_RNvMs0_NtCs8M7rtMEmd2k_14copybook_codec7numericNtB5_12SmallDecimal20parse_integer_format
FN:270,_RNvMs0_NtCs8M7rtMEmd2k_14copybook_codec7numericNtB5_12SmallDecimal21append_decimal_format
FN:258,_RNvMs0_NtCs8M7rtMEmd2k_14copybook_codec7numericNtB5_12SmallDecimal21append_integer_format
FN:474,_RNvMs0_NtCs8M7rtMEmd2k_14copybook_codec7numericNtB5_12SmallDecimal21format_integer_manualB7_
FN:408,_RNvMs0_NtCs8M7rtMEmd2k_14copybook_codec7numericNtB5_12SmallDecimal21to_fixed_scale_string
FN:249,_RNvMs0_NtCs8M7rtMEmd2k_14copybook_codec7numericNtB5_12SmallDecimal22append_formatted_value
FN:242,_RNvMs0_NtCs8M7rtMEmd2k_14copybook_codec7numericNtB5_12SmallDecimal23append_sign_if_negative
FN:379,_RNvMs0_NtCs8M7rtMEmd2k_14copybook_codec7numericNtB5_12SmallDecimal23parse_integer_component
FN:443,_RNvMs0_NtCs8M7rtMEmd2k_14copybook_codec7numericNtB5_12SmallDecimal24format_to_scratch_buffer
FN:389,_RNvMs0_NtCs8M7rtMEmd2k_14copybook_codec7numericNtB5_12SmallDecimal30combine_integer_and_fractional
FN:512,_RNvMs0_NtCs8M7rtMEmd2k_14copybook_codec7numericNtB5_12SmallDecimal33format_integer_with_leading_zerosB7_
FN:194,_RNvMs0_NtCs8M7rtMEmd2k_14copybook_codec7numericNtB5_12SmallDecimal3new
FN:203,_RNvMs0_NtCs8M7rtMEmd2k_14copybook_codec7numericNtB5_12SmallDecimal4zero
FN:566,_RNvMs0_NtCs8M7rtMEmd2k_14copybook_codec7numericNtB5_12SmallDecimal5scale
FN:301,_RNvMs0_NtCs8M7rtMEmd2k_14copybook_codec7numericNtB5_12SmallDecimal8from_str
FN:212,_RNvMs0_NtCs8M7rtMEmd2k_14copybook_codec7numericNtB5_12SmallDecimal9normalize
FN:224,_RNvMs0_NtCs8M7rtMEmd2k_14copybook_codec7numericNtB5_12SmallDecimal9to_string
FN:125,_RNvMs_NtCs8M7rtMEmd2k_14copybook_codec7numericNtB4_17ZonedEncodingInfo16detect_from_data
FN:157,_RNvMs_NtCs8M7rtMEmd2k_14copybook_codec7numericNtB4_17ZonedEncodingInfo19analyze_zone_nibble
FN:103,_RNvMs_NtCs8M7rtMEmd2k_14copybook_codec7numericNtB4_17ZonedEncodingInfo3new
FN:1086,_RNvNtCs8M7rtMEmd2k_14copybook_codec7numeric17decode_binary_int
FN:1464,_RNvNtCs8M7rtMEmd2k_14copybook_codec7numeric17encode_binary_int
FN:1529,_RNvNtCs8M7rtMEmd2k_14copybook_codec7numeric19encode_alphanumeric
FN:598,_RNvNtCs8M7rtMEmd2k_14copybook_codec7numeric20decode_zoned_decimalB3_
FN:1168,_RNvNtCs8M7rtMEmd2k_14copybook_codec7numeric20encode_zoned_decimal
FN:930,_RNvNtCs8M7rtMEmd2k_14copybook_codec7numeric21decode_packed_decimalB3_
FN:1366,_RNvNtCs8M7rtMEmd2k_14copybook_codec7numeric21encode_packed_decimal
FN:2182,_RNvNtCs8M7rtMEmd2k_14copybook_codec7numeric24format_integer_to_bufferB3_
FN:1610,_RNvNtCs8M7rtMEmd2k_14copybook_codec7numeric28get_binary_width_from_digits
FN:1587,_RNvNtCs8M7rtMEmd2k_14copybook_codec7numeric29encode_zoned_decimal_with_bwz
FN:1622,_RNvNtCs8M7rtMEmd2k_14copybook_codec7numeric30validate_explicit_binary_width
FN:1264,_RNvNtCs8M7rtMEmd2k_14copybook_codec7numeric32encode_zoned_decimal_with_format
FN:1558,_RNvNtCs8M7rtMEmd2k_14copybook_codec7numeric32should_encode_as_blank_when_zero
FN:1637,_RNvNtCs8M7rtMEmd2k_14copybook_codec7numeric33decode_zoned_decimal_with_scratch
FN:2024,_RNvNtCs8M7rtMEmd2k_14copybook_codec7numeric33encode_zoned_decimal_with_scratch
FN:1742,_RNvNtCs8M7rtMEmd2k_14copybook_codec7numeric34decode_packed_decimal_with_scratchB3_
FN:745,_RNvNtCs8M7rtMEmd2k_14copybook_codec7numeric34decode_zoned_decimal_with_encoding
FN:2055,_RNvNtCs8M7rtMEmd2k_14copybook_codec7numeric34encode_packed_decimal_with_scratch
FN:2276,_RNvNtCs8M7rtMEmd2k_14copybook_codec7numeric43decode_zoned_decimal_to_string_with_scratchB3_
FN:2220,_RNvNtCs8M7rtMEmd2k_14copybook_codec7numeric43format_integer_with_leading_zeros_to_bufferB3_
FN:2083,_RNvNtCs8M7rtMEmd2k_14copybook_codec7numeric44decode_packed_decimal_to_string_with_scratchB3_
FN:23,_RNvNtCs8M7rtMEmd2k_14copybook_codec7numeric8unlikely
FN:380,_RNCNvMs0_NtCs8M7rtMEmd2k_14copybook_codec7numericNtB7_12SmallDecimal23parse_integer_component0B9_
FN:397,_RNCNvMs0_NtCs8M7rtMEmd2k_14copybook_codec7numericNtB7_12SmallDecimal30combine_integer_and_fractional0B9_
FN:398,_RNCNvMs0_NtCs8M7rtMEmd2k_14copybook_codec7numericNtB7_12SmallDecimal30combine_integer_and_fractionals_0B9_
FN:1136,_RNCNvNtCs8M7rtMEmd2k_14copybook_codec7numeric17decode_binary_int0B5_
FN:618,_RNCNvNtCs8M7rtMEmd2k_14copybook_codec7numeric20decode_zoned_decimal0B5_
FN:1574,_RNCNvNtCs8M7rtMEmd2k_14copybook_codec7numeric32should_encode_as_blank_when_zero0B5_
FN:1663,_RNCNvNtCs8M7rtMEmd2k_14copybook_codec7numeric33decode_zoned_decimal_with_scratch0B5_
FN:766,_RNCNvNtCs8M7rtMEmd2k_14copybook_codec7numeric34decode_zoned_decimal_with_encoding0B5_
FN:2400,_RNvNtNtCs7MLK0KUMdQf_14copybook_codec7numeric5testss_15test_bwz_policy
FN:2415,_RNvNtNtCs7MLK0KUMdQf_14copybook_codec7numeric5testss_25test_binary_width_mapping
FN:2345,_RNvNtNtCs7MLK0KUMdQf_14copybook_codec7numeric5testss_25test_packed_decimal_signs
FN:2389,_RNvNtNtCs7MLK0KUMdQf_14copybook_codec7numeric5testss_26test_alphanumeric_encoding
FN:2376,_RNvNtNtCs7MLK0KUMdQf_14copybook_codec7numeric5testss_26test_binary_int_big_endian
FN:2439,_RNvNtNtCs7MLK0KUMdQf_14copybook_codec7numeric5testss_27test_zoned_decimal_with_bwz
FN:2317,_RNvNtNtCs7MLK0KUMdQf_14copybook_codec7numeric5testss_29test_small_decimal_formatting
FN:2310,_RNvNtNtCs7MLK0KUMdQf_14copybook_codec7numeric5testss_32test_small_decimal_normalization
FN:2332,_RNvNtNtCs7MLK0KUMdQf_14copybook_codec7numeric5testss_34test_zoned_decimal_blank_when_zero
FN:2426,_RNvNtNtCs7MLK0KUMdQf_14copybook_codec7numeric5testss_37test_explicit_binary_width_validation
FN:571,_RNvMs0_NtCs7MLK0KUMdQf_14copybook_codec7numericNtB5_12SmallDecimal11is_negative
FN:576,_RNvMs0_NtCs7MLK0KUMdQf_14copybook_codec7numericNtB5_12SmallDecimal12total_digits
FN:408,_RNvMs0_NtCs7MLK0KUMdQf_14copybook_codec7numericNtB5_12SmallDecimal21to_fixed_scale_string
FN:566,_RNvMs0_NtCs7MLK0KUMdQf_14copybook_codec7numericNtB5_12SmallDecimal5scale
FN:1976,_RNvNtCs7MLK0KUMdQf_14copybook_codec7numeric22decode_binary_int_fastB3_
FN:2024,_RNvNtCs7MLK0KUMdQf_14copybook_codec7numeric33encode_zoned_decimal_with_scratch
FN:2055,_RNvNtCs7MLK0KUMdQf_14copybook_codec7numeric34encode_packed_decimal_with_scratch
FN:46,_RNvMNtCs7MLK0KUMdQf_14copybook_codec7numericNtB2_21EncodingAnalysisStats13record_format
FN:63,_RNvMNtCs7MLK0KUMdQf_14copybook_codec7numericNtB2_21EncodingAnalysisStats24determine_overall_format
FN:41,_RNvMNtCs7MLK0KUMdQf_14copybook_codec7numericNtB2_21EncodingAnalysisStats3new
FN:319,_RNvMs0_NtCs7MLK0KUMdQf_14copybook_codec7numericNtB5_12SmallDecimal12extract_sign
FN:237,_RNvMs0_NtCs7MLK0KUMdQf_14copybook_codec7numericNtB5_12SmallDecimal13is_zero_value
FN:328,_RNvMs0_NtCs7MLK0KUMdQf_14copybook_codec7numericNtB5_12SmallDecimal20parse_decimal_format
FN:359,_RNvMs0_NtCs7MLK0KUMdQf_14copybook_codec7numericNtB5_12SmallDecimal20parse_integer_format
FN:270,_RNvMs0_NtCs7MLK0KUMdQf_14copybook_codec7numericNtB5_12SmallDecimal21append_decimal_format
FN:258,_RNvMs0_NtCs7MLK0KUMdQf_14copybook_codec7numericNtB5_12SmallDecimal21append_integer_format
FN:474,_RNvMs0_NtCs7MLK0KUMdQf_14copybook_codec7numericNtB5_12SmallDecimal21format_integer_manualB7_
FN:249,_RNvMs0_NtCs7MLK0KUMdQf_14copybook_codec7numericNtB5_12SmallDecimal22append_formatted_value
FN:242,_RNvMs0_NtCs7MLK0KUMdQf_14copybook_codec7numericNtB5_12SmallDecimal23append_sign_if_negative
FN:379,_RNvMs0_NtCs7MLK0KUMdQf_14copybook_codec7numericNtB5_12SmallDecimal23parse_integer_component
FN:443,_RNvMs0_NtCs7MLK0KUMdQf_14copybook_codec7numericNtB5_12SmallDecimal24format_to_scratch_buffer
FN:389,_RNvMs0_NtCs7MLK0KUMdQf_14copybook_codec7numericNtB5_12SmallDecimal30combine_integer_and_fractional
FN:512,_RNvMs0_NtCs7MLK0KUMdQf_14copybook_codec7numericNtB5_12SmallDecimal33format_integer_with_leading_zerosB7_
FN:194,_RNvMs0_NtCs7MLK0KUMdQf_14copybook_codec7numericNtB5_12SmallDecimal3new
FN:203,_RNvMs0_NtCs7MLK0KUMdQf_14copybook_codec7numericNtB5_12SmallDecimal4zero
FN:301,_RNvMs0_NtCs7MLK0KUMdQf_14copybook_codec7numericNtB5_12SmallDecimal8from_str
FN:212,_RNvMs0_NtCs7MLK0KUMdQf_14copybook_codec7numericNtB5_12SmallDecimal9normalize
FN:224,_RNvMs0_NtCs7MLK0KUMdQf_14copybook_codec7numericNtB5_12SmallDecimal9to_string
FN:125,_RNvMs_NtCs7MLK0KUMdQf_14copybook_codec7numericNtB4_17ZonedEncodingInfo16detect_from_data
FN:157,_RNvMs_NtCs7MLK0KUMdQf_14copybook_codec7numericNtB4_17ZonedEncodingInfo19analyze_zone_nibble
FN:103,_RNvMs_NtCs7MLK0KUMdQf_14copybook_codec7numericNtB4_17ZonedEncodingInfo3new
FN:1086,_RNvNtCs7MLK0KUMdQf_14copybook_codec7numeric17decode_binary_int
FN:1464,_RNvNtCs7MLK0KUMdQf_14copybook_codec7numeric17encode_binary_int
FN:1529,_RNvNtCs7MLK0KUMdQf_14copybook_codec7numeric19encode_alphanumeric
FN:598,_RNvNtCs7MLK0KUMdQf_14copybook_codec7numeric20decode_zoned_decimalB3_
FN:1168,_RNvNtCs7MLK0KUMdQf_14copybook_codec7numeric20encode_zoned_decimal
FN:930,_RNvNtCs7MLK0KUMdQf_14copybook_codec7numeric21decode_packed_decimalB3_
FN:1366,_RNvNtCs7MLK0KUMdQf_14copybook_codec7numeric21encode_packed_decimal
FN:2182,_RNvNtCs7MLK0KUMdQf_14copybook_codec7numeric24format_integer_to_bufferB3_
FN:1610,_RNvNtCs7MLK0KUMdQf_14copybook_codec7numeric28get_binary_width_from_digits
FN:1587,_RNvNtCs7MLK0KUMdQf_14copybook_codec7numeric29encode_zoned_decimal_with_bwz
FN:1622,_RNvNtCs7MLK0KUMdQf_14copybook_codec7numeric30validate_explicit_binary_width
FN:1264,_RNvNtCs7MLK0KUMdQf_14copybook_codec7numeric32encode_zoned_decimal_with_format
FN:1558,_RNvNtCs7MLK0KUMdQf_14copybook_codec7numeric32should_encode_as_blank_when_zero
FN:1637,_RNvNtCs7MLK0KUMdQf_14copybook_codec7numeric33decode_zoned_decimal_with_scratch
FN:1742,_RNvNtCs7MLK0KUMdQf_14copybook_codec7numeric34decode_packed_decimal_with_scratchB3_
FN:745,_RNvNtCs7MLK0KUMdQf_14copybook_codec7numeric34decode_zoned_decimal_with_encoding
FN:2276,_RNvNtCs7MLK0KUMdQf_14copybook_codec7numeric43decode_zoned_decimal_to_string_with_scratchB3_
FN:2220,_RNvNtCs7MLK0KUMdQf_14copybook_codec7numeric43format_integer_with_leading_zeros_to_bufferB3_
FN:2083,_RNvNtCs7MLK0KUMdQf_14copybook_codec7numeric44decode_packed_decimal_to_string_with_scratchB3_
FN:23,_RNvNtCs7MLK0KUMdQf_14copybook_codec7numeric8unlikely
FN:17,_RNvNtCs7MLK0KUMdQf_14copybook_codec7numeric6likely
FN:380,_RNCNvMs0_NtCs7MLK0KUMdQf_14copybook_codec7numericNtB7_12SmallDecimal23parse_integer_component0B9_
FN:397,_RNCNvMs0_NtCs7MLK0KUMdQf_14copybook_codec7numericNtB7_12SmallDecimal30combine_integer_and_fractional0B9_
FN:398,_RNCNvMs0_NtCs7MLK0KUMdQf_14copybook_codec7numericNtB7_12SmallDecimal30combine_integer_and_fractionals_0B9_
FN:1136,_RNCNvNtCs7MLK0KUMdQf_14copybook_codec7numeric17decode_binary_int0B5_
FN:618,_RNCNvNtCs7MLK0KUMdQf_14copybook_codec7numeric20decode_zoned_decimal0B5_
FN:1574,_RNCNvNtCs7MLK0KUMdQf_14copybook_codec7numeric32should_encode_as_blank_when_zero0B5_
FN:1663,_RNCNvNtCs7MLK0KUMdQf_14copybook_codec7numeric33decode_zoned_decimal_with_scratch0B5_
FN:766,_RNCNvNtCs7MLK0KUMdQf_14copybook_codec7numeric34decode_zoned_decimal_with_encoding0B5_
FNDA:310438,_RNvNtCs8M7rtMEmd2k_14copybook_codec7numeric6likely
FNDA:0,_RNvMNtCs8M7rtMEmd2k_14copybook_codec7numericNtB2_21EncodingAnalysisStats13record_format
FNDA:0,_RNvMNtCs8M7rtMEmd2k_14copybook_codec7numericNtB2_21EncodingAnalysisStats24determine_overall_format
FNDA:0,_RNvMNtCs8M7rtMEmd2k_14copybook_codec7numericNtB2_21EncodingAnalysisStats3new
FNDA:0,_RNvMs0_NtCs8M7rtMEmd2k_14copybook_codec7numericNtB5_12SmallDecimal11is_negative
FNDA:5391,_RNvMs0_NtCs8M7rtMEmd2k_14copybook_codec7numericNtB5_12SmallDecimal12extract_sign
FNDA:0,_RNvMs0_NtCs8M7rtMEmd2k_14copybook_codec7numericNtB5_12SmallDecimal12total_digits
FNDA:2001228,_RNvMs0_NtCs8M7rtMEmd2k_14copybook_codec7numericNtB5_12SmallDecimal13is_zero_value
FNDA:540,_RNvMs0_NtCs8M7rtMEmd2k_14copybook_codec7numericNtB5_12SmallDecimal20parse_decimal_format
FNDA:4851,_RNvMs0_NtCs8M7rtMEmd2k_14copybook_codec7numericNtB5_12SmallDecimal20parse_integer_format
FNDA:2000529,_RNvMs0_NtCs8M7rtMEmd2k_14copybook_codec7numericNtB5_12SmallDecimal21append_decimal_format
FNDA:300,_RNvMs0_NtCs8M7rtMEmd2k_14copybook_codec7numericNtB5_12SmallDecimal21append_integer_format
FNDA:36703,_RNvMs0_NtCs8M7rtMEmd2k_14copybook_codec7numericNtB5_12SmallDecimal21format_integer_manualB7_
FNDA:0,_RNvMs0_NtCs8M7rtMEmd2k_14copybook_codec7numericNtB5_12SmallDecimal21to_fixed_scale_string
FNDA:2000829,_RNvMs0_NtCs8M7rtMEmd2k_14copybook_codec7numericNtB5_12SmallDecimal22append_formatted_value
FNDA:2000829,_RNvMs0_NtCs8M7rtMEmd2k_14copybook_codec7numericNtB5_12SmallDecimal23append_sign_if_negative
FNDA:5929,_RNvMs0_NtCs8M7rtMEmd2k_14copybook_codec7numericNtB5_12SmallDecimal23parse_integer_component
FNDA:36703,_RNvMs0_NtCs8M7rtMEmd2k_14copybook_codec7numericNtB5_12SmallDecimal24format_to_scratch_buffer
FNDA:539,_RNvMs0_NtCs8M7rtMEmd2k_14copybook_codec7numericNtB5_12SmallDecimal30combine_integer_and_fractional
FNDA:12117,_RNvMs0_NtCs8M7rtMEmd2k_14copybook_codec7numericNtB5_12SmallDecimal33format_integer_with_leading_zerosB7_
FNDA:2155497,_RNvMs0_NtCs8M7rtMEmd2k_14copybook_codec7numericNtB5_12SmallDecimal3new
FNDA:2,_RNvMs0_NtCs8M7rtMEmd2k_14copybook_codec7numericNtB5_12SmallDecimal4zero
FNDA:0,_RNvMs0_NtCs8M7rtMEmd2k_14copybook_codec7numericNtB5_12SmallDecimal5scale
FNDA:5391,_RNvMs0_NtCs8M7rtMEmd2k_14copybook_codec7numericNtB5_12SmallDecimal8from_str
FNDA:2153461,_RNvMs0_NtCs8M7rtMEmd2k_14copybook_codec7numericNtB5_12SmallDecimal9normalize
FNDA:2000836,_RNvMs0_NtCs8M7rtMEmd2k_14copybook_codec7numericNtB5_12SmallDecimal9to_string
FNDA:0,_RNvMs_NtCs8M7rtMEmd2k_14copybook_codec7numericNtB4_17ZonedEncodingInfo16detect_from_data
FNDA:0,_RNvMs_NtCs8M7rtMEmd2k_14copybook_codec7numericNtB4_17ZonedEncodingInfo19analyze_zone_nibble
FNDA:0,_RNvMs_NtCs8M7rtMEmd2k_14copybook_codec7numericNtB4_17ZonedEncodingInfo3new
FNDA:13,_RNvNtCs8M7rtMEmd2k_14copybook_codec7numeric17decode_binary_int
FNDA:0,_RNvNtCs8M7rtMEmd2k_14copybook_codec7numeric17encode_binary_int
FNDA:0,_RNvNtCs8M7rtMEmd2k_14copybook_codec7numeric19encode_alphanumeric
FNDA:114864,_RNvNtCs8M7rtMEmd2k_14copybook_codec7numeric20decode_zoned_decimalB3_
FNDA:4030,_RNvNtCs8M7rtMEmd2k_14copybook_codec7numeric20encode_zoned_decimal
FNDA:2000813,_RNvNtCs8M7rtMEmd2k_14copybook_codec7numeric21decode_packed_decimalB3_
FNDA:839,_RNvNtCs8M7rtMEmd2k_14copybook_codec7numeric21encode_packed_decimal
FNDA:0,_RNvNtCs8M7rtMEmd2k_14copybook_codec7numeric24format_integer_to_bufferB3_
FNDA:0,_RNvNtCs8M7rtMEmd2k_14copybook_codec7numeric28get_binary_width_from_digits
FNDA:0,_RNvNtCs8M7rtMEmd2k_14copybook_codec7numeric29encode_zoned_decimal_with_bwz
FNDA:0,_RNvNtCs8M7rtMEmd2k_14copybook_codec7numeric30validate_explicit_binary_width
FNDA:522,_RNvNtCs8M7rtMEmd2k_14copybook_codec7numeric32encode_zoned_decimal_with_format
FNDA:0,_RNvNtCs8M7rtMEmd2k_14copybook_codec7numeric32should_encode_as_blank_when_zero
FNDA:24561,_RNvNtCs8M7rtMEmd2k_14copybook_codec7numeric33decode_zoned_decimal_with_scratch
FNDA:0,_RNvNtCs8M7rtMEmd2k_14copybook_codec7numeric33encode_zoned_decimal_with_scratch
FNDA:12167,_RNvNtCs8M7rtMEmd2k_14copybook_codec7numeric34decode_packed_decimal_with_scratchB3_
FNDA:0,_RNvNtCs8M7rtMEmd2k_14copybook_codec7numeric34decode_zoned_decimal_with_encoding
FNDA:0,_RNvNtCs8M7rtMEmd2k_14copybook_codec7numeric34encode_packed_decimal_with_scratch
FNDA:24561,_RNvNtCs8M7rtMEmd2k_14copybook_codec7numeric43decode_zoned_decimal_to_string_with_scratchB3_
FNDA:0,_RNvNtCs8M7rtMEmd2k_14copybook_codec7numeric43format_integer_with_leading_zeros_to_bufferB3_
FNDA:12167,_RNvNtCs8M7rtMEmd2k_14copybook_codec7numeric44decode_packed_decimal_to_string_with_scratchB3_
FNDA:26012843,_RNvNtCs8M7rtMEmd2k_14copybook_codec7numeric8unlikely
FNDA:1,_RNCNvMs0_NtCs8M7rtMEmd2k_14copybook_codec7numericNtB7_12SmallDecimal23parse_integer_component0B9_
FNDA:538,_RNCNvMs0_NtCs8M7rtMEmd2k_14copybook_codec7numericNtB7_12SmallDecimal30combine_integer_and_fractional0B9_
FNDA:1,_RNCNvMs0_NtCs8M7rtMEmd2k_14copybook_codec7numericNtB7_12SmallDecimal30combine_integer_and_fractionals_0B9_
FNDA:0,_RNCNvNtCs8M7rtMEmd2k_14copybook_codec7numeric17decode_binary_int0B5_
FNDA:114862,_RNCNvNtCs8M7rtMEmd2k_14copybook_codec7numeric20decode_zoned_decimal0B5_
FNDA:0,_RNCNvNtCs8M7rtMEmd2k_14copybook_codec7numeric32should_encode_as_blank_when_zero0B5_
FNDA:24569,_RNCNvNtCs8M7rtMEmd2k_14copybook_codec7numeric33decode_zoned_decimal_with_scratch0B5_
FNDA:0,_RNCNvNtCs8M7rtMEmd2k_14copybook_codec7numeric34decode_zoned_decimal_with_encoding0B5_
FNDA:1,_RNvNtNtCs7MLK0KUMdQf_14copybook_codec7numeric5testss_15test_bwz_policy
FNDA:1,_RNvNtNtCs7MLK0KUMdQf_14copybook_codec7numeric5testss_25test_binary_width_mapping
FNDA:1,_RNvNtNtCs7MLK0KUMdQf_14copybook_codec7numeric5testss_25test_packed_decimal_signs
FNDA:1,_RNvNtNtCs7MLK0KUMdQf_14copybook_codec7numeric5testss_26test_alphanumeric_encoding
FNDA:1,_RNvNtNtCs7MLK0KUMdQf_14copybook_codec7numeric5testss_26test_binary_int_big_endian
FNDA:1,_RNvNtNtCs7MLK0KUMdQf_14copybook_codec7numeric5testss_27test_zoned_decimal_with_bwz
FNDA:1,_RNvNtNtCs7MLK0KUMdQf_14copybook_codec7numeric5testss_29test_small_decimal_formatting
FNDA:1,_RNvNtNtCs7MLK0KUMdQf_14copybook_codec7numeric5testss_32test_small_decimal_normalization
FNDA:1,_RNvNtNtCs7MLK0KUMdQf_14copybook_codec7numeric5testss_34test_zoned_decimal_blank_when_zero
FNDA:1,_RNvNtNtCs7MLK0KUMdQf_14copybook_codec7numeric5testss_37test_explicit_binary_width_validation
FNDA:0,_RNvMs0_NtCs7MLK0KUMdQf_14copybook_codec7numericNtB5_12SmallDecimal11is_negative
FNDA:0,_RNvMs0_NtCs7MLK0KUMdQf_14copybook_codec7numericNtB5_12SmallDecimal12total_digits
FNDA:0,_RNvMs0_NtCs7MLK0KUMdQf_14copybook_codec7numericNtB5_12SmallDecimal21to_fixed_scale_string
FNDA:0,_RNvMs0_NtCs7MLK0KUMdQf_14copybook_codec7numericNtB5_12SmallDecimal5scale
FNDA:0,_RNvNtCs7MLK0KUMdQf_14copybook_codec7numeric22decode_binary_int_fastB3_
FNDA:0,_RNvNtCs7MLK0KUMdQf_14copybook_codec7numeric33encode_zoned_decimal_with_scratch
FNDA:0,_RNvNtCs7MLK0KUMdQf_14copybook_codec7numeric34encode_packed_decimal_with_scratch
FNDA:0,_RNvMNtCs7MLK0KUMdQf_14copybook_codec7numericNtB2_21EncodingAnalysisStats13record_format
FNDA:0,_RNvMNtCs7MLK0KUMdQf_14copybook_codec7numericNtB2_21EncodingAnalysisStats24determine_overall_format
FNDA:0,_RNvMNtCs7MLK0KUMdQf_14copybook_codec7numericNtB2_21EncodingAnalysisStats3new
FNDA:4,_RNvMs0_NtCs7MLK0KUMdQf_14copybook_codec7numericNtB5_12SmallDecimal12extract_sign
FNDA:11,_RNvMs0_NtCs7MLK0KUMdQf_14copybook_codec7numericNtB5_12SmallDecimal13is_zero_value
FNDA:0,_RNvMs0_NtCs7MLK0KUMdQf_14copybook_codec7numericNtB5_12SmallDecimal20parse_decimal_format
FNDA:4,_RNvMs0_NtCs7MLK0KUMdQf_14copybook_codec7numericNtB5_12SmallDecimal20parse_integer_format
FNDA:2,_RNvMs0_NtCs7MLK0KUMdQf_14copybook_codec7numericNtB5_12SmallDecimal21append_decimal_format
FNDA:6,_RNvMs0_NtCs7MLK0KUMdQf_14copybook_codec7numericNtB5_12SmallDecimal21append_integer_format
FNDA:2,_RNvMs0_NtCs7MLK0KUMdQf_14copybook_codec7numericNtB5_12SmallDecimal21format_integer_manualB7_
FNDA:8,_RNvMs0_NtCs7MLK0KUMdQf_14copybook_codec7numericNtB5_12SmallDecimal22append_formatted_value
FNDA:8,_RNvMs0_NtCs7MLK0KUMdQf_14copybook_codec7numericNtB5_12SmallDecimal23append_sign_if_negative
FNDA:4,_RNvMs0_NtCs7MLK0KUMdQf_14copybook_codec7numericNtB5_12SmallDecimal23parse_integer_component
FNDA:2,_RNvMs0_NtCs7MLK0KUMdQf_14copybook_codec7numericNtB5_12SmallDecimal24format_to_scratch_buffer
FNDA:0,_RNvMs0_NtCs7MLK0KUMdQf_14copybook_codec7numericNtB5_12SmallDecimal30combine_integer_and_fractional
FNDA:0,_RNvMs0_NtCs7MLK0KUMdQf_14copybook_codec7numericNtB5_12SmallDecimal33format_integer_with_leading_zerosB7_
FNDA:14,_RNvMs0_NtCs7MLK0KUMdQf_14copybook_codec7numericNtB5_12SmallDecimal3new
FNDA:2,_RNvMs0_NtCs7MLK0KUMdQf_14copybook_codec7numericNtB5_12SmallDecimal4zero
FNDA:4,_RNvMs0_NtCs7MLK0KUMdQf_14copybook_codec7numericNtB5_12SmallDecimal8from_str
FNDA:11,_RNvMs0_NtCs7MLK0KUMdQf_14copybook_codec7numericNtB5_12SmallDecimal9normalize
FNDA:8,_RNvMs0_NtCs7MLK0KUMdQf_14copybook_codec7numericNtB5_12SmallDecimal9to_string
FNDA:0,_RNvMs_NtCs7MLK0KUMdQf_14copybook_codec7numericNtB4_17ZonedEncodingInfo16detect_from_data
FNDA:0,_RNvMs_NtCs7MLK0KUMdQf_14copybook_codec7numericNtB4_17ZonedEncodingInfo19analyze_zone_nibble
FNDA:0,_RNvMs_NtCs7MLK0KUMdQf_14copybook_codec7numericNtB4_17ZonedEncodingInfo3new
FNDA:2,_RNvNtCs7MLK0KUMdQf_14copybook_codec7numeric17decode_binary_int
FNDA:0,_RNvNtCs7MLK0KUMdQf_14copybook_codec7numeric17encode_binary_int
FNDA:2,_RNvNtCs7MLK0KUMdQf_14copybook_codec7numeric19encode_alphanumeric
FNDA:3,_RNvNtCs7MLK0KUMdQf_14copybook_codec7numeric20decode_zoned_decimalB3_
FNDA:3,_RNvNtCs7MLK0KUMdQf_14copybook_codec7numeric20encode_zoned_decimal
FNDA:4,_RNvNtCs7MLK0KUMdQf_14copybook_codec7numeric21decode_packed_decimalB3_
FNDA:1,_RNvNtCs7MLK0KUMdQf_14copybook_codec7numeric21encode_packed_decimal
FNDA:0,_RNvNtCs7MLK0KUMdQf_14copybook_codec7numeric24format_integer_to_bufferB3_
FNDA:6,_RNvNtCs7MLK0KUMdQf_14copybook_codec7numeric28get_binary_width_from_digits
FNDA:3,_RNvNtCs7MLK0KUMdQf_14copybook_codec7numeric29encode_zoned_decimal_with_bwz
FNDA:6,_RNvNtCs7MLK0KUMdQf_14copybook_codec7numeric30validate_explicit_binary_width
FNDA:0,_RNvNtCs7MLK0KUMdQf_14copybook_codec7numeric32encode_zoned_decimal_with_format
FNDA:9,_RNvNtCs7MLK0KUMdQf_14copybook_codec7numeric32should_encode_as_blank_when_zero
FNDA:2,_RNvNtCs7MLK0KUMdQf_14copybook_codec7numeric33decode_zoned_decimal_with_scratch
FNDA:0,_RNvNtCs7MLK0KUMdQf_14copybook_codec7numeric34decode_packed_decimal_with_scratchB3_
FNDA:0,_RNvNtCs7MLK0KUMdQf_14copybook_codec7numeric34decode_zoned_decimal_with_encoding
FNDA:2,_RNvNtCs7MLK0KUMdQf_14copybook_codec7numeric43decode_zoned_decimal_to_string_with_scratchB3_
FNDA:0,_RNvNtCs7MLK0KUMdQf_14copybook_codec7numeric43format_integer_with_leading_zeros_to_bufferB3_
FNDA:0,_RNvNtCs7MLK0KUMdQf_14copybook_codec7numeric44decode_packed_decimal_to_string_with_scratchB3_
FNDA:21,_RNvNtCs7MLK0KUMdQf_14copybook_codec7numeric8unlikely
FNDA:0,_RNvNtCs7MLK0KUMdQf_14copybook_codec7numeric6likely
FNDA:0,_RNCNvMs0_NtCs7MLK0KUMdQf_14copybook_codec7numericNtB7_12SmallDecimal23parse_integer_component0B9_
FNDA:0,_RNCNvMs0_NtCs7MLK0KUMdQf_14copybook_codec7numericNtB7_12SmallDecimal30combine_integer_and_fractional0B9_
FNDA:0,_RNCNvMs0_NtCs7MLK0KUMdQf_14copybook_codec7numericNtB7_12SmallDecimal30combine_integer_and_fractionals_0B9_
FNDA:0,_RNCNvNtCs7MLK0KUMdQf_14copybook_codec7numeric17decode_binary_int0B5_
FNDA:7,_RNCNvNtCs7MLK0KUMdQf_14copybook_codec7numeric20decode_zoned_decimal0B5_
FNDA:7,_RNCNvNtCs7MLK0KUMdQf_14copybook_codec7numeric32should_encode_as_blank_when_zero0B5_
FNDA:2,_RNCNvNtCs7MLK0KUMdQf_14copybook_codec7numeric33decode_zoned_decimal_with_scratch0B5_
FNDA:0,_RNCNvNtCs7MLK0KUMdQf_14copybook_codec7numeric34decode_zoned_decimal_with_encoding0B5_
FNF:70
FNH:51
DA:17,310438
DA:18,310438
DA:19,310438
DA:23,26012864
DA:24,26012864
DA:25,26012864
DA:41,0
DA:42,0
DA:43,0
DA:46,0
DA:47,0
DA:48,0
DA:49,0
DA:50,0
DA:51,0
DA:53,0
DA:63,0
DA:64,0
DA:66,0
DA:67,0
DA:69,0
DA:70,0
DA:72,0
DA:73,0
DA:75,0
DA:78,0
DA:80,0
DA:103,0
DA:104,0
DA:105,0
DA:106,0
DA:107,0
DA:108,0
DA:109,0
DA:125,0
DA:126,0
DA:127,0
DA:128,0
DA:130,0
DA:131,0
DA:134,0
DA:135,0
DA:136,0
DA:137,0
DA:138,0
DA:141,0
DA:143,0
DA:144,0
DA:145,0
DA:146,0
DA:147,0
DA:148,0
DA:157,0
DA:163,0
DA:165,0
DA:167,0
DA:168,0
DA:171,0
DA:172,0
DA:173,0
DA:174,0
DA:175,0
DA:177,0
DA:194,2155511
DA:195,2155511
DA:196,2155511
DA:197,2155511
DA:198,2155511
DA:199,2155511
DA:200,2155511
DA:203,4
DA:204,4
DA:205,4
DA:206,4
DA:207,4
DA:208,4
DA:209,4
DA:212,2153472
DA:213,2153472
DA:214,53
DA:215,2153419
DA:216,2153472
DA:224,2000844
DA:226,2000844
DA:227,7
DA:228,2000837
DA:230,2000837
DA:231,2000837
DA:232,2000837
DA:233,2000837
DA:234,2000844
DA:237,2001239
DA:238,2001239
DA:239,2001239
DA:242,2000837
DA:243,2000837
DA:244,395
DA:245,2000442
DA:246,2000837
DA:249,2000837
DA:250,2000837
DA:251,306
DA:252,2000531
DA:253,2000531
DA:254,2000531
DA:255,2000837
DA:258,306
DA:259,306
DA:261,0
DA:264,306
DA:266,306
DA:267,306
DA:270,2000531
DA:271,2000531
DA:272,2000531
DA:273,2000531
DA:275,2000531
DA:276,2000531
DA:277,2000531
DA:279,2000531
DA:281,2000531
DA:282,2000531
DA:301,5395
DA:302,5395
DA:303,5395
DA:304,0
DA:305,5395
DA:307,5395
DA:309,5395
DA:310,540
DA:312,4855
DA:314,5395
DA:319,5395
DA:320,5395
DA:321,417
DA:323,4978
DA:325,5395
DA:328,540
DA:329,540
DA:330,540
DA:331,540
DA:332,540
DA:333,540
DA:334,540
DA:335,540
DA:338,540
DA:339,1
DA:340,1
DA:341,1
DA:342,1
DA:343,1
DA:344,1
DA:345,1
DA:346,539
DA:348,539
DA:349,539
DA:350,538
DA:351,539
DA:353,538
DA:354,538
DA:355,538
DA:356,540
DA:359,4855
DA:360,4855
DA:361,4855
DA:362,4855
DA:363,4855
DA:365,4855
DA:366,0
DA:367,0
DA:368,0
DA:369,0
DA:370,4855
DA:372,4855
DA:373,4854
DA:374,4854
DA:375,4854
DA:376,4855
DA:379,5933
DA:380,5933
DA:381,1
DA:382,1
DA:383,1
DA:385,1
DA:386,5933
DA:389,539
DA:390,539
DA:391,539
DA:392,539
DA:393,539
DA:394,539
DA:395,539
DA:396,539
DA:397,539
DA:398,539
DA:399,1
DA:400,1
DA:403,1
DA:404,539
DA:408,0
DA:409,0
DA:411,0
DA:412,0
DA:413,0
DA:415,0
DA:417,0
DA:418,0
DA:420,0
DA:422,0
DA:423,0
DA:424,0
DA:425,0
DA:426,0
DA:427,0
DA:428,0
DA:429,0
DA:430,0
DA:431,0
DA:432,0
DA:433,0
DA:434,0
DA:435,0
DA:436,0
DA:438,0
DA:439,0
DA:443,36705
DA:444,36705
DA:446,36705
DA:447,21
DA:448,36684
DA:450,36705
DA:452,24588
DA:453,0
DA:455,24588
DA:458,24588
DA:459,12117
DA:460,12117
DA:461,12117
DA:462,12117
DA:463,12117
DA:464,12117
DA:465,12117
DA:466,12117
DA:467,12117
DA:468,12117
DA:469,12117
DA:470,36705
DA:474,36705
DA:475,36705
DA:476,13
DA:477,13
DA:478,36692
DA:481,36692
DA:483,421
DA:484,69
DA:485,352
DA:486,352
DA:487,352
DA:488,352
DA:489,352
DA:490,352
DA:491,421
DA:492,36271
DA:495,36271
DA:496,36271
DA:498,274809
DA:499,238538
DA:500,238538
DA:501,238538
DA:502,238538
DA:505,238538
DA:506,238538
DA:507,238538
DA:508,36705
DA:512,12117
DA:514,12117
DA:515,12117
DA:516,0
DA:517,0
DA:518,0
DA:519,12116
DA:520,12116
DA:521,12116
DA:522,12116
DA:523,0
DA:524,0
DA:525,0
DA:526,0
DA:527,0
DA:528,1
DA:529,1
DA:530,1
DA:531,1
DA:532,1
DA:533,1
DA:534,0
DA:536,12117
DA:537,0
DA:540,0
DA:541,0
DA:545,0
DA:546,0
DA:547,0
DA:548,0
DA:549,0
DA:550,0
DA:554,0
DA:555,0
DA:556,0
DA:557,0
DA:560,0
DA:561,0
DA:562,0
DA:563,12117
DA:566,0
DA:567,0
DA:568,0
DA:571,0
DA:572,0
DA:573,0
DA:576,0
DA:577,0
DA:578,0
DA:579,0
DA:581,0
DA:582,0
DA:583,0
DA:584,0
DA:585,0
DA:586,0
DA:587,0
DA:588,0
DA:598,114867
DA:599,114867
DA:600,114867
DA:601,114867
DA:602,114867
DA:603,114867
DA:604,114867
DA:605,114867
DA:606,114867
DA:607,2
DA:608,2
DA:609,2
DA:610,2
DA:611,2
DA:612,2
DA:613,2
DA:614,2
DA:615,114865
DA:618,114869
DA:619,114869
DA:620,101060
DA:621,13809
DA:623,114869
DA:625,114865
DA:626,3
DA:627,2
DA:629,2
DA:630,2
DA:632,1
DA:633,1
DA:634,1
DA:635,1
DA:637,114862
DA:639,114862
DA:640,114862
DA:641,114862
DA:644,3203770
DA:645,3203770
DA:646,3203770
DA:649,3203770
DA:651,10016
DA:653,5
DA:654,5
DA:655,1
DA:656,0
DA:657,0
DA:658,0
DA:659,0
DA:660,1
DA:661,1
DA:662,0
DA:663,0
DA:664,1
DA:665,0
DA:666,0
DA:667,1
DA:669,0
DA:670,0
DA:671,0
DA:672,0
DA:675,5
DA:676,5
DA:679,10011
DA:680,0
DA:681,0
DA:682,0
DA:683,0
DA:684,10011
DA:686,10011
DA:687,10011
DA:688,10011
DA:689,10011
DA:690,10011
DA:691,0
DA:692,0
DA:693,0
DA:694,0
DA:699,3193754
DA:700,96
DA:701,96
DA:702,96
DA:703,96
DA:704,3193658
DA:707,3193658
DA:710,3005897
DA:711,164
DA:712,164
DA:713,164
DA:714,164
DA:715,3005733
DA:719,187761
DA:720,2004
DA:721,2004
DA:722,2004
DA:723,2004
DA:724,185757
DA:728,3191490
DA:732,112598
DA:733,112598
DA:734,112598
DA:735,114867
DA:745,0
DA:746,0
DA:747,0
DA:748,0
DA:749,0
DA:750,0
DA:751,0
DA:752,0
DA:753,0
DA:754,0
DA:755,0
DA:756,0
DA:757,0
DA:758,0
DA:759,0
DA:760,0
DA:761,0
DA:762,0
DA:763,0
DA:766,0
DA:767,0
DA:768,0
DA:769,0
DA:771,0
DA:773,0
DA:774,0
DA:775,0
DA:776,0
DA:777,0
DA:779,0
DA:780,0
DA:781,0
DA:782,0
DA:784,0
DA:787,0
DA:788,0
DA:790,0
DA:794,0
DA:795,0
DA:797,0
DA:798,0
DA:799,0
DA:800,0
DA:801,0
DA:803,0
DA:804,0
DA:805,0
DA:808,0
DA:809,0
DA:810,0
DA:813,0
DA:815,0
DA:817,0
DA:818,0
DA:819,0
DA:820,0
DA:821,0
DA:822,0
DA:823,0
DA:824,0
DA:825,0
DA:826,0
DA:827,0
DA:828,0
DA:829,0
DA:830,0
DA:831,0
DA:833,0
DA:834,0
DA:835,0
DA:836,0
DA:839,0
DA:840,0
DA:843,0
DA:844,0
DA:845,0
DA:846,0
DA:847,0
DA:848,0
DA:850,0
DA:851,0
DA:852,0
DA:853,0
DA:854,0
DA:855,0
DA:856,0
DA:857,0
DA:858,0
DA:863,0
DA:864,0
DA:865,0
DA:866,0
DA:867,0
DA:868,0
DA:871,0
DA:873,0
DA:874,0
DA:875,0
DA:876,0
DA:878,0
DA:879,0
DA:880,0
DA:881,0
DA:882,0
DA:883,0
DA:888,0
DA:891,0
DA:892,0
DA:893,0
DA:894,0
DA:895,0
DA:896,0
DA:897,0
DA:898,0
DA:902,0
DA:903,0
DA:904,0
DA:905,0
DA:906,0
DA:907,0
DA:908,0
DA:909,0
DA:914,0
DA:918,0
DA:919,0
DA:920,0
DA:921,0
DA:930,2000817
DA:931,2000817
DA:932,2000817
DA:933,2000817
DA:934,2000817
DA:935,2000817
DA:937,2000817
DA:938,2000817
DA:939,0
DA:940,0
DA:941,0
DA:942,0
DA:943,0
DA:944,0
DA:945,0
DA:946,0
DA:947,0
DA:948,2000817
DA:950,2000817
DA:951,0
DA:952,2000817
DA:957,2000817
DA:960,2000817
DA:963,24
DA:964,24
DA:965,24
DA:967,24
DA:968,0
DA:969,0
DA:970,0
DA:971,0
DA:972,24
DA:974,24
DA:975,24
DA:976,0
DA:977,0
DA:978,0
DA:979,0
DA:980,24
DA:981,24
DA:982,0
DA:985,24
DA:986,24
DA:987,11
DA:988,13
DA:990,0
DA:991,0
DA:992,0
DA:993,0
DA:996,24
DA:997,24
DA:998,24
DA:999,0
DA:1000,0
DA:1001,0
DA:1002,0
DA:1003,0
DA:1004,0
DA:1008,12005582
DA:1009,12005582
DA:1010,12005582
DA:1011,12005582
DA:1014,12005582
DA:1015,2000792
DA:1016,541
DA:1017,1
DA:1018,1
DA:1019,1
DA:1020,1
DA:1021,540
DA:1023,2000251
DA:1024,0
DA:1025,0
DA:1026,0
DA:1027,0
DA:1028,2000251
DA:1029,2000251
DA:1032,10004790
DA:1033,0
DA:1034,0
DA:1035,0
DA:1036,0
DA:1037,10004790
DA:1038,10004790
DA:1042,12005581
DA:1043,2000791
DA:1044,2000781
DA:1045,2000400
DA:1046,381
DA:1048,0
DA:1049,0
DA:1050,0
DA:1051,0
DA:1054,2000781
DA:1055,2000781
DA:1056,2000781
DA:1057,10
DA:1058,1
DA:1059,1
DA:1060,1
DA:1061,1
DA:1062,9
DA:1064,10004790
DA:1065,1
DA:1066,1
DA:1067,1
DA:1068,1
DA:1069,10004789
DA:1070,10004789
DA:1077,9
DA:1078,9
DA:1079,2000817
DA:1086,15
DA:1087,15
DA:1088,15
DA:1089,0
DA:1090,0
DA:1091,0
DA:1092,0
DA:1093,0
DA:1094,0
DA:1095,0
DA:1096,0
DA:1097,0
DA:1098,15
DA:1100,15
DA:1102,7
DA:1103,0
DA:1104,0
DA:1105,0
DA:1106,0
DA:1107,7
DA:1108,7
DA:1109,7
DA:1110,2
DA:1112,5
DA:1116,8
DA:1117,0
DA:1118,0
DA:1119,0
DA:1120,0
DA:1121,8
DA:1122,8
DA:1123,8
DA:1124,3
DA:1126,5
DA:1130,0
DA:1131,0
DA:1132,0
DA:1133,0
DA:1134,0
DA:1135,0
DA:1136,0
DA:1137,0
DA:1138,0
DA:1141,0
DA:1142,0
DA:1143,0
DA:1146,0
DA:1147,0
DA:1148,0
DA:1149,0
DA:1150,0
DA:1151,0
DA:1152,0
DA:1153,0
DA:1156,0
DA:1157,0
DA:1158,0
DA:1159,0
DA:1161,15
DA:1168,4033
DA:1169,4033
DA:1170,4033
DA:1171,4033
DA:1172,4033
DA:1173,4033
DA:1174,4033
DA:1176,4033
DA:1179,4032
DA:1180,4032
DA:1182,4032
DA:1183,0
DA:1184,0
DA:1185,0
DA:1186,0
DA:1187,4032
DA:1189,4032
DA:1190,4032
DA:1193,26151
DA:1194,26151
DA:1195,26151
DA:1196,0
DA:1197,0
DA:1198,0
DA:1199,0
DA:1200,26151
DA:1202,26151
DA:1204,7
DA:1205,3
DA:1207,3
DA:1208,0
DA:1209,0
DA:1210,1
DA:1211,0
DA:1212,0
DA:1213,0
DA:1214,1
DA:1215,0
DA:1216,0
DA:1217,1
DA:1218,0
DA:1222,0
DA:1223,0
DA:1225,0
DA:1228,3
DA:1231,4
DA:1233,4
DA:1234,3
DA:1236,1
DA:1240,0
DA:1242,4
DA:1246,26144
DA:1247,84
DA:1248,26060
DA:1250,26144
DA:1254,4032
DA:1255,4033
DA:1264,522
DA:1265,522
DA:1266,522
DA:1267,522
DA:1268,522
DA:1269,522
DA:1270,522
DA:1271,522
DA:1273,522
DA:1276,522
DA:1277,522
DA:1279,522
DA:1280,0
DA:1281,0
DA:1282,0
DA:1283,0
DA:1284,522
DA:1288,522
DA:1289,261
DA:1290,261
DA:1293,522
DA:1294,522
DA:1297,4996
DA:1298,4996
DA:1299,4996
DA:1300,0
DA:1301,0
DA:1302,0
DA:1303,0
DA:1304,4996
DA:1306,4996
DA:1308,4
DA:1309,2
DA:1311,1
DA:1312,0
DA:1313,0
DA:1314,0
DA:1315,1
DA:1316,0
DA:1317,0
DA:1318,0
DA:1319,0
DA:1320,0
DA:1321,0
DA:1322,0
DA:1326,1
DA:1327,1
DA:1329,0
DA:1332,2
DA:1335,2
DA:1337,2
DA:1338,1
DA:1340,1
DA:1344,0
DA:1346,2
DA:1350,4992
DA:1351,2464
DA:1352,2528
DA:1354,4992
DA:1358,522
DA:1359,522
DA:1366,840
DA:1367,840
DA:1368,840
DA:1369,840
DA:1370,840
DA:1371,840
DA:1373,840
DA:1377,838
DA:1380,838
DA:1381,14
DA:1382,14
DA:1384,14
DA:1385,8
DA:1387,6
DA:1389,14
DA:1390,14
DA:1391,824
DA:1394,824
DA:1395,824
DA:1396,824
DA:1399,7958
DA:1400,7134
DA:1401,7134
DA:1402,7134
DA:1403,7134
DA:1406,824
DA:1407,1
DA:1408,1
DA:1409,1
DA:1410,1
DA:1411,823
DA:1413,823
DA:1414,823
DA:1417,823
DA:1418,823
DA:1420,6431
DA:1421,5608
DA:1424,5608
DA:1425,5075
DA:1426,5075
DA:1427,3641
DA:1428,3641
DA:1429,3641
DA:1430,3641
DA:1432,533
DA:1435,5608
DA:1437,823
DA:1438,809
DA:1440,14
DA:1442,4785
DA:1443,4785
DA:1444,4785
DA:1445,3490
DA:1446,3490
DA:1447,3490
DA:1448,3490
DA:1450,0
DA:1452,5608
DA:1453,5608
DA:1456,823
DA:1457,840
DA:1464,0
DA:1465,0
DA:1467,0
DA:1468,0
DA:1469,0
DA:1470,0
DA:1471,0
DA:1472,0
DA:1473,0
DA:1474,0
DA:1476,0
DA:1477,0
DA:1478,0
DA:1479,0
DA:1480,0
DA:1481,0
DA:1482,0
DA:1486,0
DA:1487,0
DA:1488,0
DA:1489,0
DA:1490,0
DA:1491,0
DA:1492,0
DA:1493,0
DA:1495,0
DA:1496,0
DA:1497,0
DA:1498,0
DA:1499,0
DA:1500,0
DA:1501,0
DA:1505,0
DA:1506,0
DA:1508,0
DA:1509,0
DA:1510,0
DA:1511,0
DA:1512,0
DA:1513,0
DA:1514,0
DA:1517,0
DA:1518,0
DA:1519,0
DA:1520,0
DA:1522,0
DA:1529,2
DA:1531,2
DA:1533,2
DA:1534,1
DA:1535,1
DA:1536,1
DA:1537,1
DA:1538,1
DA:1539,1
DA:1540,1
DA:1541,1
DA:1542,1
DA:1545,1
DA:1546,1
DA:1547,1
DA:1548,0
DA:1551,1
DA:1552,1
DA:1553,2
DA:1558,9
DA:1559,9
DA:1560,2
DA:1561,7
DA:1564,7
DA:1565,7
DA:1566,2
DA:1567,5
DA:1570,5
DA:1571,3
DA:1572,3
DA:1574,7
DA:1575,2
DA:1576,1
DA:1577,2
DA:1579,3
DA:1580,9
DA:1587,3
DA:1588,3
DA:1589,3
DA:1590,3
DA:1591,3
DA:1592,3
DA:1593,3
DA:1594,3
DA:1596,3
DA:1597,1
DA:1598,1
DA:1599,0
DA:1601,1
DA:1602,2
DA:1604,2
DA:1605,3
DA:1610,6
DA:1611,6
DA:1612,6
DA:1613,4
DA:1614,2
DA:1615,0
DA:1617,6
DA:1622,6
DA:1623,6
DA:1624,1
DA:1625,1
DA:1626,1
DA:1627,1
DA:1628,2
DA:1629,2
DA:1630,2
DA:1631,2
DA:1633,6
DA:1637,24563
DA:1638,24563
DA:1639,24563
DA:1640,24563
DA:1641,24563
DA:1642,24563
DA:1643,24563
DA:1644,24563
DA:1645,24563
DA:1646,24563
DA:1647,0
DA:1648,0
DA:1649,0
DA:1650,0
DA:1651,0
DA:1652,0
DA:1653,0
DA:1654,0
DA:1655,24563
DA:1658,24563
DA:1659,4529
DA:1660,20034
DA:1663,24571
DA:1664,24563
DA:1665,2
DA:1666,2
DA:1667,2
DA:1668,2
DA:1670,0
DA:1671,0
DA:1672,0
DA:1673,0
DA:1675,24561
DA:1678,24561
DA:1679,24561
DA:1681,24561
DA:1682,24561
DA:1683,24561
DA:1686,24561
DA:1687,4527
DA:1688,20034
DA:1692,193756
DA:1693,193756
DA:1694,193756
DA:1697,193756
DA:1698,3
DA:1699,3
DA:1700,3
DA:1701,3
DA:1702,193753
DA:1705,193753
DA:1708,193753
DA:1709,7
DA:1710,7
DA:1711,7
DA:1712,7
DA:1713,0
DA:1714,0
DA:1715,0
DA:1716,0
DA:1720,193746
DA:1721,14
DA:1722,14
DA:1723,14
DA:1724,14
DA:1725,14
DA:1726,14
DA:1727,193732
DA:1731,193739
DA:1734,24544
DA:1735,24544
DA:1736,24544
DA:1737,24563
DA:1742,12167
DA:1743,12167
DA:1744,12167
DA:1745,12167
DA:1746,12167
DA:1747,12167
DA:1748,12167
DA:1749,12167
DA:1750,12167
DA:1751,0
DA:1752,0
DA:1753,0
DA:1754,0
DA:1755,0
DA:1756,0
DA:1757,0
DA:1758,0
DA:1759,0
DA:1760,12167
DA:1762,12167
DA:1763,0
DA:1764,12167
DA:1768,12167
DA:1769,12167
DA:1771,12167
DA:1772,12167
DA:1775,12167
DA:1778,0
DA:1779,0
DA:1780,0
DA:1782,0
DA:1784,0
DA:1785,0
DA:1786,0
DA:1787,0
DA:1788,0
DA:1789,0
DA:1790,0
DA:1791,0
DA:1794,0
DA:1795,0
DA:1796,0
DA:1797,0
DA:1799,0
DA:1800,0
DA:1801,0
DA:1802,0
DA:1806,0
DA:1807,0
DA:1808,0
DA:1809,0
DA:1810,0
DA:1811,0
DA:1812,0
DA:1815,0
DA:1816,0
DA:1817,0
DA:1819,12167
DA:1821,126
DA:1822,126
DA:1823,126
DA:1826,126
DA:1828,0
DA:1829,0
DA:1830,0
DA:1831,0
DA:1833,0
DA:1834,0
DA:1835,0
DA:1836,0
DA:1839,0
DA:1840,0
DA:1841,0
DA:1842,0
DA:1844,126
DA:1845,0
DA:1846,0
DA:1847,0
DA:1848,0
DA:1849,126
DA:1850,126
DA:1851,126
DA:1855,126
DA:1857,44
DA:1858,18
DA:1859,4
DA:1860,14
DA:1862,0
DA:1863,0
DA:1864,0
DA:1865,0
DA:1868,18
DA:1869,18
DA:1870,18
DA:1871,26
DA:1872,2
DA:1873,2
DA:1874,2
DA:1875,2
DA:1876,24
DA:1878,82
DA:1879,1
DA:1880,1
DA:1881,1
DA:1882,1
DA:1883,81
DA:1884,81
DA:1885,81
DA:1888,105
DA:1889,27
DA:1890,78
DA:1895,62596
DA:1896,62596
DA:1897,62596
DA:1900,62596
DA:1902,0
DA:1903,0
DA:1904,0
DA:1905,0
DA:1907,0
DA:1908,0
DA:1909,0
DA:1910,0
DA:1913,0
DA:1914,0
DA:1915,0
DA:1916,0
DA:1918,62596
DA:1919,0
DA:1920,0
DA:1921,0
DA:1922,0
DA:1923,62596
DA:1924,62596
DA:1925,62596
DA:1929,62596
DA:1931,10119
DA:1932,10119
DA:1933,10109
DA:1934,5
DA:1936,5
DA:1937,5
DA:1938,5
DA:1939,5
DA:1942,10114
DA:1943,10114
DA:1944,10114
DA:1945,0
DA:1946,0
DA:1947,0
DA:1948,0
DA:1949,0
DA:1950,0
DA:1952,52477
DA:1953,0
DA:1954,0
DA:1955,0
DA:1956,0
DA:1957,52477
DA:1958,52477
DA:1959,52477
DA:1962,52477
DA:1963,2000
DA:1964,50477
DA:1970,2027
DA:1971,2027
DA:1972,12167
DA:1976,0
DA:1978,0
DA:1981,0
DA:1982,0
DA:1983,0
DA:1985,0
DA:1990,0
DA:1991,0
DA:1992,0
DA:1994,0
DA:1999,0
DA:2000,0
DA:2001,0
DA:2002,0
DA:2003,0
DA:2005,0
DA:2006,0
DA:2007,0
DA:2008,0
DA:2009,0
DA:2010,0
DA:2011,0
DA:2012,0
DA:2017,0
DA:2020,0
DA:2024,0
DA:2025,0
DA:2026,0
DA:2027,0
DA:2028,0
DA:2029,0
DA:2030,0
DA:2031,0
DA:2033,0
DA:2034,0
DA:2035,0
DA:2038,0
DA:2039,0
DA:2044,0
DA:2045,0
DA:2046,0
DA:2047,0
DA:2048,0
DA:2049,0
DA:2051,0
DA:2055,0
DA:2056,0
DA:2057,0
DA:2058,0
DA:2059,0
DA:2060,0
DA:2062,0
DA:2063,0
DA:2064,0
DA:2065,0
DA:2068,0
DA:2069,0
DA:2074,0
DA:2075,0
DA:2083,12167
DA:2084,12167
DA:2085,12167
DA:2086,12167
DA:2087,12167
DA:2088,12167
DA:2089,12167
DA:2091,12167
DA:2092,0
DA:2093,12167
DA:2096,12167
DA:2097,0
DA:2098,0
DA:2099,0
DA:2101,0
DA:2102,0
DA:2104,0
DA:2106,0
DA:2107,0
DA:2108,0
DA:2109,0
DA:2110,0
DA:2111,0
DA:2112,0
DA:2114,0
DA:2115,0
DA:2116,0
DA:2117,0
DA:2119,0
DA:2120,0
DA:2121,0
DA:2122,0
DA:2125,0
DA:2126,0
DA:2127,0
DA:2128,0
DA:2129,0
DA:2130,0
DA:2131,0
DA:2134,0
DA:2135,0
DA:2136,0
DA:2137,0
DA:2139,0
DA:2141,0
DA:2142,0
DA:2144,0
DA:2146,0
DA:2147,0
DA:2148,0
DA:2149,0
DA:2150,0
DA:2151,0
DA:2152,0
DA:2153,0
DA:2154,0
DA:2155,0
DA:2156,0
DA:2157,0
DA:2158,0
DA:2159,0
DA:2160,0
DA:2163,0
DA:2164,0
DA:2165,0
DA:2166,12167
DA:2169,12167
DA:2172,12159
DA:2175,12159
DA:2176,12159
DA:2177,12159
DA:2178,12167
DA:2182,0
DA:2183,0
DA:2184,0
DA:2185,0
DA:2186,0
DA:2189,0
DA:2191,0
DA:2192,0
DA:2193,0
DA:2194,0
DA:2195,0
DA:2196,0
DA:2197,0
DA:2198,0
DA:2199,0
DA:2200,0
DA:2203,0
DA:2204,0
DA:2206,0
DA:2207,0
DA:2208,0
DA:2209,0
DA:2210,0
DA:2213,0
DA:2214,0
DA:2215,0
DA:2216,0
DA:2220,0
DA:2222,0
DA:2223,0
DA:2224,0
DA:2225,0
DA:2226,0
DA:2227,0
DA:2228,0
DA:2229,0
DA:2230,0
DA:2231,0
DA:2232,0
DA:2233,0
DA:2234,0
DA:2235,0
DA:2236,0
DA:2237,0
DA:2238,0
DA:2239,0
DA:2240,0
DA:2241,0
DA:2242,0
DA:2244,0
DA:2245,0
DA:2248,0
DA:2249,0
DA:2253,0
DA:2254,0
DA:2255,0
DA:2256,0
DA:2257,0
DA:2258,0
DA:2262,0
DA:2263,0
DA:2264,0
DA:2265,0
DA:2268,0
DA:2269,0
DA:2270,0
DA:2271,0
DA:2276,24563
DA:2277,24563
DA:2278,24563
DA:2279,24563
DA:2280,24563
DA:2281,24563
DA:2282,24563
DA:2283,24563
DA:2284,24563
DA:2286,24563
DA:2287,24563
DA:2288,24563
DA:2289,24563
DA:2290,24563
DA:2291,24563
DA:2292,24563
DA:2293,24563
DA:2294,17
DA:2297,24546
DA:2300,24546
DA:2301,24546
DA:2302,24546
DA:2303,24563
DA:2310,1
DA:2311,1
DA:2312,1
DA:2313,1
DA:2314,1
DA:2317,1
DA:2319,1
DA:2320,1
DA:2323,1
DA:2324,1
DA:2327,1
DA:2328,1
DA:2329,1
DA:2332,1
DA:2334,1
DA:2335,1
DA:2336,1
DA:2339,1
DA:2340,1
DA:2341,1
DA:2342,1
DA:2345,1
DA:2347,1
DA:2348,1
DA:2349,1
DA:2352,1
DA:2353,1
DA:2354,1
DA:2358,1
DA:2359,1
DA:2360,1
DA:2361,1
DA:2363,0
DA:2367,1
DA:2368,1
DA:2369,1
DA:2370,1
DA:2371,0
DA:2373,1
DA:2376,1
DA:2378,1
DA:2379,1
DA:2380,1
DA:2383,1
DA:2384,1
DA:2385,1
DA:2386,1
DA:2389,1
DA:2391,1
DA:2392,1
DA:2395,1
DA:2396,1
DA:2397,1
DA:2400,1
DA:2402,1
DA:2403,1
DA:2404,1
DA:2407,1
DA:2408,1
DA:2411,1
DA:2412,1
DA:2415,1
DA:2417,1
DA:2418,1
DA:2419,1
DA:2420,1
DA:2421,1
DA:2422,1
DA:2423,1
DA:2426,1
DA:2428,1
DA:2429,1
DA:2430,1
DA:2431,1
DA:2434,1
DA:2435,1
DA:2436,1
DA:2439,1
DA:2441,1
DA:2442,1
DA:2443,1
DA:2446,1
DA:2447,1
DA:2448,1
DA:2451,1
DA:2452,1
DA:2453,1
DA:2454,1
BRF:0
BRH:0
LF:1584
LH:837
end_of_record
SF:/home/steven/code/Rust/copybook-rs/copybook-codec/src/options.rs
FN:53,_RNvMNtCs8M7rtMEmd2k_14copybook_codec7optionsNtB2_19ZonedEncodingFormat11description
FN:71,_RNvMNtCs8M7rtMEmd2k_14copybook_codec7optionsNtB2_19ZonedEncodingFormat16detect_from_byte
FN:47,_RNvMNtCs8M7rtMEmd2k_14copybook_codec7optionsNtB2_19ZonedEncodingFormat7is_auto
FN:35,_RNvMNtCs8M7rtMEmd2k_14copybook_codec7optionsNtB2_19ZonedEncodingFormat8is_ascii
FN:41,_RNvMNtCs8M7rtMEmd2k_14copybook_codec7optionsNtB2_19ZonedEncodingFormat9is_ebcdic
FN:185,_RNvMs0_NtCs8M7rtMEmd2k_14copybook_codec7optionsNtB5_12RecordFormat11description
FN:179,_RNvMs0_NtCs8M7rtMEmd2k_14copybook_codec7optionsNtB5_12RecordFormat11is_variable
FN:173,_RNvMs0_NtCs8M7rtMEmd2k_14copybook_codec7optionsNtB5_12RecordFormat8is_fixed
FN:238,_RNvMs1_NtCs8M7rtMEmd2k_14copybook_codec7optionsNtB5_8Codepage11description
FN:225,_RNvMs1_NtCs8M7rtMEmd2k_14copybook_codec7optionsNtB5_8Codepage16code_page_number
FN:213,_RNvMs1_NtCs8M7rtMEmd2k_14copybook_codec7optionsNtB5_8Codepage8is_ascii
FN:219,_RNvMs1_NtCs8M7rtMEmd2k_14copybook_codec7optionsNtB5_8Codepage9is_ebcdic
FN:274,_RNvMs2_NtCs8M7rtMEmd2k_14copybook_codec7optionsNtB5_14JsonNumberMode11description
FN:262,_RNvMs2_NtCs8M7rtMEmd2k_14copybook_codec7optionsNtB5_14JsonNumberMode11is_lossless
FN:268,_RNvMs2_NtCs8M7rtMEmd2k_14copybook_codec7optionsNtB5_14JsonNumberMode9is_native
FN:335,_RNvMs4_NtCs8M7rtMEmd2k_14copybook_codec7optionsNtB5_13DecodeOptions11with_format
FN:398,_RNvMs4_NtCs8M7rtMEmd2k_14copybook_codec7optionsNtB5_13DecodeOptions12with_threads
FN:342,_RNvMs4_NtCs8M7rtMEmd2k_14copybook_codec7optionsNtB5_13DecodeOptions13with_codepage
FN:370,_RNvMs4_NtCs8M7rtMEmd2k_14copybook_codec7optionsNtB5_13DecodeOptions13with_emit_raw
FN:363,_RNvMs4_NtCs8M7rtMEmd2k_14copybook_codec7optionsNtB5_13DecodeOptions14with_emit_meta
FN:384,_RNvMs4_NtCs8M7rtMEmd2k_14copybook_codec7optionsNtB5_13DecodeOptions15with_max_errors
FN:356,_RNvMs4_NtCs8M7rtMEmd2k_14copybook_codec7optionsNtB5_13DecodeOptions16with_emit_filler
FN:377,_RNvMs4_NtCs8M7rtMEmd2k_14copybook_codec7optionsNtB5_13DecodeOptions16with_strict_mode
FN:349,_RNvMs4_NtCs8M7rtMEmd2k_14copybook_codec7optionsNtB5_13DecodeOptions21with_json_number_mode
FN:391,_RNvMs4_NtCs8M7rtMEmd2k_14copybook_codec7optionsNtB5_13DecodeOptions22with_unmappable_policy
FN:411,_RNvMs4_NtCs8M7rtMEmd2k_14copybook_codec7optionsNtB5_13DecodeOptions28with_preserve_zoned_encoding
FN:421,_RNvMs4_NtCs8M7rtMEmd2k_14copybook_codec7optionsNtB5_13DecodeOptions29with_preferred_zoned_encoding
FN:329,_RNvMs4_NtCs8M7rtMEmd2k_14copybook_codec7optionsNtB5_13DecodeOptions3new
FN:455,_RNvMs6_NtCs8M7rtMEmd2k_14copybook_codec7optionsNtB5_13EncodeOptions11with_format
FN:497,_RNvMs6_NtCs8M7rtMEmd2k_14copybook_codec7optionsNtB5_13EncodeOptions12with_threads
FN:469,_RNvMs6_NtCs8M7rtMEmd2k_14copybook_codec7optionsNtB5_13EncodeOptions12with_use_raw
FN:462,_RNvMs6_NtCs8M7rtMEmd2k_14copybook_codec7optionsNtB5_13EncodeOptions13with_codepage
FN:476,_RNvMs6_NtCs8M7rtMEmd2k_14copybook_codec7optionsNtB5_13EncodeOptions15with_bwz_encode
FN:490,_RNvMs6_NtCs8M7rtMEmd2k_14copybook_codec7optionsNtB5_13EncodeOptions15with_max_errors
FN:483,_RNvMs6_NtCs8M7rtMEmd2k_14copybook_codec7optionsNtB5_13EncodeOptions16with_strict_mode
FN:504,_RNvMs6_NtCs8M7rtMEmd2k_14copybook_codec7optionsNtB5_13EncodeOptions19with_coerce_numbers
FN:527,_RNvMs6_NtCs8M7rtMEmd2k_14copybook_codec7optionsNtB5_13EncodeOptions26with_zoned_encoding_format
FN:515,_RNvMs6_NtCs8M7rtMEmd2k_14copybook_codec7optionsNtB5_13EncodeOptions28with_zoned_encoding_override
FN:449,_RNvMs6_NtCs8M7rtMEmd2k_14copybook_codec7optionsNtB5_13EncodeOptions3new
FN:308,_RNvXs3_NtCs8M7rtMEmd2k_14copybook_codec7optionsNtB5_13DecodeOptionsNtNtCshnvtj5zUHGu_4core7default7Default7default
FN:431,_RNvXs5_NtCs8M7rtMEmd2k_14copybook_codec7optionsNtB5_13EncodeOptionsNtNtCshnvtj5zUHGu_4core7default7Default7default
FN:533,_RNvXs7_NtCs8M7rtMEmd2k_14copybook_codec7optionsNtB5_12RecordFormatNtNtCshnvtj5zUHGu_4core3fmt7Display3fmt
FN:542,_RNvXs8_NtCs8M7rtMEmd2k_14copybook_codec7optionsNtB5_8CodepageNtNtCshnvtj5zUHGu_4core3fmt7Display3fmt
FN:555,_RNvXs9_NtCs8M7rtMEmd2k_14copybook_codec7optionsNtB5_14JsonNumberModeNtNtCshnvtj5zUHGu_4core3fmt7Display3fmt
FN:84,_RNvXs_NtCs8M7rtMEmd2k_14copybook_codec7optionsNtB4_19ZonedEncodingFormatNtNtCshnvtj5zUHGu_4core3fmt7Display3fmt
FN:564,_RNvXsa_NtCs8M7rtMEmd2k_14copybook_codec7optionsNtB5_7RawModeNtNtCshnvtj5zUHGu_4core3fmt7Display3fmt
FN:575,_RNvXsb_NtCs8M7rtMEmd2k_14copybook_codec7optionsNtB5_16UnmappablePolicyNtNtCshnvtj5zUHGu_4core3fmt7Display3fmt
FN:308,_RNvXs3_NtCs7MLK0KUMdQf_14copybook_codec7optionsNtB5_13DecodeOptionsNtNtCshnvtj5zUHGu_4core7default7Default7default
FN:431,_RNvXs5_NtCs7MLK0KUMdQf_14copybook_codec7optionsNtB5_13EncodeOptionsNtNtCshnvtj5zUHGu_4core7default7Default7default
FN:53,_RNvMNtCs7MLK0KUMdQf_14copybook_codec7optionsNtB2_19ZonedEncodingFormat11description
FN:71,_RNvMNtCs7MLK0KUMdQf_14copybook_codec7optionsNtB2_19ZonedEncodingFormat16detect_from_byte
FN:47,_RNvMNtCs7MLK0KUMdQf_14copybook_codec7optionsNtB2_19ZonedEncodingFormat7is_auto
FN:35,_RNvMNtCs7MLK0KUMdQf_14copybook_codec7optionsNtB2_19ZonedEncodingFormat8is_ascii
FN:41,_RNvMNtCs7MLK0KUMdQf_14copybook_codec7optionsNtB2_19ZonedEncodingFormat9is_ebcdic
FN:185,_RNvMs0_NtCs7MLK0KUMdQf_14copybook_codec7optionsNtB5_12RecordFormat11description
FN:179,_RNvMs0_NtCs7MLK0KUMdQf_14copybook_codec7optionsNtB5_12RecordFormat11is_variable
FN:173,_RNvMs0_NtCs7MLK0KUMdQf_14copybook_codec7optionsNtB5_12RecordFormat8is_fixed
FN:238,_RNvMs1_NtCs7MLK0KUMdQf_14copybook_codec7optionsNtB5_8Codepage11description
FN:225,_RNvMs1_NtCs7MLK0KUMdQf_14copybook_codec7optionsNtB5_8Codepage16code_page_number
FN:213,_RNvMs1_NtCs7MLK0KUMdQf_14copybook_codec7optionsNtB5_8Codepage8is_ascii
FN:219,_RNvMs1_NtCs7MLK0KUMdQf_14copybook_codec7optionsNtB5_8Codepage9is_ebcdic
FN:274,_RNvMs2_NtCs7MLK0KUMdQf_14copybook_codec7optionsNtB5_14JsonNumberMode11description
FN:262,_RNvMs2_NtCs7MLK0KUMdQf_14copybook_codec7optionsNtB5_14JsonNumberMode11is_lossless
FN:268,_RNvMs2_NtCs7MLK0KUMdQf_14copybook_codec7optionsNtB5_14JsonNumberMode9is_native
FN:335,_RNvMs4_NtCs7MLK0KUMdQf_14copybook_codec7optionsNtB5_13DecodeOptions11with_format
FN:398,_RNvMs4_NtCs7MLK0KUMdQf_14copybook_codec7optionsNtB5_13DecodeOptions12with_threads
FN:342,_RNvMs4_NtCs7MLK0KUMdQf_14copybook_codec7optionsNtB5_13DecodeOptions13with_codepage
FN:370,_RNvMs4_NtCs7MLK0KUMdQf_14copybook_codec7optionsNtB5_13DecodeOptions13with_emit_raw
FN:363,_RNvMs4_NtCs7MLK0KUMdQf_14copybook_codec7optionsNtB5_13DecodeOptions14with_emit_meta
FN:384,_RNvMs4_NtCs7MLK0KUMdQf_14copybook_codec7optionsNtB5_13DecodeOptions15with_max_errors
FN:356,_RNvMs4_NtCs7MLK0KUMdQf_14copybook_codec7optionsNtB5_13DecodeOptions16with_emit_filler
FN:377,_RNvMs4_NtCs7MLK0KUMdQf_14copybook_codec7optionsNtB5_13DecodeOptions16with_strict_mode
FN:349,_RNvMs4_NtCs7MLK0KUMdQf_14copybook_codec7optionsNtB5_13DecodeOptions21with_json_number_mode
FN:391,_RNvMs4_NtCs7MLK0KUMdQf_14copybook_codec7optionsNtB5_13DecodeOptions22with_unmappable_policy
FN:411,_RNvMs4_NtCs7MLK0KUMdQf_14copybook_codec7optionsNtB5_13DecodeOptions28with_preserve_zoned_encoding
FN:421,_RNvMs4_NtCs7MLK0KUMdQf_14copybook_codec7optionsNtB5_13DecodeOptions29with_preferred_zoned_encoding
FN:329,_RNvMs4_NtCs7MLK0KUMdQf_14copybook_codec7optionsNtB5_13DecodeOptions3new
FN:455,_RNvMs6_NtCs7MLK0KUMdQf_14copybook_codec7optionsNtB5_13EncodeOptions11with_format
FN:497,_RNvMs6_NtCs7MLK0KUMdQf_14copybook_codec7optionsNtB5_13EncodeOptions12with_threads
FN:469,_RNvMs6_NtCs7MLK0KUMdQf_14copybook_codec7optionsNtB5_13EncodeOptions12with_use_raw
FN:462,_RNvMs6_NtCs7MLK0KUMdQf_14copybook_codec7optionsNtB5_13EncodeOptions13with_codepage
FN:476,_RNvMs6_NtCs7MLK0KUMdQf_14copybook_codec7optionsNtB5_13EncodeOptions15with_bwz_encode
FN:490,_RNvMs6_NtCs7MLK0KUMdQf_14copybook_codec7optionsNtB5_13EncodeOptions15with_max_errors
FN:483,_RNvMs6_NtCs7MLK0KUMdQf_14copybook_codec7optionsNtB5_13EncodeOptions16with_strict_mode
FN:504,_RNvMs6_NtCs7MLK0KUMdQf_14copybook_codec7optionsNtB5_13EncodeOptions19with_coerce_numbers
FN:527,_RNvMs6_NtCs7MLK0KUMdQf_14copybook_codec7optionsNtB5_13EncodeOptions26with_zoned_encoding_format
FN:515,_RNvMs6_NtCs7MLK0KUMdQf_14copybook_codec7optionsNtB5_13EncodeOptions28with_zoned_encoding_override
FN:449,_RNvMs6_NtCs7MLK0KUMdQf_14copybook_codec7optionsNtB5_13EncodeOptions3new
FN:533,_RNvXs7_NtCs7MLK0KUMdQf_14copybook_codec7optionsNtB5_12RecordFormatNtNtCshnvtj5zUHGu_4core3fmt7Display3fmt
FN:542,_RNvXs8_NtCs7MLK0KUMdQf_14copybook_codec7optionsNtB5_8CodepageNtNtCshnvtj5zUHGu_4core3fmt7Display3fmt
FN:555,_RNvXs9_NtCs7MLK0KUMdQf_14copybook_codec7optionsNtB5_14JsonNumberModeNtNtCshnvtj5zUHGu_4core3fmt7Display3fmt
FN:84,_RNvXs_NtCs7MLK0KUMdQf_14copybook_codec7optionsNtB4_19ZonedEncodingFormatNtNtCshnvtj5zUHGu_4core3fmt7Display3fmt
FN:564,_RNvXsa_NtCs7MLK0KUMdQf_14copybook_codec7optionsNtB5_7RawModeNtNtCshnvtj5zUHGu_4core3fmt7Display3fmt
FN:575,_RNvXsb_NtCs7MLK0KUMdQf_14copybook_codec7optionsNtB5_16UnmappablePolicyNtNtCshnvtj5zUHGu_4core3fmt7Display3fmt
FNDA:2,_RNvMNtCs8M7rtMEmd2k_14copybook_codec7optionsNtB2_19ZonedEncodingFormat11description
FNDA:0,_RNvMNtCs8M7rtMEmd2k_14copybook_codec7optionsNtB2_19ZonedEncodingFormat16detect_from_byte
FNDA:0,_RNvMNtCs8M7rtMEmd2k_14copybook_codec7optionsNtB2_19ZonedEncodingFormat7is_auto
FNDA:2,_RNvMNtCs8M7rtMEmd2k_14copybook_codec7optionsNtB2_19ZonedEncodingFormat8is_ascii
FNDA:2,_RNvMNtCs8M7rtMEmd2k_14copybook_codec7optionsNtB2_19ZonedEncodingFormat9is_ebcdic
FNDA:0,_RNvMs0_NtCs8M7rtMEmd2k_14copybook_codec7optionsNtB5_12RecordFormat11description
FNDA:0,_RNvMs0_NtCs8M7rtMEmd2k_14copybook_codec7optionsNtB5_12RecordFormat11is_variable
FNDA:0,_RNvMs0_NtCs8M7rtMEmd2k_14copybook_codec7optionsNtB5_12RecordFormat8is_fixed
FNDA:0,_RNvMs1_NtCs8M7rtMEmd2k_14copybook_codec7optionsNtB5_8Codepage11description
FNDA:0,_RNvMs1_NtCs8M7rtMEmd2k_14copybook_codec7optionsNtB5_8Codepage16code_page_number
FNDA:6,_RNvMs1_NtCs8M7rtMEmd2k_14copybook_codec7optionsNtB5_8Codepage8is_ascii
FNDA:0,_RNvMs1_NtCs8M7rtMEmd2k_14copybook_codec7optionsNtB5_8Codepage9is_ebcdic
FNDA:0,_RNvMs2_NtCs8M7rtMEmd2k_14copybook_codec7optionsNtB5_14JsonNumberMode11description
FNDA:0,_RNvMs2_NtCs8M7rtMEmd2k_14copybook_codec7optionsNtB5_14JsonNumberMode11is_lossless
FNDA:0,_RNvMs2_NtCs8M7rtMEmd2k_14copybook_codec7optionsNtB5_14JsonNumberMode9is_native
FNDA:2928,_RNvMs4_NtCs8M7rtMEmd2k_14copybook_codec7optionsNtB5_13DecodeOptions11with_format
FNDA:819,_RNvMs4_NtCs8M7rtMEmd2k_14copybook_codec7optionsNtB5_13DecodeOptions12with_threads
FNDA:2933,_RNvMs4_NtCs8M7rtMEmd2k_14copybook_codec7optionsNtB5_13DecodeOptions13with_codepage
FNDA:816,_RNvMs4_NtCs8M7rtMEmd2k_14copybook_codec7optionsNtB5_13DecodeOptions13with_emit_raw
FNDA:816,_RNvMs4_NtCs8M7rtMEmd2k_14copybook_codec7optionsNtB5_13DecodeOptions14with_emit_meta
FNDA:816,_RNvMs4_NtCs8M7rtMEmd2k_14copybook_codec7optionsNtB5_13DecodeOptions15with_max_errors
FNDA:816,_RNvMs4_NtCs8M7rtMEmd2k_14copybook_codec7optionsNtB5_13DecodeOptions16with_emit_filler
FNDA:817,_RNvMs4_NtCs8M7rtMEmd2k_14copybook_codec7optionsNtB5_13DecodeOptions16with_strict_mode
FNDA:839,_RNvMs4_NtCs8M7rtMEmd2k_14copybook_codec7optionsNtB5_13DecodeOptions21with_json_number_mode
FNDA:816,_RNvMs4_NtCs8M7rtMEmd2k_14copybook_codec7optionsNtB5_13DecodeOptions22with_unmappable_policy
FNDA:1320,_RNvMs4_NtCs8M7rtMEmd2k_14copybook_codec7optionsNtB5_13DecodeOptions28with_preserve_zoned_encoding
FNDA:799,_RNvMs4_NtCs8M7rtMEmd2k_14copybook_codec7optionsNtB5_13DecodeOptions29with_preferred_zoned_encoding
FNDA:2935,_RNvMs4_NtCs8M7rtMEmd2k_14copybook_codec7optionsNtB5_13DecodeOptions3new
FNDA:1316,_RNvMs6_NtCs8M7rtMEmd2k_14copybook_codec7optionsNtB5_13EncodeOptions11with_format
FNDA:782,_RNvMs6_NtCs8M7rtMEmd2k_14copybook_codec7optionsNtB5_13EncodeOptions12with_threads
FNDA:782,_RNvMs6_NtCs8M7rtMEmd2k_14copybook_codec7optionsNtB5_13EncodeOptions12with_use_raw
FNDA:1316,_RNvMs6_NtCs8M7rtMEmd2k_14copybook_codec7optionsNtB5_13EncodeOptions13with_codepage
FNDA:782,_RNvMs6_NtCs8M7rtMEmd2k_14copybook_codec7optionsNtB5_13EncodeOptions15with_bwz_encode
FNDA:782,_RNvMs6_NtCs8M7rtMEmd2k_14copybook_codec7optionsNtB5_13EncodeOptions15with_max_errors
FNDA:786,_RNvMs6_NtCs8M7rtMEmd2k_14copybook_codec7optionsNtB5_13EncodeOptions16with_strict_mode
FNDA:782,_RNvMs6_NtCs8M7rtMEmd2k_14copybook_codec7optionsNtB5_13EncodeOptions19with_coerce_numbers
FNDA:520,_RNvMs6_NtCs8M7rtMEmd2k_14copybook_codec7optionsNtB5_13EncodeOptions26with_zoned_encoding_format
FNDA:786,_RNvMs6_NtCs8M7rtMEmd2k_14copybook_codec7optionsNtB5_13EncodeOptions28with_zoned_encoding_override
FNDA:1317,_RNvMs6_NtCs8M7rtMEmd2k_14copybook_codec7optionsNtB5_13EncodeOptions3new
FNDA:2938,_RNvXs3_NtCs8M7rtMEmd2k_14copybook_codec7optionsNtB5_13DecodeOptionsNtNtCshnvtj5zUHGu_4core7default7Default7default
FNDA:1317,_RNvXs5_NtCs8M7rtMEmd2k_14copybook_codec7optionsNtB5_13EncodeOptionsNtNtCshnvtj5zUHGu_4core7default7Default7default
FNDA:0,_RNvXs7_NtCs8M7rtMEmd2k_14copybook_codec7optionsNtB5_12RecordFormatNtNtCshnvtj5zUHGu_4core3fmt7Display3fmt
FNDA:25,_RNvXs8_NtCs8M7rtMEmd2k_14copybook_codec7optionsNtB5_8CodepageNtNtCshnvtj5zUHGu_4core3fmt7Display3fmt
FNDA:0,_RNvXs9_NtCs8M7rtMEmd2k_14copybook_codec7optionsNtB5_14JsonNumberModeNtNtCshnvtj5zUHGu_4core3fmt7Display3fmt
FNDA:0,_RNvXs_NtCs8M7rtMEmd2k_14copybook_codec7optionsNtB4_19ZonedEncodingFormatNtNtCshnvtj5zUHGu_4core3fmt7Display3fmt
FNDA:0,_RNvXsa_NtCs8M7rtMEmd2k_14copybook_codec7optionsNtB5_7RawModeNtNtCshnvtj5zUHGu_4core3fmt7Display3fmt
FNDA:0,_RNvXsb_NtCs8M7rtMEmd2k_14copybook_codec7optionsNtB5_16UnmappablePolicyNtNtCshnvtj5zUHGu_4core3fmt7Display3fmt
FNDA:7,_RNvXs3_NtCs7MLK0KUMdQf_14copybook_codec7optionsNtB5_13DecodeOptionsNtNtCshnvtj5zUHGu_4core7default7Default7default
FNDA:6,_RNvXs5_NtCs7MLK0KUMdQf_14copybook_codec7optionsNtB5_13EncodeOptionsNtNtCshnvtj5zUHGu_4core7default7Default7default
FNDA:0,_RNvMNtCs7MLK0KUMdQf_14copybook_codec7optionsNtB2_19ZonedEncodingFormat11description
FNDA:0,_RNvMNtCs7MLK0KUMdQf_14copybook_codec7optionsNtB2_19ZonedEncodingFormat16detect_from_byte
FNDA:0,_RNvMNtCs7MLK0KUMdQf_14copybook_codec7optionsNtB2_19ZonedEncodingFormat7is_auto
FNDA:0,_RNvMNtCs7MLK0KUMdQf_14copybook_codec7optionsNtB2_19ZonedEncodingFormat8is_ascii
FNDA:0,_RNvMNtCs7MLK0KUMdQf_14copybook_codec7optionsNtB2_19ZonedEncodingFormat9is_ebcdic
FNDA:0,_RNvMs0_NtCs7MLK0KUMdQf_14copybook_codec7optionsNtB5_12RecordFormat11description
FNDA:0,_RNvMs0_NtCs7MLK0KUMdQf_14copybook_codec7optionsNtB5_12RecordFormat11is_variable
FNDA:0,_RNvMs0_NtCs7MLK0KUMdQf_14copybook_codec7optionsNtB5_12RecordFormat8is_fixed
FNDA:0,_RNvMs1_NtCs7MLK0KUMdQf_14copybook_codec7optionsNtB5_8Codepage11description
FNDA:0,_RNvMs1_NtCs7MLK0KUMdQf_14copybook_codec7optionsNtB5_8Codepage16code_page_number
FNDA:0,_RNvMs1_NtCs7MLK0KUMdQf_14copybook_codec7optionsNtB5_8Codepage8is_ascii
FNDA:0,_RNvMs1_NtCs7MLK0KUMdQf_14copybook_codec7optionsNtB5_8Codepage9is_ebcdic
FNDA:0,_RNvMs2_NtCs7MLK0KUMdQf_14copybook_codec7optionsNtB5_14JsonNumberMode11description
FNDA:0,_RNvMs2_NtCs7MLK0KUMdQf_14copybook_codec7optionsNtB5_14JsonNumberMode11is_lossless
FNDA:0,_RNvMs2_NtCs7MLK0KUMdQf_14copybook_codec7optionsNtB5_14JsonNumberMode9is_native
FNDA:0,_RNvMs4_NtCs7MLK0KUMdQf_14copybook_codec7optionsNtB5_13DecodeOptions11with_format
FNDA:0,_RNvMs4_NtCs7MLK0KUMdQf_14copybook_codec7optionsNtB5_13DecodeOptions12with_threads
FNDA:0,_RNvMs4_NtCs7MLK0KUMdQf_14copybook_codec7optionsNtB5_13DecodeOptions13with_codepage
FNDA:0,_RNvMs4_NtCs7MLK0KUMdQf_14copybook_codec7optionsNtB5_13DecodeOptions13with_emit_raw
FNDA:0,_RNvMs4_NtCs7MLK0KUMdQf_14copybook_codec7optionsNtB5_13DecodeOptions14with_emit_meta
FNDA:0,_RNvMs4_NtCs7MLK0KUMdQf_14copybook_codec7optionsNtB5_13DecodeOptions15with_max_errors
FNDA:0,_RNvMs4_NtCs7MLK0KUMdQf_14copybook_codec7optionsNtB5_13DecodeOptions16with_emit_filler
FNDA:0,_RNvMs4_NtCs7MLK0KUMdQf_14copybook_codec7optionsNtB5_13DecodeOptions16with_strict_mode
FNDA:0,_RNvMs4_NtCs7MLK0KUMdQf_14copybook_codec7optionsNtB5_13DecodeOptions21with_json_number_mode
FNDA:0,_RNvMs4_NtCs7MLK0KUMdQf_14copybook_codec7optionsNtB5_13DecodeOptions22with_unmappable_policy
FNDA:0,_RNvMs4_NtCs7MLK0KUMdQf_14copybook_codec7optionsNtB5_13DecodeOptions28with_preserve_zoned_encoding
FNDA:0,_RNvMs4_NtCs7MLK0KUMdQf_14copybook_codec7optionsNtB5_13DecodeOptions29with_preferred_zoned_encoding
FNDA:0,_RNvMs4_NtCs7MLK0KUMdQf_14copybook_codec7optionsNtB5_13DecodeOptions3new
FNDA:0,_RNvMs6_NtCs7MLK0KUMdQf_14copybook_codec7optionsNtB5_13EncodeOptions11with_format
FNDA:0,_RNvMs6_NtCs7MLK0KUMdQf_14copybook_codec7optionsNtB5_13EncodeOptions12with_threads
FNDA:0,_RNvMs6_NtCs7MLK0KUMdQf_14copybook_codec7optionsNtB5_13EncodeOptions12with_use_raw
FNDA:0,_RNvMs6_NtCs7MLK0KUMdQf_14copybook_codec7optionsNtB5_13EncodeOptions13with_codepage
FNDA:0,_RNvMs6_NtCs7MLK0KUMdQf_14copybook_codec7optionsNtB5_13EncodeOptions15with_bwz_encode
FNDA:0,_RNvMs6_NtCs7MLK0KUMdQf_14copybook_codec7optionsNtB5_13EncodeOptions15with_max_errors
FNDA:0,_RNvMs6_NtCs7MLK0KUMdQf_14copybook_codec7optionsNtB5_13EncodeOptions16with_strict_mode
FNDA:0,_RNvMs6_NtCs7MLK0KUMdQf_14copybook_codec7optionsNtB5_13EncodeOptions19with_coerce_numbers
FNDA:0,_RNvMs6_NtCs7MLK0KUMdQf_14copybook_codec7optionsNtB5_13EncodeOptions26with_zoned_encoding_format
FNDA:0,_RNvMs6_NtCs7MLK0KUMdQf_14copybook_codec7optionsNtB5_13EncodeOptions28with_zoned_encoding_override
FNDA:0,_RNvMs6_NtCs7MLK0KUMdQf_14copybook_codec7optionsNtB5_13EncodeOptions3new
FNDA:0,_RNvXs7_NtCs7MLK0KUMdQf_14copybook_codec7optionsNtB5_12RecordFormatNtNtCshnvtj5zUHGu_4core3fmt7Display3fmt
FNDA:0,_RNvXs8_NtCs7MLK0KUMdQf_14copybook_codec7optionsNtB5_8CodepageNtNtCshnvtj5zUHGu_4core3fmt7Display3fmt
FNDA:0,_RNvXs9_NtCs7MLK0KUMdQf_14copybook_codec7optionsNtB5_14JsonNumberModeNtNtCshnvtj5zUHGu_4core3fmt7Display3fmt
FNDA:0,_RNvXs_NtCs7MLK0KUMdQf_14copybook_codec7optionsNtB4_19ZonedEncodingFormatNtNtCshnvtj5zUHGu_4core3fmt7Display3fmt
FNDA:0,_RNvXsa_NtCs7MLK0KUMdQf_14copybook_codec7optionsNtB5_7RawModeNtNtCshnvtj5zUHGu_4core3fmt7Display3fmt
FNDA:0,_RNvXsb_NtCs7MLK0KUMdQf_14copybook_codec7optionsNtB5_16UnmappablePolicyNtNtCshnvtj5zUHGu_4core3fmt7Display3fmt
FNF:47
FNH:31
DA:35,2
DA:36,2
DA:37,2
DA:41,2
DA:42,2
DA:43,2
DA:47,0
DA:48,0
DA:49,0
DA:53,2
DA:54,2
DA:55,1
DA:56,1
DA:57,0
DA:59,2
DA:71,0
DA:74,0
DA:75,0
DA:76,0
DA:77,0
DA:78,0
DA:80,0
DA:84,0
DA:85,0
DA:86,0
DA:87,0
DA:88,0
DA:90,0
DA:173,0
DA:174,0
DA:175,0
DA:179,0
DA:180,0
DA:181,0
DA:185,0
DA:186,0
DA:187,0
DA:188,0
DA:190,0
DA:213,6
DA:214,6
DA:215,6
DA:219,0
DA:220,0
DA:221,0
DA:225,0
DA:226,0
DA:227,0
DA:228,0
DA:229,0
DA:230,0
DA:231,0
DA:232,0
DA:234,0
DA:238,0
DA:239,0
DA:240,0
DA:241,0
DA:242,0
DA:243,0
DA:244,0
DA:245,0
DA:247,0
DA:262,0
DA:263,0
DA:264,0
DA:268,0
DA:269,0
DA:270,0
DA:274,0
DA:275,0
DA:276,0
DA:277,0
DA:279,0
DA:308,2945
DA:309,2945
DA:310,2945
DA:311,2945
DA:312,2945
DA:313,2945
DA:314,2945
DA:315,2945
DA:316,2945
DA:317,2945
DA:318,2945
DA:319,2945
DA:320,2945
DA:321,2945
DA:322,2945
DA:323,2945
DA:329,2935
DA:330,2935
DA:331,2935
DA:335,2928
DA:336,2928
DA:337,2928
DA:338,2928
DA:342,2933
DA:343,2933
DA:344,2933
DA:345,2933
DA:349,839
DA:350,839
DA:351,839
DA:352,839
DA:356,816
DA:357,816
DA:358,816
DA:359,816
DA:363,816
DA:364,816
DA:365,816
DA:366,816
DA:370,816
DA:371,816
DA:372,816
DA:373,816
DA:377,817
DA:378,817
DA:379,817
DA:380,817
DA:384,816
DA:385,816
DA:386,816
DA:387,816
DA:391,816
DA:392,816
DA:393,816
DA:394,816
DA:398,819
DA:399,819
DA:400,819
DA:401,819
DA:411,1320
DA:412,1320
DA:413,1320
DA:414,1320
DA:421,799
DA:422,799
DA:423,799
DA:424,799
DA:425,799
DA:426,799
DA:427,799
DA:431,1323
DA:432,1323
DA:433,1323
DA:434,1323
DA:435,1323
DA:436,1323
DA:437,1323
DA:438,1323
DA:439,1323
DA:440,1323
DA:441,1323
DA:442,1323
DA:443,1323
DA:449,1317
DA:450,1317
DA:451,1317
DA:455,1316
DA:456,1316
DA:457,1316
DA:458,1316
DA:462,1316
DA:463,1316
DA:464,1316
DA:465,1316
DA:469,782
DA:470,782
DA:471,782
DA:472,782
DA:476,782
DA:477,782
DA:478,782
DA:479,782
DA:483,786
DA:484,786
DA:485,786
DA:486,786
DA:490,782
DA:491,782
DA:492,782
DA:493,782
DA:497,782
DA:498,782
DA:499,782
DA:500,782
DA:504,782
DA:505,782
DA:506,782
DA:507,782
DA:515,786
DA:516,786
DA:517,786
DA:518,786
DA:519,786
DA:520,786
DA:521,786
DA:527,520
DA:528,520
DA:529,520
DA:530,520
DA:533,0
DA:534,0
DA:535,0
DA:536,0
DA:538,0
DA:542,25
DA:543,25
DA:544,7
DA:545,18
DA:546,0
DA:547,0
DA:548,0
DA:549,0
DA:551,25
DA:555,0
DA:556,0
DA:557,0
DA:558,0
DA:560,0
DA:564,0
DA:565,0
DA:566,0
DA:567,0
DA:568,0
DA:569,0
DA:571,0
DA:575,0
DA:576,0
DA:577,0
DA:578,0
DA:579,0
DA:581,0
BRF:0
BRH:0
LF:235
LH:148
end_of_record
SF:/home/steven/code/Rust/copybook-rs/copybook-codec/src/record.rs
FN:28,_RNCNvMNtCs8M7rtMEmd2k_14copybook_codec6recordINtB4_17FixedRecordReaderNtNtCs4eoO4cHkFdT_3std2fs4FileE3new0Csi2GSroy6duf_8copybook
FN:561,_RNCNvMs0_NtCs8M7rtMEmd2k_14copybook_codec6recordINtB7_15RDWRecordReaderNtNtCs4eoO4cHkFdT_3std2fs4FileE27is_suspect_ascii_corruption0Csi2GSroy6duf_8copybook
FN:49,_RNvMNtCs8M7rtMEmd2k_14copybook_codec6recordINtB2_17FixedRecordReaderNtNtCs4eoO4cHkFdT_3std2fs4FileE11read_recordCsi2GSroy6duf_8copybook
FN:26,_RNvMNtCs8M7rtMEmd2k_14copybook_codec6recordINtB2_17FixedRecordReaderNtNtCs4eoO4cHkFdT_3std2fs4FileE3newCsi2GSroy6duf_8copybook
FN:335,_RNvMs0_NtCs8M7rtMEmd2k_14copybook_codec6recordINtB5_15RDWRecordReaderNtNtCs4eoO4cHkFdT_3std2fs4FileE11read_recordCsi2GSroy6duf_8copybook
FN:555,_RNvMs0_NtCs8M7rtMEmd2k_14copybook_codec6recordINtB5_15RDWRecordReaderNtNtCs4eoO4cHkFdT_3std2fs4FileE27is_suspect_ascii_corruptionCsi2GSroy6duf_8copybook
FN:322,_RNvMs0_NtCs8M7rtMEmd2k_14copybook_codec6recordINtB5_15RDWRecordReaderNtNtCs4eoO4cHkFdT_3std2fs4FileE3newCsi2GSroy6duf_8copybook
FN:724,_RNvMs2_NtCs8M7rtMEmd2k_14copybook_codec6recordNtB5_9RDWRecord13with_reserved
FN:751,_RNvMs2_NtCs8M7rtMEmd2k_14copybook_codec6recordNtB5_9RDWRecord16recompute_length
FN:769,_RNvMs2_NtCs8M7rtMEmd2k_14copybook_codec6recordNtB5_9RDWRecord21get_data_for_raw_mode
FN:714,_RNvMs2_NtCs8M7rtMEmd2k_14copybook_codec6recordNtB5_9RDWRecord3new
FN:740,_RNvMs2_NtCs8M7rtMEmd2k_14copybook_codec6recordNtB5_9RDWRecord6length
FN:760,_RNvMs2_NtCs8M7rtMEmd2k_14copybook_codec6recordNtB5_9RDWRecord8as_bytes
FN:746,_RNvMs2_NtCs8M7rtMEmd2k_14copybook_codec6recordNtB5_9RDWRecord8reserved
FN:536,_RNvNvMs0_NtCs8M7rtMEmd2k_14copybook_codec6recordINtB7_15RDWRecordReaderpE29calculate_schema_fixed_prefix15find_record_end
FN:509,_RNvNvMs0_NtCs8M7rtMEmd2k_14copybook_codec6recordINtB7_15RDWRecordReaderpE29calculate_schema_fixed_prefix21find_first_odo_offset
FN:28,_RNCNvMNtCs8M7rtMEmd2k_14copybook_codec6recordINtB4_17FixedRecordReaderINtNtNtCs4eoO4cHkFdT_3std2io6cursor6CursorRINtNtCs31agqjrRntl_5alloc3vec3VechEEE3new0CslzLlZWW49z1_18canonical_fixtures
FN:561,_RNCNvMs0_NtCs8M7rtMEmd2k_14copybook_codec6recordINtB7_15RDWRecordReaderINtNtNtCs4eoO4cHkFdT_3std2io6cursor6CursorRINtNtCs31agqjrRntl_5alloc3vec3VechEEE27is_suspect_ascii_corruption0CslzLlZWW49z1_18canonical_fixtures
FN:49,_RNvMNtCs8M7rtMEmd2k_14copybook_codec6recordINtB2_17FixedRecordReaderINtNtNtCs4eoO4cHkFdT_3std2io6cursor6CursorRINtNtCs31agqjrRntl_5alloc3vec3VechEEE11read_recordCslzLlZWW49z1_18canonical_fixtures
FN:26,_RNvMNtCs8M7rtMEmd2k_14copybook_codec6recordINtB2_17FixedRecordReaderINtNtNtCs4eoO4cHkFdT_3std2io6cursor6CursorRINtNtCs31agqjrRntl_5alloc3vec3VechEEE3newCslzLlZWW49z1_18canonical_fixtures
FN:335,_RNvMs0_NtCs8M7rtMEmd2k_14copybook_codec6recordINtB5_15RDWRecordReaderINtNtNtCs4eoO4cHkFdT_3std2io6cursor6CursorRINtNtCs31agqjrRntl_5alloc3vec3VechEEE11read_recordCslzLlZWW49z1_18canonical_fixtures
FN:555,_RNvMs0_NtCs8M7rtMEmd2k_14copybook_codec6recordINtB5_15RDWRecordReaderINtNtNtCs4eoO4cHkFdT_3std2io6cursor6CursorRINtNtCs31agqjrRntl_5alloc3vec3VechEEE27is_suspect_ascii_corruptionCslzLlZWW49z1_18canonical_fixtures
FN:322,_RNvMs0_NtCs8M7rtMEmd2k_14copybook_codec6recordINtB5_15RDWRecordReaderINtNtNtCs4eoO4cHkFdT_3std2io6cursor6CursorRINtNtCs31agqjrRntl_5alloc3vec3VechEEE3newCslzLlZWW49z1_18canonical_fixtures
FN:28,_RNCNvMNtCs8M7rtMEmd2k_14copybook_codec6recordINtB4_17FixedRecordReaderINtNtNtCs4eoO4cHkFdT_3std2io6cursor6CursorRINtNtCs31agqjrRntl_5alloc3vec3VechEEE3new0Cs9bNFeEA8lew_34cobol_fixture_zoned_encoding_tests
FN:561,_RNCNvMs0_NtCs8M7rtMEmd2k_14copybook_codec6recordINtB7_15RDWRecordReaderINtNtNtCs4eoO4cHkFdT_3std2io6cursor6CursorRINtNtCs31agqjrRntl_5alloc3vec3VechEEE27is_suspect_ascii_corruption0Cs9bNFeEA8lew_34cobol_fixture_zoned_encoding_tests
FN:49,_RNvMNtCs8M7rtMEmd2k_14copybook_codec6recordINtB2_17FixedRecordReaderINtNtNtCs4eoO4cHkFdT_3std2io6cursor6CursorRINtNtCs31agqjrRntl_5alloc3vec3VechEEE11read_recordCs9bNFeEA8lew_34cobol_fixture_zoned_encoding_tests
FN:26,_RNvMNtCs8M7rtMEmd2k_14copybook_codec6recordINtB2_17FixedRecordReaderINtNtNtCs4eoO4cHkFdT_3std2io6cursor6CursorRINtNtCs31agqjrRntl_5alloc3vec3VechEEE3newCs9bNFeEA8lew_34cobol_fixture_zoned_encoding_tests
FN:335,_RNvMs0_NtCs8M7rtMEmd2k_14copybook_codec6recordINtB5_15RDWRecordReaderINtNtNtCs4eoO4cHkFdT_3std2io6cursor6CursorRINtNtCs31agqjrRntl_5alloc3vec3VechEEE11read_recordCs9bNFeEA8lew_34cobol_fixture_zoned_encoding_tests
FN:555,_RNvMs0_NtCs8M7rtMEmd2k_14copybook_codec6recordINtB5_15RDWRecordReaderINtNtNtCs4eoO4cHkFdT_3std2io6cursor6CursorRINtNtCs31agqjrRntl_5alloc3vec3VechEEE27is_suspect_ascii_corruptionCs9bNFeEA8lew_34cobol_fixture_zoned_encoding_tests
FN:322,_RNvMs0_NtCs8M7rtMEmd2k_14copybook_codec6recordINtB5_15RDWRecordReaderINtNtNtCs4eoO4cHkFdT_3std2io6cursor6CursorRINtNtCs31agqjrRntl_5alloc3vec3VechEEE3newCs9bNFeEA8lew_34cobol_fixture_zoned_encoding_tests
FN:28,_RNCNvMNtCs8M7rtMEmd2k_14copybook_codec6recordINtB4_17FixedRecordReaderINtNtNtCs4eoO4cHkFdT_3std2io6cursor6CursorINtNtCs31agqjrRntl_5alloc3vec3VechEEE3new0CshMCmDISD09f_27comprehensive_numeric_tests
FN:28,_RNCNvMNtCs8M7rtMEmd2k_14copybook_codec6recordINtB4_17FixedRecordReaderINtNtNtCs4eoO4cHkFdT_3std2io6cursor6CursorRAhj2_EE3new0CshMCmDISD09f_27comprehensive_numeric_tests
FN:28,_RNCNvMNtCs8M7rtMEmd2k_14copybook_codec6recordINtB4_17FixedRecordReaderINtNtNtCs4eoO4cHkFdT_3std2io6cursor6CursorRAhj3_EE3new0CshMCmDISD09f_27comprehensive_numeric_tests
FN:28,_RNCNvMNtCs8M7rtMEmd2k_14copybook_codec6recordINtB4_17FixedRecordReaderINtNtNtCs4eoO4cHkFdT_3std2io6cursor6CursorRAhj5_EE3new0CshMCmDISD09f_27comprehensive_numeric_tests
FN:28,_RNCNvMNtCs8M7rtMEmd2k_14copybook_codec6recordINtB4_17FixedRecordReaderINtNtNtCs4eoO4cHkFdT_3std2io6cursor6CursorRAhj9_EE3new0CshMCmDISD09f_27comprehensive_numeric_tests
FN:28,_RNCNvMNtCs8M7rtMEmd2k_14copybook_codec6recordINtB4_17FixedRecordReaderINtNtNtCs4eoO4cHkFdT_3std2io6cursor6CursorRAhja_EE3new0CshMCmDISD09f_27comprehensive_numeric_tests
FN:28,_RNCNvMNtCs8M7rtMEmd2k_14copybook_codec6recordINtB4_17FixedRecordReaderINtNtNtCs4eoO4cHkFdT_3std2io6cursor6CursorRAhjc_EE3new0CshMCmDISD09f_27comprehensive_numeric_tests
FN:28,_RNCNvMNtCs8M7rtMEmd2k_14copybook_codec6recordINtB4_17FixedRecordReaderINtNtNtCs4eoO4cHkFdT_3std2io6cursor6CursorRAhjf_EE3new0CshMCmDISD09f_27comprehensive_numeric_tests
FN:561,_RNCNvMs0_NtCs8M7rtMEmd2k_14copybook_codec6recordINtB7_15RDWRecordReaderINtNtNtCs4eoO4cHkFdT_3std2io6cursor6CursorINtNtCs31agqjrRntl_5alloc3vec3VechEEE27is_suspect_ascii_corruption0CshMCmDISD09f_27comprehensive_numeric_tests
FN:561,_RNCNvMs0_NtCs8M7rtMEmd2k_14copybook_codec6recordINtB7_15RDWRecordReaderINtNtNtCs4eoO4cHkFdT_3std2io6cursor6CursorRAhj2_EE27is_suspect_ascii_corruption0CshMCmDISD09f_27comprehensive_numeric_tests
FN:561,_RNCNvMs0_NtCs8M7rtMEmd2k_14copybook_codec6recordINtB7_15RDWRecordReaderINtNtNtCs4eoO4cHkFdT_3std2io6cursor6CursorRAhj3_EE27is_suspect_ascii_corruption0CshMCmDISD09f_27comprehensive_numeric_tests
FN:561,_RNCNvMs0_NtCs8M7rtMEmd2k_14copybook_codec6recordINtB7_15RDWRecordReaderINtNtNtCs4eoO4cHkFdT_3std2io6cursor6CursorRAhj5_EE27is_suspect_ascii_corruption0CshMCmDISD09f_27comprehensive_numeric_tests
FN:561,_RNCNvMs0_NtCs8M7rtMEmd2k_14copybook_codec6recordINtB7_15RDWRecordReaderINtNtNtCs4eoO4cHkFdT_3std2io6cursor6CursorRAhj9_EE27is_suspect_ascii_corruption0CshMCmDISD09f_27comprehensive_numeric_tests
FN:561,_RNCNvMs0_NtCs8M7rtMEmd2k_14copybook_codec6recordINtB7_15RDWRecordReaderINtNtNtCs4eoO4cHkFdT_3std2io6cursor6CursorRAhja_EE27is_suspect_ascii_corruption0CshMCmDISD09f_27comprehensive_numeric_tests
FN:561,_RNCNvMs0_NtCs8M7rtMEmd2k_14copybook_codec6recordINtB7_15RDWRecordReaderINtNtNtCs4eoO4cHkFdT_3std2io6cursor6CursorRAhjc_EE27is_suspect_ascii_corruption0CshMCmDISD09f_27comprehensive_numeric_tests
FN:561,_RNCNvMs0_NtCs8M7rtMEmd2k_14copybook_codec6recordINtB7_15RDWRecordReaderINtNtNtCs4eoO4cHkFdT_3std2io6cursor6CursorRAhjf_EE27is_suspect_ascii_corruption0CshMCmDISD09f_27comprehensive_numeric_tests
FN:49,_RNvMNtCs8M7rtMEmd2k_14copybook_codec6recordINtB2_17FixedRecordReaderINtNtNtCs4eoO4cHkFdT_3std2io6cursor6CursorINtNtCs31agqjrRntl_5alloc3vec3VechEEE11read_recordCshMCmDISD09f_27comprehensive_numeric_tests
FN:26,_RNvMNtCs8M7rtMEmd2k_14copybook_codec6recordINtB2_17FixedRecordReaderINtNtNtCs4eoO4cHkFdT_3std2io6cursor6CursorINtNtCs31agqjrRntl_5alloc3vec3VechEEE3newCshMCmDISD09f_27comprehensive_numeric_tests
FN:49,_RNvMNtCs8M7rtMEmd2k_14copybook_codec6recordINtB2_17FixedRecordReaderINtNtNtCs4eoO4cHkFdT_3std2io6cursor6CursorRAhj2_EE11read_recordCshMCmDISD09f_27comprehensive_numeric_tests
FN:26,_RNvMNtCs8M7rtMEmd2k_14copybook_codec6recordINtB2_17FixedRecordReaderINtNtNtCs4eoO4cHkFdT_3std2io6cursor6CursorRAhj2_EE3newCshMCmDISD09f_27comprehensive_numeric_tests
FN:49,_RNvMNtCs8M7rtMEmd2k_14copybook_codec6recordINtB2_17FixedRecordReaderINtNtNtCs4eoO4cHkFdT_3std2io6cursor6CursorRAhj3_EE11read_recordCshMCmDISD09f_27comprehensive_numeric_tests
FN:26,_RNvMNtCs8M7rtMEmd2k_14copybook_codec6recordINtB2_17FixedRecordReaderINtNtNtCs4eoO4cHkFdT_3std2io6cursor6CursorRAhj3_EE3newCshMCmDISD09f_27comprehensive_numeric_tests
FN:49,_RNvMNtCs8M7rtMEmd2k_14copybook_codec6recordINtB2_17FixedRecordReaderINtNtNtCs4eoO4cHkFdT_3std2io6cursor6CursorRAhj5_EE11read_recordCshMCmDISD09f_27comprehensive_numeric_tests
FN:26,_RNvMNtCs8M7rtMEmd2k_14copybook_codec6recordINtB2_17FixedRecordReaderINtNtNtCs4eoO4cHkFdT_3std2io6cursor6CursorRAhj5_EE3newCshMCmDISD09f_27comprehensive_numeric_tests
FN:49,_RNvMNtCs8M7rtMEmd2k_14copybook_codec6recordINtB2_17FixedRecordReaderINtNtNtCs4eoO4cHkFdT_3std2io6cursor6CursorRAhj9_EE11read_recordCshMCmDISD09f_27comprehensive_numeric_tests
FN:26,_RNvMNtCs8M7rtMEmd2k_14copybook_codec6recordINtB2_17FixedRecordReaderINtNtNtCs4eoO4cHkFdT_3std2io6cursor6CursorRAhj9_EE3newCshMCmDISD09f_27comprehensive_numeric_tests
FN:49,_RNvMNtCs8M7rtMEmd2k_14copybook_codec6recordINtB2_17FixedRecordReaderINtNtNtCs4eoO4cHkFdT_3std2io6cursor6CursorRAhja_EE11read_recordCshMCmDISD09f_27comprehensive_numeric_tests
FN:26,_RNvMNtCs8M7rtMEmd2k_14copybook_codec6recordINtB2_17FixedRecordReaderINtNtNtCs4eoO4cHkFdT_3std2io6cursor6CursorRAhja_EE3newCshMCmDISD09f_27comprehensive_numeric_tests
FN:49,_RNvMNtCs8M7rtMEmd2k_14copybook_codec6recordINtB2_17FixedRecordReaderINtNtNtCs4eoO4cHkFdT_3std2io6cursor6CursorRAhjc_EE11read_recordCshMCmDISD09f_27comprehensive_numeric_tests
FN:26,_RNvMNtCs8M7rtMEmd2k_14copybook_codec6recordINtB2_17FixedRecordReaderINtNtNtCs4eoO4cHkFdT_3std2io6cursor6CursorRAhjc_EE3newCshMCmDISD09f_27comprehensive_numeric_tests
FN:49,_RNvMNtCs8M7rtMEmd2k_14copybook_codec6recordINtB2_17FixedRecordReaderINtNtNtCs4eoO4cHkFdT_3std2io6cursor6CursorRAhjf_EE11read_recordCshMCmDISD09f_27comprehensive_numeric_tests
FN:26,_RNvMNtCs8M7rtMEmd2k_14copybook_codec6recordINtB2_17FixedRecordReaderINtNtNtCs4eoO4cHkFdT_3std2io6cursor6CursorRAhjf_EE3newCshMCmDISD09f_27comprehensive_numeric_tests
FN:335,_RNvMs0_NtCs8M7rtMEmd2k_14copybook_codec6recordINtB5_15RDWRecordReaderINtNtNtCs4eoO4cHkFdT_3std2io6cursor6CursorINtNtCs31agqjrRntl_5alloc3vec3VechEEE11read_recordCshMCmDISD09f_27comprehensive_numeric_tests
FN:555,_RNvMs0_NtCs8M7rtMEmd2k_14copybook_codec6recordINtB5_15RDWRecordReaderINtNtNtCs4eoO4cHkFdT_3std2io6cursor6CursorINtNtCs31agqjrRntl_5alloc3vec3VechEEE27is_suspect_ascii_corruptionCshMCmDISD09f_27comprehensive_numeric_tests
FN:322,_RNvMs0_NtCs8M7rtMEmd2k_14copybook_codec6recordINtB5_15RDWRecordReaderINtNtNtCs4eoO4cHkFdT_3std2io6cursor6CursorINtNtCs31agqjrRntl_5alloc3vec3VechEEE3newCshMCmDISD09f_27comprehensive_numeric_tests
FN:335,_RNvMs0_NtCs8M7rtMEmd2k_14copybook_codec6recordINtB5_15RDWRecordReaderINtNtNtCs4eoO4cHkFdT_3std2io6cursor6CursorRAhj2_EE11read_recordCshMCmDISD09f_27comprehensive_numeric_tests
FN:555,_RNvMs0_NtCs8M7rtMEmd2k_14copybook_codec6recordINtB5_15RDWRecordReaderINtNtNtCs4eoO4cHkFdT_3std2io6cursor6CursorRAhj2_EE27is_suspect_ascii_corruptionCshMCmDISD09f_27comprehensive_numeric_tests
FN:322,_RNvMs0_NtCs8M7rtMEmd2k_14copybook_codec6recordINtB5_15RDWRecordReaderINtNtNtCs4eoO4cHkFdT_3std2io6cursor6CursorRAhj2_EE3newCshMCmDISD09f_27comprehensive_numeric_tests
FN:335,_RNvMs0_NtCs8M7rtMEmd2k_14copybook_codec6recordINtB5_15RDWRecordReaderINtNtNtCs4eoO4cHkFdT_3std2io6cursor6CursorRAhj3_EE11read_recordCshMCmDISD09f_27comprehensive_numeric_tests
FN:555,_RNvMs0_NtCs8M7rtMEmd2k_14copybook_codec6recordINtB5_15RDWRecordReaderINtNtNtCs4eoO4cHkFdT_3std2io6cursor6CursorRAhj3_EE27is_suspect_ascii_corruptionCshMCmDISD09f_27comprehensive_numeric_tests
FN:322,_RNvMs0_NtCs8M7rtMEmd2k_14copybook_codec6recordINtB5_15RDWRecordReaderINtNtNtCs4eoO4cHkFdT_3std2io6cursor6CursorRAhj3_EE3newCshMCmDISD09f_27comprehensive_numeric_tests
FN:335,_RNvMs0_NtCs8M7rtMEmd2k_14copybook_codec6recordINtB5_15RDWRecordReaderINtNtNtCs4eoO4cHkFdT_3std2io6cursor6CursorRAhj5_EE11read_recordCshMCmDISD09f_27comprehensive_numeric_tests
FN:555,_RNvMs0_NtCs8M7rtMEmd2k_14copybook_codec6recordINtB5_15RDWRecordReaderINtNtNtCs4eoO4cHkFdT_3std2io6cursor6CursorRAhj5_EE27is_suspect_ascii_corruptionCshMCmDISD09f_27comprehensive_numeric_tests
FN:322,_RNvMs0_NtCs8M7rtMEmd2k_14copybook_codec6recordINtB5_15RDWRecordReaderINtNtNtCs4eoO4cHkFdT_3std2io6cursor6CursorRAhj5_EE3newCshMCmDISD09f_27comprehensive_numeric_tests
FN:335,_RNvMs0_NtCs8M7rtMEmd2k_14copybook_codec6recordINtB5_15RDWRecordReaderINtNtNtCs4eoO4cHkFdT_3std2io6cursor6CursorRAhj9_EE11read_recordCshMCmDISD09f_27comprehensive_numeric_tests
FN:555,_RNvMs0_NtCs8M7rtMEmd2k_14copybook_codec6recordINtB5_15RDWRecordReaderINtNtNtCs4eoO4cHkFdT_3std2io6cursor6CursorRAhj9_EE27is_suspect_ascii_corruptionCshMCmDISD09f_27comprehensive_numeric_tests
FN:322,_RNvMs0_NtCs8M7rtMEmd2k_14copybook_codec6recordINtB5_15RDWRecordReaderINtNtNtCs4eoO4cHkFdT_3std2io6cursor6CursorRAhj9_EE3newCshMCmDISD09f_27comprehensive_numeric_tests
FN:335,_RNvMs0_NtCs8M7rtMEmd2k_14copybook_codec6recordINtB5_15RDWRecordReaderINtNtNtCs4eoO4cHkFdT_3std2io6cursor6CursorRAhja_EE11read_recordCshMCmDISD09f_27comprehensive_numeric_tests
FN:555,_RNvMs0_NtCs8M7rtMEmd2k_14copybook_codec6recordINtB5_15RDWRecordReaderINtNtNtCs4eoO4cHkFdT_3std2io6cursor6CursorRAhja_EE27is_suspect_ascii_corruptionCshMCmDISD09f_27comprehensive_numeric_tests
FN:322,_RNvMs0_NtCs8M7rtMEmd2k_14copybook_codec6recordINtB5_15RDWRecordReaderINtNtNtCs4eoO4cHkFdT_3std2io6cursor6CursorRAhja_EE3newCshMCmDISD09f_27comprehensive_numeric_tests
FN:335,_RNvMs0_NtCs8M7rtMEmd2k_14copybook_codec6recordINtB5_15RDWRecordReaderINtNtNtCs4eoO4cHkFdT_3std2io6cursor6CursorRAhjc_EE11read_recordCshMCmDISD09f_27comprehensive_numeric_tests
FN:555,_RNvMs0_NtCs8M7rtMEmd2k_14copybook_codec6recordINtB5_15RDWRecordReaderINtNtNtCs4eoO4cHkFdT_3std2io6cursor6CursorRAhjc_EE27is_suspect_ascii_corruptionCshMCmDISD09f_27comprehensive_numeric_tests
FN:322,_RNvMs0_NtCs8M7rtMEmd2k_14copybook_codec6recordINtB5_15RDWRecordReaderINtNtNtCs4eoO4cHkFdT_3std2io6cursor6CursorRAhjc_EE3newCshMCmDISD09f_27comprehensive_numeric_tests
FN:335,_RNvMs0_NtCs8M7rtMEmd2k_14copybook_codec6recordINtB5_15RDWRecordReaderINtNtNtCs4eoO4cHkFdT_3std2io6cursor6CursorRAhjf_EE11read_recordCshMCmDISD09f_27comprehensive_numeric_tests
FN:555,_RNvMs0_NtCs8M7rtMEmd2k_14copybook_codec6recordINtB5_15RDWRecordReaderINtNtNtCs4eoO4cHkFdT_3std2io6cursor6CursorRAhjf_EE27is_suspect_ascii_corruptionCshMCmDISD09f_27comprehensive_numeric_tests
FN:322,_RNvMs0_NtCs8M7rtMEmd2k_14copybook_codec6recordINtB5_15RDWRecordReaderINtNtNtCs4eoO4cHkFdT_3std2io6cursor6CursorRAhjf_EE3newCshMCmDISD09f_27comprehensive_numeric_tests
FN:28,_RNCNvMNtCs8M7rtMEmd2k_14copybook_codec6recordINtB4_17FixedRecordReaderINtNtNtCs4eoO4cHkFdT_3std2io6cursor6CursorINtNtCs31agqjrRntl_5alloc3vec3VechEEE3new0CsgzuDHo0g7lo_23comprehensive_rdw_tests
FN:28,_RNCNvMNtCs8M7rtMEmd2k_14copybook_codec6recordINtB4_17FixedRecordReaderINtNtNtCs4eoO4cHkFdT_3std2io6cursor6CursorRAhj0_EE3new0CsgzuDHo0g7lo_23comprehensive_rdw_tests
FN:28,_RNCNvMNtCs8M7rtMEmd2k_14copybook_codec6recordINtB4_17FixedRecordReaderINtNtNtCs4eoO4cHkFdT_3std2io6cursor6CursorRAhj10_EE3new0CsgzuDHo0g7lo_23comprehensive_rdw_tests
FN:28,_RNCNvMNtCs8M7rtMEmd2k_14copybook_codec6recordINtB4_17FixedRecordReaderINtNtNtCs4eoO4cHkFdT_3std2io6cursor6CursorRAhj1b_EE3new0CsgzuDHo0g7lo_23comprehensive_rdw_tests
FN:28,_RNCNvMNtCs8M7rtMEmd2k_14copybook_codec6recordINtB4_17FixedRecordReaderINtNtNtCs4eoO4cHkFdT_3std2io6cursor6CursorRAhj2_EE3new0CsgzuDHo0g7lo_23comprehensive_rdw_tests
FN:28,_RNCNvMNtCs8M7rtMEmd2k_14copybook_codec6recordINtB4_17FixedRecordReaderINtNtNtCs4eoO4cHkFdT_3std2io6cursor6CursorRAhj4_EE3new0CsgzuDHo0g7lo_23comprehensive_rdw_tests
FN:28,_RNCNvMNtCs8M7rtMEmd2k_14copybook_codec6recordINtB4_17FixedRecordReaderINtNtNtCs4eoO4cHkFdT_3std2io6cursor6CursorRAhj9_EE3new0CsgzuDHo0g7lo_23comprehensive_rdw_tests
FN:28,_RNCNvMNtCs8M7rtMEmd2k_14copybook_codec6recordINtB4_17FixedRecordReaderINtNtNtCs4eoO4cHkFdT_3std2io6cursor6CursorRAhjc_EE3new0CsgzuDHo0g7lo_23comprehensive_rdw_tests
FN:28,_RNCNvMNtCs8M7rtMEmd2k_14copybook_codec6recordINtB4_17FixedRecordReaderINtNtNtCs4eoO4cHkFdT_3std2io6cursor6CursorRAhje_EE3new0CsgzuDHo0g7lo_23comprehensive_rdw_tests
FN:28,_RNCNvMNtCs8M7rtMEmd2k_14copybook_codec6recordINtB4_17FixedRecordReaderINtNtNtCs4eoO4cHkFdT_3std2io6cursor6CursorRAhjf_EE3new0CsgzuDHo0g7lo_23comprehensive_rdw_tests
FN:561,_RNCNvMs0_NtCs8M7rtMEmd2k_14copybook_codec6recordINtB7_15RDWRecordReaderINtNtNtCs4eoO4cHkFdT_3std2io6cursor6CursorINtNtCs31agqjrRntl_5alloc3vec3VechEEE27is_suspect_ascii_corruption0CsgzuDHo0g7lo_23comprehensive_rdw_tests
FN:561,_RNCNvMs0_NtCs8M7rtMEmd2k_14copybook_codec6recordINtB7_15RDWRecordReaderINtNtNtCs4eoO4cHkFdT_3std2io6cursor6CursorRAhj0_EE27is_suspect_ascii_corruption0CsgzuDHo0g7lo_23comprehensive_rdw_tests
FN:561,_RNCNvMs0_NtCs8M7rtMEmd2k_14copybook_codec6recordINtB7_15RDWRecordReaderINtNtNtCs4eoO4cHkFdT_3std2io6cursor6CursorRAhj10_EE27is_suspect_ascii_corruption0CsgzuDHo0g7lo_23comprehensive_rdw_tests
FN:561,_RNCNvMs0_NtCs8M7rtMEmd2k_14copybook_codec6recordINtB7_15RDWRecordReaderINtNtNtCs4eoO4cHkFdT_3std2io6cursor6CursorRAhj1b_EE27is_suspect_ascii_corruption0CsgzuDHo0g7lo_23comprehensive_rdw_tests
FN:561,_RNCNvMs0_NtCs8M7rtMEmd2k_14copybook_codec6recordINtB7_15RDWRecordReaderINtNtNtCs4eoO4cHkFdT_3std2io6cursor6CursorRAhj2_EE27is_suspect_ascii_corruption0CsgzuDHo0g7lo_23comprehensive_rdw_tests
FN:561,_RNCNvMs0_NtCs8M7rtMEmd2k_14copybook_codec6recordINtB7_15RDWRecordReaderINtNtNtCs4eoO4cHkFdT_3std2io6cursor6CursorRAhj4_EE27is_suspect_ascii_corruption0CsgzuDHo0g7lo_23comprehensive_rdw_tests
FN:561,_RNCNvMs0_NtCs8M7rtMEmd2k_14copybook_codec6recordINtB7_15RDWRecordReaderINtNtNtCs4eoO4cHkFdT_3std2io6cursor6CursorRAhj9_EE27is_suspect_ascii_corruption0CsgzuDHo0g7lo_23comprehensive_rdw_tests
FN:561,_RNCNvMs0_NtCs8M7rtMEmd2k_14copybook_codec6recordINtB7_15RDWRecordReaderINtNtNtCs4eoO4cHkFdT_3std2io6cursor6CursorRAhjc_EE27is_suspect_ascii_corruption0CsgzuDHo0g7lo_23comprehensive_rdw_tests
FN:561,_RNCNvMs0_NtCs8M7rtMEmd2k_14copybook_codec6recordINtB7_15RDWRecordReaderINtNtNtCs4eoO4cHkFdT_3std2io6cursor6CursorRAhje_EE27is_suspect_ascii_corruption0CsgzuDHo0g7lo_23comprehensive_rdw_tests
FN:561,_RNCNvMs0_NtCs8M7rtMEmd2k_14copybook_codec6recordINtB7_15RDWRecordReaderINtNtNtCs4eoO4cHkFdT_3std2io6cursor6CursorRAhjf_EE27is_suspect_ascii_corruption0CsgzuDHo0g7lo_23comprehensive_rdw_tests
FN:49,_RNvMNtCs8M7rtMEmd2k_14copybook_codec6recordINtB2_17FixedRecordReaderINtNtNtCs4eoO4cHkFdT_3std2io6cursor6CursorINtNtCs31agqjrRntl_5alloc3vec3VechEEE11read_recordCsgzuDHo0g7lo_23comprehensive_rdw_tests
FN:26,_RNvMNtCs8M7rtMEmd2k_14copybook_codec6recordINtB2_17FixedRecordReaderINtNtNtCs4eoO4cHkFdT_3std2io6cursor6CursorINtNtCs31agqjrRntl_5alloc3vec3VechEEE3newCsgzuDHo0g7lo_23comprehensive_rdw_tests
FN:49,_RNvMNtCs8M7rtMEmd2k_14copybook_codec6recordINtB2_17FixedRecordReaderINtNtNtCs4eoO4cHkFdT_3std2io6cursor6CursorRAhj0_EE11read_recordCsgzuDHo0g7lo_23comprehensive_rdw_tests
FN:26,_RNvMNtCs8M7rtMEmd2k_14copybook_codec6recordINtB2_17FixedRecordReaderINtNtNtCs4eoO4cHkFdT_3std2io6cursor6CursorRAhj0_EE3newCsgzuDHo0g7lo_23comprehensive_rdw_tests
FN:49,_RNvMNtCs8M7rtMEmd2k_14copybook_codec6recordINtB2_17FixedRecordReaderINtNtNtCs4eoO4cHkFdT_3std2io6cursor6CursorRAhj10_EE11read_recordCsgzuDHo0g7lo_23comprehensive_rdw_tests
FN:26,_RNvMNtCs8M7rtMEmd2k_14copybook_codec6recordINtB2_17FixedRecordReaderINtNtNtCs4eoO4cHkFdT_3std2io6cursor6CursorRAhj10_EE3newCsgzuDHo0g7lo_23comprehensive_rdw_tests
FN:49,_RNvMNtCs8M7rtMEmd2k_14copybook_codec6recordINtB2_17FixedRecordReaderINtNtNtCs4eoO4cHkFdT_3std2io6cursor6CursorRAhj1b_EE11read_recordCsgzuDHo0g7lo_23comprehensive_rdw_tests
FN:26,_RNvMNtCs8M7rtMEmd2k_14copybook_codec6recordINtB2_17FixedRecordReaderINtNtNtCs4eoO4cHkFdT_3std2io6cursor6CursorRAhj1b_EE3newCsgzuDHo0g7lo_23comprehensive_rdw_tests
FN:49,_RNvMNtCs8M7rtMEmd2k_14copybook_codec6recordINtB2_17FixedRecordReaderINtNtNtCs4eoO4cHkFdT_3std2io6cursor6CursorRAhj2_EE11read_recordCsgzuDHo0g7lo_23comprehensive_rdw_tests
FN:26,_RNvMNtCs8M7rtMEmd2k_14copybook_codec6recordINtB2_17FixedRecordReaderINtNtNtCs4eoO4cHkFdT_3std2io6cursor6CursorRAhj2_EE3newCsgzuDHo0g7lo_23comprehensive_rdw_tests
FN:49,_RNvMNtCs8M7rtMEmd2k_14copybook_codec6recordINtB2_17FixedRecordReaderINtNtNtCs4eoO4cHkFdT_3std2io6cursor6CursorRAhj4_EE11read_recordCsgzuDHo0g7lo_23comprehensive_rdw_tests
FN:26,_RNvMNtCs8M7rtMEmd2k_14copybook_codec6recordINtB2_17FixedRecordReaderINtNtNtCs4eoO4cHkFdT_3std2io6cursor6CursorRAhj4_EE3newCsgzuDHo0g7lo_23comprehensive_rdw_tests
FN:49,_RNvMNtCs8M7rtMEmd2k_14copybook_codec6recordINtB2_17FixedRecordReaderINtNtNtCs4eoO4cHkFdT_3std2io6cursor6CursorRAhj9_EE11read_recordCsgzuDHo0g7lo_23comprehensive_rdw_tests
FN:26,_RNvMNtCs8M7rtMEmd2k_14copybook_codec6recordINtB2_17FixedRecordReaderINtNtNtCs4eoO4cHkFdT_3std2io6cursor6CursorRAhj9_EE3newCsgzuDHo0g7lo_23comprehensive_rdw_tests
FN:49,_RNvMNtCs8M7rtMEmd2k_14copybook_codec6recordINtB2_17FixedRecordReaderINtNtNtCs4eoO4cHkFdT_3std2io6cursor6CursorRAhjc_EE11read_recordCsgzuDHo0g7lo_23comprehensive_rdw_tests
FN:26,_RNvMNtCs8M7rtMEmd2k_14copybook_codec6recordINtB2_17FixedRecordReaderINtNtNtCs4eoO4cHkFdT_3std2io6cursor6CursorRAhjc_EE3newCsgzuDHo0g7lo_23comprehensive_rdw_tests
FN:49,_RNvMNtCs8M7rtMEmd2k_14copybook_codec6recordINtB2_17FixedRecordReaderINtNtNtCs4eoO4cHkFdT_3std2io6cursor6CursorRAhje_EE11read_recordCsgzuDHo0g7lo_23comprehensive_rdw_tests
FN:26,_RNvMNtCs8M7rtMEmd2k_14copybook_codec6recordINtB2_17FixedRecordReaderINtNtNtCs4eoO4cHkFdT_3std2io6cursor6CursorRAhje_EE3newCsgzuDHo0g7lo_23comprehensive_rdw_tests
FN:49,_RNvMNtCs8M7rtMEmd2k_14copybook_codec6recordINtB2_17FixedRecordReaderINtNtNtCs4eoO4cHkFdT_3std2io6cursor6CursorRAhjf_EE11read_recordCsgzuDHo0g7lo_23comprehensive_rdw_tests
FN:26,_RNvMNtCs8M7rtMEmd2k_14copybook_codec6recordINtB2_17FixedRecordReaderINtNtNtCs4eoO4cHkFdT_3std2io6cursor6CursorRAhjf_EE3newCsgzuDHo0g7lo_23comprehensive_rdw_tests
FN:335,_RNvMs0_NtCs8M7rtMEmd2k_14copybook_codec6recordINtB5_15RDWRecordReaderINtNtNtCs4eoO4cHkFdT_3std2io6cursor6CursorINtNtCs31agqjrRntl_5alloc3vec3VechEEE11read_recordCsgzuDHo0g7lo_23comprehensive_rdw_tests
FN:555,_RNvMs0_NtCs8M7rtMEmd2k_14copybook_codec6recordINtB5_15RDWRecordReaderINtNtNtCs4eoO4cHkFdT_3std2io6cursor6CursorINtNtCs31agqjrRntl_5alloc3vec3VechEEE27is_suspect_ascii_corruptionCsgzuDHo0g7lo_23comprehensive_rdw_tests
FN:322,_RNvMs0_NtCs8M7rtMEmd2k_14copybook_codec6recordINtB5_15RDWRecordReaderINtNtNtCs4eoO4cHkFdT_3std2io6cursor6CursorINtNtCs31agqjrRntl_5alloc3vec3VechEEE3newCsgzuDHo0g7lo_23comprehensive_rdw_tests
FN:335,_RNvMs0_NtCs8M7rtMEmd2k_14copybook_codec6recordINtB5_15RDWRecordReaderINtNtNtCs4eoO4cHkFdT_3std2io6cursor6CursorRAhj0_EE11read_recordCsgzuDHo0g7lo_23comprehensive_rdw_tests
FN:555,_RNvMs0_NtCs8M7rtMEmd2k_14copybook_codec6recordINtB5_15RDWRecordReaderINtNtNtCs4eoO4cHkFdT_3std2io6cursor6CursorRAhj0_EE27is_suspect_ascii_corruptionCsgzuDHo0g7lo_23comprehensive_rdw_tests
FN:322,_RNvMs0_NtCs8M7rtMEmd2k_14copybook_codec6recordINtB5_15RDWRecordReaderINtNtNtCs4eoO4cHkFdT_3std2io6cursor6CursorRAhj0_EE3newCsgzuDHo0g7lo_23comprehensive_rdw_tests
FN:335,_RNvMs0_NtCs8M7rtMEmd2k_14copybook_codec6recordINtB5_15RDWRecordReaderINtNtNtCs4eoO4cHkFdT_3std2io6cursor6CursorRAhj10_EE11read_recordCsgzuDHo0g7lo_23comprehensive_rdw_tests
FN:555,_RNvMs0_NtCs8M7rtMEmd2k_14copybook_codec6recordINtB5_15RDWRecordReaderINtNtNtCs4eoO4cHkFdT_3std2io6cursor6CursorRAhj10_EE27is_suspect_ascii_corruptionCsgzuDHo0g7lo_23comprehensive_rdw_tests
FN:322,_RNvMs0_NtCs8M7rtMEmd2k_14copybook_codec6recordINtB5_15RDWRecordReaderINtNtNtCs4eoO4cHkFdT_3std2io6cursor6CursorRAhj10_EE3newCsgzuDHo0g7lo_23comprehensive_rdw_tests
FN:335,_RNvMs0_NtCs8M7rtMEmd2k_14copybook_codec6recordINtB5_15RDWRecordReaderINtNtNtCs4eoO4cHkFdT_3std2io6cursor6CursorRAhj1b_EE11read_recordCsgzuDHo0g7lo_23comprehensive_rdw_tests
FN:555,_RNvMs0_NtCs8M7rtMEmd2k_14copybook_codec6recordINtB5_15RDWRecordReaderINtNtNtCs4eoO4cHkFdT_3std2io6cursor6CursorRAhj1b_EE27is_suspect_ascii_corruptionCsgzuDHo0g7lo_23comprehensive_rdw_tests
FN:322,_RNvMs0_NtCs8M7rtMEmd2k_14copybook_codec6recordINtB5_15RDWRecordReaderINtNtNtCs4eoO4cHkFdT_3std2io6cursor6CursorRAhj1b_EE3newCsgzuDHo0g7lo_23comprehensive_rdw_tests
FN:335,_RNvMs0_NtCs8M7rtMEmd2k_14copybook_codec6recordINtB5_15RDWRecordReaderINtNtNtCs4eoO4cHkFdT_3std2io6cursor6CursorRAhj2_EE11read_recordCsgzuDHo0g7lo_23comprehensive_rdw_tests
FN:555,_RNvMs0_NtCs8M7rtMEmd2k_14copybook_codec6recordINtB5_15RDWRecordReaderINtNtNtCs4eoO4cHkFdT_3std2io6cursor6CursorRAhj2_EE27is_suspect_ascii_corruptionCsgzuDHo0g7lo_23comprehensive_rdw_tests
FN:322,_RNvMs0_NtCs8M7rtMEmd2k_14copybook_codec6recordINtB5_15RDWRecordReaderINtNtNtCs4eoO4cHkFdT_3std2io6cursor6CursorRAhj2_EE3newCsgzuDHo0g7lo_23comprehensive_rdw_tests
FN:335,_RNvMs0_NtCs8M7rtMEmd2k_14copybook_codec6recordINtB5_15RDWRecordReaderINtNtNtCs4eoO4cHkFdT_3std2io6cursor6CursorRAhj4_EE11read_recordCsgzuDHo0g7lo_23comprehensive_rdw_tests
FN:555,_RNvMs0_NtCs8M7rtMEmd2k_14copybook_codec6recordINtB5_15RDWRecordReaderINtNtNtCs4eoO4cHkFdT_3std2io6cursor6CursorRAhj4_EE27is_suspect_ascii_corruptionCsgzuDHo0g7lo_23comprehensive_rdw_tests
FN:322,_RNvMs0_NtCs8M7rtMEmd2k_14copybook_codec6recordINtB5_15RDWRecordReaderINtNtNtCs4eoO4cHkFdT_3std2io6cursor6CursorRAhj4_EE3newCsgzuDHo0g7lo_23comprehensive_rdw_tests
FN:335,_RNvMs0_NtCs8M7rtMEmd2k_14copybook_codec6recordINtB5_15RDWRecordReaderINtNtNtCs4eoO4cHkFdT_3std2io6cursor6CursorRAhj9_EE11read_recordCsgzuDHo0g7lo_23comprehensive_rdw_tests
FN:555,_RNvMs0_NtCs8M7rtMEmd2k_14copybook_codec6recordINtB5_15RDWRecordReaderINtNtNtCs4eoO4cHkFdT_3std2io6cursor6CursorRAhj9_EE27is_suspect_ascii_corruptionCsgzuDHo0g7lo_23comprehensive_rdw_tests
FN:322,_RNvMs0_NtCs8M7rtMEmd2k_14copybook_codec6recordINtB5_15RDWRecordReaderINtNtNtCs4eoO4cHkFdT_3std2io6cursor6CursorRAhj9_EE3newCsgzuDHo0g7lo_23comprehensive_rdw_tests
FN:335,_RNvMs0_NtCs8M7rtMEmd2k_14copybook_codec6recordINtB5_15RDWRecordReaderINtNtNtCs4eoO4cHkFdT_3std2io6cursor6CursorRAhjc_EE11read_recordCsgzuDHo0g7lo_23comprehensive_rdw_tests
FN:555,_RNvMs0_NtCs8M7rtMEmd2k_14copybook_codec6recordINtB5_15RDWRecordReaderINtNtNtCs4eoO4cHkFdT_3std2io6cursor6CursorRAhjc_EE27is_suspect_ascii_corruptionCsgzuDHo0g7lo_23comprehensive_rdw_tests
FN:322,_RNvMs0_NtCs8M7rtMEmd2k_14copybook_codec6recordINtB5_15RDWRecordReaderINtNtNtCs4eoO4cHkFdT_3std2io6cursor6CursorRAhjc_EE3newCsgzuDHo0g7lo_23comprehensive_rdw_tests
FN:335,_RNvMs0_NtCs8M7rtMEmd2k_14copybook_codec6recordINtB5_15RDWRecordReaderINtNtNtCs4eoO4cHkFdT_3std2io6cursor6CursorRAhje_EE11read_recordCsgzuDHo0g7lo_23comprehensive_rdw_tests
FN:555,_RNvMs0_NtCs8M7rtMEmd2k_14copybook_codec6recordINtB5_15RDWRecordReaderINtNtNtCs4eoO4cHkFdT_3std2io6cursor6CursorRAhje_EE27is_suspect_ascii_corruptionCsgzuDHo0g7lo_23comprehensive_rdw_tests
FN:322,_RNvMs0_NtCs8M7rtMEmd2k_14copybook_codec6recordINtB5_15RDWRecordReaderINtNtNtCs4eoO4cHkFdT_3std2io6cursor6CursorRAhje_EE3newCsgzuDHo0g7lo_23comprehensive_rdw_tests
FN:335,_RNvMs0_NtCs8M7rtMEmd2k_14copybook_codec6recordINtB5_15RDWRecordReaderINtNtNtCs4eoO4cHkFdT_3std2io6cursor6CursorRAhjf_EE11read_recordCsgzuDHo0g7lo_23comprehensive_rdw_tests
FN:555,_RNvMs0_NtCs8M7rtMEmd2k_14copybook_codec6recordINtB5_15RDWRecordReaderINtNtNtCs4eoO4cHkFdT_3std2io6cursor6CursorRAhjf_EE27is_suspect_ascii_corruptionCsgzuDHo0g7lo_23comprehensive_rdw_tests
FN:322,_RNvMs0_NtCs8M7rtMEmd2k_14copybook_codec6recordINtB5_15RDWRecordReaderINtNtNtCs4eoO4cHkFdT_3std2io6cursor6CursorRAhjf_EE3newCsgzuDHo0g7lo_23comprehensive_rdw_tests
FN:28,_RNCNvMNtCs8M7rtMEmd2k_14copybook_codec6recordINtB4_17FixedRecordReaderINtNtNtCs4eoO4cHkFdT_3std2io6cursor6CursorRAhj11_EE3new0Csc6sau5EZUC8_33comprehensive_redefines_odo_tests
FN:28,_RNCNvMNtCs8M7rtMEmd2k_14copybook_codec6recordINtB4_17FixedRecordReaderINtNtNtCs4eoO4cHkFdT_3std2io6cursor6CursorRAhj14_EE3new0Csc6sau5EZUC8_33comprehensive_redefines_odo_tests
FN:28,_RNCNvMNtCs8M7rtMEmd2k_14copybook_codec6recordINtB4_17FixedRecordReaderINtNtNtCs4eoO4cHkFdT_3std2io6cursor6CursorRAhj1c_EE3new0Csc6sau5EZUC8_33comprehensive_redefines_odo_tests
FN:28,_RNCNvMNtCs8M7rtMEmd2k_14copybook_codec6recordINtB4_17FixedRecordReaderINtNtNtCs4eoO4cHkFdT_3std2io6cursor6CursorRAhj8_EE3new0Csc6sau5EZUC8_33comprehensive_redefines_odo_tests
FN:561,_RNCNvMs0_NtCs8M7rtMEmd2k_14copybook_codec6recordINtB7_15RDWRecordReaderINtNtNtCs4eoO4cHkFdT_3std2io6cursor6CursorRAhj11_EE27is_suspect_ascii_corruption0Csc6sau5EZUC8_33comprehensive_redefines_odo_tests
FN:561,_RNCNvMs0_NtCs8M7rtMEmd2k_14copybook_codec6recordINtB7_15RDWRecordReaderINtNtNtCs4eoO4cHkFdT_3std2io6cursor6CursorRAhj14_EE27is_suspect_ascii_corruption0Csc6sau5EZUC8_33comprehensive_redefines_odo_tests
FN:561,_RNCNvMs0_NtCs8M7rtMEmd2k_14copybook_codec6recordINtB7_15RDWRecordReaderINtNtNtCs4eoO4cHkFdT_3std2io6cursor6CursorRAhj1c_EE27is_suspect_ascii_corruption0Csc6sau5EZUC8_33comprehensive_redefines_odo_tests
FN:561,_RNCNvMs0_NtCs8M7rtMEmd2k_14copybook_codec6recordINtB7_15RDWRecordReaderINtNtNtCs4eoO4cHkFdT_3std2io6cursor6CursorRAhj8_EE27is_suspect_ascii_corruption0Csc6sau5EZUC8_33comprehensive_redefines_odo_tests
FN:49,_RNvMNtCs8M7rtMEmd2k_14copybook_codec6recordINtB2_17FixedRecordReaderINtNtNtCs4eoO4cHkFdT_3std2io6cursor6CursorRAhj11_EE11read_recordCsc6sau5EZUC8_33comprehensive_redefines_odo_tests
FN:26,_RNvMNtCs8M7rtMEmd2k_14copybook_codec6recordINtB2_17FixedRecordReaderINtNtNtCs4eoO4cHkFdT_3std2io6cursor6CursorRAhj11_EE3newCsc6sau5EZUC8_33comprehensive_redefines_odo_tests
FN:49,_RNvMNtCs8M7rtMEmd2k_14copybook_codec6recordINtB2_17FixedRecordReaderINtNtNtCs4eoO4cHkFdT_3std2io6cursor6CursorRAhj14_EE11read_recordCsc6sau5EZUC8_33comprehensive_redefines_odo_tests
FN:26,_RNvMNtCs8M7rtMEmd2k_14copybook_codec6recordINtB2_17FixedRecordReaderINtNtNtCs4eoO4cHkFdT_3std2io6cursor6CursorRAhj14_EE3newCsc6sau5EZUC8_33comprehensive_redefines_odo_tests
FN:49,_RNvMNtCs8M7rtMEmd2k_14copybook_codec6recordINtB2_17FixedRecordReaderINtNtNtCs4eoO4cHkFdT_3std2io6cursor6CursorRAhj1c_EE11read_recordCsc6sau5EZUC8_33comprehensive_redefines_odo_tests
FN:26,_RNvMNtCs8M7rtMEmd2k_14copybook_codec6recordINtB2_17FixedRecordReaderINtNtNtCs4eoO4cHkFdT_3std2io6cursor6CursorRAhj1c_EE3newCsc6sau5EZUC8_33comprehensive_redefines_odo_tests
FN:49,_RNvMNtCs8M7rtMEmd2k_14copybook_codec6recordINtB2_17FixedRecordReaderINtNtNtCs4eoO4cHkFdT_3std2io6cursor6CursorRAhj8_EE11read_recordCsc6sau5EZUC8_33comprehensive_redefines_odo_tests
FN:26,_RNvMNtCs8M7rtMEmd2k_14copybook_codec6recordINtB2_17FixedRecordReaderINtNtNtCs4eoO4cHkFdT_3std2io6cursor6CursorRAhj8_EE3newCsc6sau5EZUC8_33comprehensive_redefines_odo_tests
FN:335,_RNvMs0_NtCs8M7rtMEmd2k_14copybook_codec6recordINtB5_15RDWRecordReaderINtNtNtCs4eoO4cHkFdT_3std2io6cursor6CursorRAhj11_EE11read_recordCsc6sau5EZUC8_33comprehensive_redefines_odo_tests
FN:555,_RNvMs0_NtCs8M7rtMEmd2k_14copybook_codec6recordINtB5_15RDWRecordReaderINtNtNtCs4eoO4cHkFdT_3std2io6cursor6CursorRAhj11_EE27is_suspect_ascii_corruptionCsc6sau5EZUC8_33comprehensive_redefines_odo_tests
FN:322,_RNvMs0_NtCs8M7rtMEmd2k_14copybook_codec6recordINtB5_15RDWRecordReaderINtNtNtCs4eoO4cHkFdT_3std2io6cursor6CursorRAhj11_EE3newCsc6sau5EZUC8_33comprehensive_redefines_odo_tests
FN:335,_RNvMs0_NtCs8M7rtMEmd2k_14copybook_codec6recordINtB5_15RDWRecordReaderINtNtNtCs4eoO4cHkFdT_3std2io6cursor6CursorRAhj14_EE11read_recordCsc6sau5EZUC8_33comprehensive_redefines_odo_tests
FN:555,_RNvMs0_NtCs8M7rtMEmd2k_14copybook_codec6recordINtB5_15RDWRecordReaderINtNtNtCs4eoO4cHkFdT_3std2io6cursor6CursorRAhj14_EE27is_suspect_ascii_corruptionCsc6sau5EZUC8_33comprehensive_redefines_odo_tests
FN:322,_RNvMs0_NtCs8M7rtMEmd2k_14copybook_codec6recordINtB5_15RDWRecordReaderINtNtNtCs4eoO4cHkFdT_3std2io6cursor6CursorRAhj14_EE3newCsc6sau5EZUC8_33comprehensive_redefines_odo_tests
FN:335,_RNvMs0_NtCs8M7rtMEmd2k_14copybook_codec6recordINtB5_15RDWRecordReaderINtNtNtCs4eoO4cHkFdT_3std2io6cursor6CursorRAhj1c_EE11read_recordCsc6sau5EZUC8_33comprehensive_redefines_odo_tests
FN:555,_RNvMs0_NtCs8M7rtMEmd2k_14copybook_codec6recordINtB5_15RDWRecordReaderINtNtNtCs4eoO4cHkFdT_3std2io6cursor6CursorRAhj1c_EE27is_suspect_ascii_corruptionCsc6sau5EZUC8_33comprehensive_redefines_odo_tests
FN:322,_RNvMs0_NtCs8M7rtMEmd2k_14copybook_codec6recordINtB5_15RDWRecordReaderINtNtNtCs4eoO4cHkFdT_3std2io6cursor6CursorRAhj1c_EE3newCsc6sau5EZUC8_33comprehensive_redefines_odo_tests
FN:335,_RNvMs0_NtCs8M7rtMEmd2k_14copybook_codec6recordINtB5_15RDWRecordReaderINtNtNtCs4eoO4cHkFdT_3std2io6cursor6CursorRAhj8_EE11read_recordCsc6sau5EZUC8_33comprehensive_redefines_odo_tests
FN:555,_RNvMs0_NtCs8M7rtMEmd2k_14copybook_codec6recordINtB5_15RDWRecordReaderINtNtNtCs4eoO4cHkFdT_3std2io6cursor6CursorRAhj8_EE27is_suspect_ascii_corruptionCsc6sau5EZUC8_33comprehensive_redefines_odo_tests
FN:322,_RNvMs0_NtCs8M7rtMEmd2k_14copybook_codec6recordINtB5_15RDWRecordReaderINtNtNtCs4eoO4cHkFdT_3std2io6cursor6CursorRAhj8_EE3newCsc6sau5EZUC8_33comprehensive_redefines_odo_tests
FN:687,_RNCNvMs1_NtCs7MLK0KUMdQf_14copybook_codec6recordINtB7_15RDWRecordWriterpE5flush0B9_
FN:177,_RNvMNtCs7MLK0KUMdQf_14copybook_codec6recordINtB2_17FixedRecordReaderpE5lreclB4_
FN:686,_RNvMs1_NtCs7MLK0KUMdQf_14copybook_codec6recordINtB5_15RDWRecordWriterpE5flushB7_
FN:307,_RNvMs_NtCs7MLK0KUMdQf_14copybook_codec6recordINtB4_17FixedRecordWriterpE5lreclB6_
FN:724,_RNvMs2_NtCs7MLK0KUMdQf_14copybook_codec6recordNtB5_9RDWRecord13with_reserved
FN:751,_RNvMs2_NtCs7MLK0KUMdQf_14copybook_codec6recordNtB5_9RDWRecord16recompute_length
FN:769,_RNvMs2_NtCs7MLK0KUMdQf_14copybook_codec6recordNtB5_9RDWRecord21get_data_for_raw_mode
FN:714,_RNvMs2_NtCs7MLK0KUMdQf_14copybook_codec6recordNtB5_9RDWRecord3new
FN:740,_RNvMs2_NtCs7MLK0KUMdQf_14copybook_codec6recordNtB5_9RDWRecord6length
FN:760,_RNvMs2_NtCs7MLK0KUMdQf_14copybook_codec6recordNtB5_9RDWRecord8as_bytes
FN:746,_RNvMs2_NtCs7MLK0KUMdQf_14copybook_codec6recordNtB5_9RDWRecord8reserved
FN:536,_RNvNvMs0_NtCs7MLK0KUMdQf_14copybook_codec6recordINtB7_15RDWRecordReaderpE29calculate_schema_fixed_prefix15find_record_end
FN:509,_RNvNvMs0_NtCs7MLK0KUMdQf_14copybook_codec6recordINtB7_15RDWRecordReaderpE29calculate_schema_fixed_prefix21find_first_odo_offset
FN:782,_RINvNtCs7MLK0KUMdQf_14copybook_codec6record11read_recordINtNtNtCs4eoO4cHkFdT_3std2io6cursor6CursorINtNtCs31agqjrRntl_5alloc3vec3VechEEEB4_
FN:782,_RINvNtCs7MLK0KUMdQf_14copybook_codec6record11read_recordINtNtNtCs4eoO4cHkFdT_3std2io6cursor6CursorRAhj2_EEB4_
FN:782,_RINvNtCs7MLK0KUMdQf_14copybook_codec6record11read_recordINtNtNtCs4eoO4cHkFdT_3std2io6cursor6CursorRAhj8_EEB4_
FN:807,_RINvNtCs7MLK0KUMdQf_14copybook_codec6record12write_recordINtNtCs31agqjrRntl_5alloc3vec3VechEEB4_
FN:811,_RNCINvNtCs7MLK0KUMdQf_14copybook_codec6record12write_recordINtNtCs31agqjrRntl_5alloc3vec3VechEE0B6_
FN:28,_RNCNvMNtCs7MLK0KUMdQf_14copybook_codec6recordINtB4_17FixedRecordReaderINtNtNtCs4eoO4cHkFdT_3std2io6cursor6CursorINtNtCs31agqjrRntl_5alloc3vec3VechEEE3new0B6_
FN:28,_RNCNvMNtCs7MLK0KUMdQf_14copybook_codec6recordINtB4_17FixedRecordReaderINtNtNtCs4eoO4cHkFdT_3std2io6cursor6CursorRAhj10_EE3new0B6_
FN:28,_RNCNvMNtCs7MLK0KUMdQf_14copybook_codec6recordINtB4_17FixedRecordReaderINtNtNtCs4eoO4cHkFdT_3std2io6cursor6CursorRAhj4_EE3new0B6_
FN:28,_RNCNvMNtCs7MLK0KUMdQf_14copybook_codec6recordINtB4_17FixedRecordReaderINtNtNtCs4eoO4cHkFdT_3std2io6cursor6CursorRAhj7_EE3new0B6_
FN:28,_RNCNvMNtCs7MLK0KUMdQf_14copybook_codec6recordINtB4_17FixedRecordReaderINtNtNtCs4eoO4cHkFdT_3std2io6cursor6CursorRAhj8_EE3new0B6_
FN:28,_RNCNvMNtCs7MLK0KUMdQf_14copybook_codec6recordINtB4_17FixedRecordReaderQINtNtNtCs4eoO4cHkFdT_3std2io6cursor6CursorINtNtCs31agqjrRntl_5alloc3vec3VechEEE3new0B6_
FN:28,_RNCNvMNtCs7MLK0KUMdQf_14copybook_codec6recordINtB4_17FixedRecordReaderQINtNtNtCs4eoO4cHkFdT_3std2io6cursor6CursorRAhj2_EE3new0B6_
FN:28,_RNCNvMNtCs7MLK0KUMdQf_14copybook_codec6recordINtB4_17FixedRecordReaderQINtNtNtCs4eoO4cHkFdT_3std2io6cursor6CursorRAhj8_EE3new0B6_
FN:561,_RNCNvMs0_NtCs7MLK0KUMdQf_14copybook_codec6recordINtB7_15RDWRecordReaderINtNtNtCs4eoO4cHkFdT_3std2io6cursor6CursorINtNtCs31agqjrRntl_5alloc3vec3VechEEE27is_suspect_ascii_corruption0B9_
FN:561,_RNCNvMs0_NtCs7MLK0KUMdQf_14copybook_codec6recordINtB7_15RDWRecordReaderQINtNtNtCs4eoO4cHkFdT_3std2io6cursor6CursorINtNtCs31agqjrRntl_5alloc3vec3VechEEE27is_suspect_ascii_corruption0B9_
FN:561,_RNCNvMs0_NtCs7MLK0KUMdQf_14copybook_codec6recordINtB7_15RDWRecordReaderQINtNtNtCs4eoO4cHkFdT_3std2io6cursor6CursorRAhj2_EE27is_suspect_ascii_corruption0B9_
FN:561,_RNCNvMs0_NtCs7MLK0KUMdQf_14copybook_codec6recordINtB7_15RDWRecordReaderQINtNtNtCs4eoO4cHkFdT_3std2io6cursor6CursorRAhj8_EE27is_suspect_ascii_corruption0B9_
FN:594,_RNCNvMs1_NtCs7MLK0KUMdQf_14copybook_codec6recordINtB7_15RDWRecordWriterQINtNtCs31agqjrRntl_5alloc3vec3VechEE12write_record0B9_
FN:609,_RNCNvMs1_NtCs7MLK0KUMdQf_14copybook_codec6recordINtB7_15RDWRecordWriterQINtNtCs31agqjrRntl_5alloc3vec3VechEE12write_records_0B9_
FN:241,_RNCNvMs_NtCs7MLK0KUMdQf_14copybook_codec6recordINtB6_17FixedRecordWriterQINtNtCs31agqjrRntl_5alloc3vec3VechEE12write_record0B8_
FN:258,_RNCNvMs_NtCs7MLK0KUMdQf_14copybook_codec6recordINtB6_17FixedRecordWriterQINtNtCs31agqjrRntl_5alloc3vec3VechEE12write_records_0B8_
FN:198,_RNCNvMs_NtCs7MLK0KUMdQf_14copybook_codec6recordINtB6_17FixedRecordWriterQINtNtCs31agqjrRntl_5alloc3vec3VechEE3new0B8_
FN:291,_RNCNvMs_NtCs7MLK0KUMdQf_14copybook_codec6recordINtB6_17FixedRecordWriterQINtNtCs31agqjrRntl_5alloc3vec3VechEE5flush0B8_
FN:49,_RNvMNtCs7MLK0KUMdQf_14copybook_codec6recordINtB2_17FixedRecordReaderINtNtNtCs4eoO4cHkFdT_3std2io6cursor6CursorINtNtCs31agqjrRntl_5alloc3vec3VechEEE11read_recordB4_
FN:26,_RNvMNtCs7MLK0KUMdQf_14copybook_codec6recordINtB2_17FixedRecordReaderINtNtNtCs4eoO4cHkFdT_3std2io6cursor6CursorINtNtCs31agqjrRntl_5alloc3vec3VechEEE3newB4_
FN:49,_RNvMNtCs7MLK0KUMdQf_14copybook_codec6recordINtB2_17FixedRecordReaderINtNtNtCs4eoO4cHkFdT_3std2io6cursor6CursorRAhj10_EE11read_recordB4_
FN:171,_RNvMNtCs7MLK0KUMdQf_14copybook_codec6recordINtB2_17FixedRecordReaderINtNtNtCs4eoO4cHkFdT_3std2io6cursor6CursorRAhj10_EE12record_countB4_
FN:26,_RNvMNtCs7MLK0KUMdQf_14copybook_codec6recordINtB2_17FixedRecordReaderINtNtNtCs4eoO4cHkFdT_3std2io6cursor6CursorRAhj10_EE3newB4_
FN:26,_RNvMNtCs7MLK0KUMdQf_14copybook_codec6recordINtB2_17FixedRecordReaderINtNtNtCs4eoO4cHkFdT_3std2io6cursor6CursorRAhj4_EE3newB4_
FN:49,_RNvMNtCs7MLK0KUMdQf_14copybook_codec6recordINtB2_17FixedRecordReaderINtNtNtCs4eoO4cHkFdT_3std2io6cursor6CursorRAhj7_EE11read_recordB4_
FN:26,_RNvMNtCs7MLK0KUMdQf_14copybook_codec6recordINtB2_17FixedRecordReaderINtNtNtCs4eoO4cHkFdT_3std2io6cursor6CursorRAhj7_EE3newB4_
FN:49,_RNvMNtCs7MLK0KUMdQf_14copybook_codec6recordINtB2_17FixedRecordReaderINtNtNtCs4eoO4cHkFdT_3std2io6cursor6CursorRAhj8_EE11read_recordB4_
FN:131,_RNvMNtCs7MLK0KUMdQf_14copybook_codec6recordINtB2_17FixedRecordReaderINtNtNtCs4eoO4cHkFdT_3std2io6cursor6CursorRAhj8_EE22validate_record_lengthB4_
FN:26,_RNvMNtCs7MLK0KUMdQf_14copybook_codec6recordINtB2_17FixedRecordReaderINtNtNtCs4eoO4cHkFdT_3std2io6cursor6CursorRAhj8_EE3newB4_
FN:49,_RNvMNtCs7MLK0KUMdQf_14copybook_codec6recordINtB2_17FixedRecordReaderQINtNtNtCs4eoO4cHkFdT_3std2io6cursor6CursorINtNtCs31agqjrRntl_5alloc3vec3VechEEE11read_recordB4_
FN:26,_RNvMNtCs7MLK0KUMdQf_14copybook_codec6recordINtB2_17FixedRecordReaderQINtNtNtCs4eoO4cHkFdT_3std2io6cursor6CursorINtNtCs31agqjrRntl_5alloc3vec3VechEEE3newB4_
FN:49,_RNvMNtCs7MLK0KUMdQf_14copybook_codec6recordINtB2_17FixedRecordReaderQINtNtNtCs4eoO4cHkFdT_3std2io6cursor6CursorRAhj2_EE11read_recordB4_
FN:26,_RNvMNtCs7MLK0KUMdQf_14copybook_codec6recordINtB2_17FixedRecordReaderQINtNtNtCs4eoO4cHkFdT_3std2io6cursor6CursorRAhj2_EE3newB4_
FN:49,_RNvMNtCs7MLK0KUMdQf_14copybook_codec6recordINtB2_17FixedRecordReaderQINtNtNtCs4eoO4cHkFdT_3std2io6cursor6CursorRAhj8_EE11read_recordB4_
FN:26,_RNvMNtCs7MLK0KUMdQf_14copybook_codec6recordINtB2_17FixedRecordReaderQINtNtNtCs4eoO4cHkFdT_3std2io6cursor6CursorRAhj8_EE3newB4_
FN:335,_RNvMs0_NtCs7MLK0KUMdQf_14copybook_codec6recordINtB5_15RDWRecordReaderINtNtNtCs4eoO4cHkFdT_3std2io6cursor6CursorINtNtCs31agqjrRntl_5alloc3vec3VechEEE11read_recordB7_
FN:566,_RNvMs0_NtCs7MLK0KUMdQf_14copybook_codec6recordINtB5_15RDWRecordReaderINtNtNtCs4eoO4cHkFdT_3std2io6cursor6CursorINtNtCs31agqjrRntl_5alloc3vec3VechEEE12record_countB7_
FN:555,_RNvMs0_NtCs7MLK0KUMdQf_14copybook_codec6recordINtB5_15RDWRecordReaderINtNtNtCs4eoO4cHkFdT_3std2io6cursor6CursorINtNtCs31agqjrRntl_5alloc3vec3VechEEE27is_suspect_ascii_corruptionB7_
FN:475,_RNvMs0_NtCs7MLK0KUMdQf_14copybook_codec6recordINtB5_15RDWRecordReaderINtNtNtCs4eoO4cHkFdT_3std2io6cursor6CursorINtNtCs31agqjrRntl_5alloc3vec3VechEEE27validate_zero_length_recordB7_
FN:506,_RNvMs0_NtCs7MLK0KUMdQf_14copybook_codec6recordINtB5_15RDWRecordReaderINtNtNtCs4eoO4cHkFdT_3std2io6cursor6CursorINtNtCs31agqjrRntl_5alloc3vec3VechEEE29calculate_schema_fixed_prefixB7_
FN:322,_RNvMs0_NtCs7MLK0KUMdQf_14copybook_codec6recordINtB5_15RDWRecordReaderINtNtNtCs4eoO4cHkFdT_3std2io6cursor6CursorINtNtCs31agqjrRntl_5alloc3vec3VechEEE3newB7_
FN:335,_RNvMs0_NtCs7MLK0KUMdQf_14copybook_codec6recordINtB5_15RDWRecordReaderQINtNtNtCs4eoO4cHkFdT_3std2io6cursor6CursorINtNtCs31agqjrRntl_5alloc3vec3VechEEE11read_recordB7_
FN:555,_RNvMs0_NtCs7MLK0KUMdQf_14copybook_codec6recordINtB5_15RDWRecordReaderQINtNtNtCs4eoO4cHkFdT_3std2io6cursor6CursorINtNtCs31agqjrRntl_5alloc3vec3VechEEE27is_suspect_ascii_corruptionB7_
FN:322,_RNvMs0_NtCs7MLK0KUMdQf_14copybook_codec6recordINtB5_15RDWRecordReaderQINtNtNtCs4eoO4cHkFdT_3std2io6cursor6CursorINtNtCs31agqjrRntl_5alloc3vec3VechEEE3newB7_
FN:335,_RNvMs0_NtCs7MLK0KUMdQf_14copybook_codec6recordINtB5_15RDWRecordReaderQINtNtNtCs4eoO4cHkFdT_3std2io6cursor6CursorRAhj2_EE11read_recordB7_
FN:555,_RNvMs0_NtCs7MLK0KUMdQf_14copybook_codec6recordINtB5_15RDWRecordReaderQINtNtNtCs4eoO4cHkFdT_3std2io6cursor6CursorRAhj2_EE27is_suspect_ascii_corruptionB7_
FN:322,_RNvMs0_NtCs7MLK0KUMdQf_14copybook_codec6recordINtB5_15RDWRecordReaderQINtNtNtCs4eoO4cHkFdT_3std2io6cursor6CursorRAhj2_EE3newB7_
FN:335,_RNvMs0_NtCs7MLK0KUMdQf_14copybook_codec6recordINtB5_15RDWRecordReaderQINtNtNtCs4eoO4cHkFdT_3std2io6cursor6CursorRAhj8_EE11read_recordB7_
FN:555,_RNvMs0_NtCs7MLK0KUMdQf_14copybook_codec6recordINtB5_15RDWRecordReaderQINtNtNtCs4eoO4cHkFdT_3std2io6cursor6CursorRAhj8_EE27is_suspect_ascii_corruptionB7_
FN:322,_RNvMs0_NtCs7MLK0KUMdQf_14copybook_codec6recordINtB5_15RDWRecordReaderQINtNtNtCs4eoO4cHkFdT_3std2io6cursor6CursorRAhj8_EE3newB7_
FN:697,_RNvMs1_NtCs7MLK0KUMdQf_14copybook_codec6recordINtB5_15RDWRecordWriterQINtNtCs31agqjrRntl_5alloc3vec3VechEE12record_countB7_
FN:592,_RNvMs1_NtCs7MLK0KUMdQf_14copybook_codec6recordINtB5_15RDWRecordWriterQINtNtCs31agqjrRntl_5alloc3vec3VechEE12write_recordB7_
FN:638,_RNvMs1_NtCs7MLK0KUMdQf_14copybook_codec6recordINtB5_15RDWRecordWriterQINtNtCs31agqjrRntl_5alloc3vec3VechEE25write_record_from_payloadB7_
FN:580,_RNvMs1_NtCs7MLK0KUMdQf_14copybook_codec6recordINtB5_15RDWRecordWriterQINtNtCs31agqjrRntl_5alloc3vec3VechEE3newB7_
FN:301,_RNvMs_NtCs7MLK0KUMdQf_14copybook_codec6recordINtB4_17FixedRecordWriterQINtNtCs31agqjrRntl_5alloc3vec3VechEE12record_countB6_
FN:219,_RNvMs_NtCs7MLK0KUMdQf_14copybook_codec6recordINtB4_17FixedRecordWriterQINtNtCs31agqjrRntl_5alloc3vec3VechEE12write_recordB6_
FN:196,_RNvMs_NtCs7MLK0KUMdQf_14copybook_codec6recordINtB4_17FixedRecordWriterQINtNtCs31agqjrRntl_5alloc3vec3VechEE3newB6_
FN:290,_RNvMs_NtCs7MLK0KUMdQf_14copybook_codec6recordINtB4_17FixedRecordWriterQINtNtCs31agqjrRntl_5alloc3vec3VechEE5flushB6_
FN:997,_RNvNtNtCs7MLK0KUMdQf_14copybook_codec6record5testss_19test_rdw_record_new
FN:1041,_RNvNtNtCs7MLK0KUMdQf_14copybook_codec6record5testss_21test_rdw_reader_basic
FN:1167,_RNvNtNtCs7MLK0KUMdQf_14copybook_codec6record5testss_21test_rdw_writer_basic
FN:1021,_RNvNtNtCs7MLK0KUMdQf_14copybook_codec6record5testss_24test_rdw_record_as_bytes
FN:1299,_RNvNtNtCs7MLK0KUMdQf_14copybook_codec6record5testss_27test_legacy_read_record_rdw
FN:1078,_RNvNtNtCs7MLK0KUMdQf_14copybook_codec6record5testss_27test_rdw_reader_zero_length
FN:932,_RNvNtNtCs7MLK0KUMdQf_14copybook_codec6record5testss_27test_validate_record_length
FN:983,_RNvNtNtCs7MLK0KUMdQf_14copybook_codec6record5testss_28test_legacy_write_record_rdw
FN:1179,_RNvNtNtCs7MLK0KUMdQf_14copybook_codec6record5testss_28test_rdw_writer_from_payload
FN:958,_RNvNtNtCs7MLK0KUMdQf_14copybook_codec6record5testss_29test_legacy_read_record_fixed
FN:1005,_RNvNtNtCs7MLK0KUMdQf_14copybook_codec6record5testss_29test_rdw_record_with_reserved
FN:833,_RNvNtNtCs7MLK0KUMdQf_14copybook_codec6record5testss_30test_fixed_record_reader_basic
FN:883,_RNvNtNtCs7MLK0KUMdQf_14copybook_codec6record5testss_30test_fixed_record_writer_basic
FN:976,_RNvNtNtCs7MLK0KUMdQf_14copybook_codec6record5testss_30test_legacy_write_record_fixed
FN:1054,_RNvNtNtCs7MLK0KUMdQf_14copybook_codec6record5testss_32test_rdw_reader_multiple_records
FN:1013,_RNvNtNtCs7MLK0KUMdQf_14copybook_codec6record5testss_32test_rdw_record_recompute_length
FN:874,_RNvNtNtCs7MLK0KUMdQf_14copybook_codec6record5testss_33test_fixed_record_reader_no_lrecl
FN:923,_RNvNtNtCs7MLK0KUMdQf_14copybook_codec6record5testss_33test_fixed_record_writer_no_lrecl
FN:902,_RNvNtNtCs7MLK0KUMdQf_14copybook_codec6record5testss_33test_fixed_record_writer_too_long
FN:1112,_RNvNtNtCs7MLK0KUMdQf_14copybook_codec6record5testss_33test_rdw_reader_incomplete_header
FN:1202,_RNvNtNtCs7MLK0KUMdQf_14copybook_codec6record5testss_33test_rdw_writer_payload_too_large
FN:1190,_RNvNtNtCs7MLK0KUMdQf_14copybook_codec6record5testss_33test_rdw_writer_preserve_reserved
FN:1123,_RNvNtNtCs7MLK0KUMdQf_14copybook_codec6record5testss_34test_rdw_reader_incomplete_payload
FN:865,_RNvNtNtCs7MLK0KUMdQf_14copybook_codec6record5testss_35test_fixed_record_reader_zero_lrecl
FN:914,_RNvNtNtCs7MLK0KUMdQf_14copybook_codec6record5testss_35test_fixed_record_writer_zero_lrecl
FN:943,_RNvNtNtCs7MLK0KUMdQf_14copybook_codec6record5testss_36test_validate_record_length_mismatch
FN:1028,_RNvNtNtCs7MLK0KUMdQf_14copybook_codec6record5testss_37test_rdw_record_get_data_for_raw_mode
FN:853,_RNvNtNtCs7MLK0KUMdQf_14copybook_codec6record5testss_39test_fixed_record_reader_partial_record
FN:1100,_RNvNtNtCs7MLK0KUMdQf_14copybook_codec6record5testss_39test_rdw_reader_reserved_nonzero_strict
FN:1089,_RNvNtNtCs7MLK0KUMdQf_14copybook_codec6record5testss_40test_rdw_reader_reserved_nonzero_lenient
FN:1241,_RNvNtNtCs7MLK0KUMdQf_14copybook_codec6record5testss_41test_zero_length_record_rejected_with_odo
FN:967,_RNvNtNtCs7MLK0KUMdQf_14copybook_codec6record5testss_42test_legacy_read_record_rdw_invalid_header
FN:1135,_RNvNtNtCs7MLK0KUMdQf_14copybook_codec6record5testss_42test_rdw_reader_ascii_corruption_detection
FN:1216,_RNvNtNtCs7MLK0KUMdQf_14copybook_codec6record5testss_44test_zero_length_record_rejected_without_odo
FN:1287,_RNvNtNtCs7MLK0KUMdQf_14copybook_codec6record5testss_48test_zero_length_record_allowed_for_empty_schema
FN:28,_RNCNvMNtCs8M7rtMEmd2k_14copybook_codec6recordINtB4_17FixedRecordReaderINtNtNtCs4eoO4cHkFdT_3std2io6cursor6CursorRINtNtCs31agqjrRntl_5alloc3vec3VechEEE3new0CsfrfqSxIOjnf_41enterprise_mainframe_production_scenarios
FN:561,_RNCNvMs0_NtCs8M7rtMEmd2k_14copybook_codec6recordINtB7_15RDWRecordReaderINtNtNtCs4eoO4cHkFdT_3std2io6cursor6CursorRINtNtCs31agqjrRntl_5alloc3vec3VechEEE27is_suspect_ascii_corruption0CsfrfqSxIOjnf_41enterprise_mainframe_production_scenarios
FN:49,_RNvMNtCs8M7rtMEmd2k_14copybook_codec6recordINtB2_17FixedRecordReaderINtNtNtCs4eoO4cHkFdT_3std2io6cursor6CursorRINtNtCs31agqjrRntl_5alloc3vec3VechEEE11read_recordCsfrfqSxIOjnf_41enterprise_mainframe_production_scenarios
FN:26,_RNvMNtCs8M7rtMEmd2k_14copybook_codec6recordINtB2_17FixedRecordReaderINtNtNtCs4eoO4cHkFdT_3std2io6cursor6CursorRINtNtCs31agqjrRntl_5alloc3vec3VechEEE3newCsfrfqSxIOjnf_41enterprise_mainframe_production_scenarios
FN:335,_RNvMs0_NtCs8M7rtMEmd2k_14copybook_codec6recordINtB5_15RDWRecordReaderINtNtNtCs4eoO4cHkFdT_3std2io6cursor6CursorRINtNtCs31agqjrRntl_5alloc3vec3VechEEE11read_recordCsfrfqSxIOjnf_41enterprise_mainframe_production_scenarios
FN:555,_RNvMs0_NtCs8M7rtMEmd2k_14copybook_codec6recordINtB5_15RDWRecordReaderINtNtNtCs4eoO4cHkFdT_3std2io6cursor6CursorRINtNtCs31agqjrRntl_5alloc3vec3VechEEE27is_suspect_ascii_corruptionCsfrfqSxIOjnf_41enterprise_mainframe_production_scenarios
FN:322,_RNvMs0_NtCs8M7rtMEmd2k_14copybook_codec6recordINtB5_15RDWRecordReaderINtNtNtCs4eoO4cHkFdT_3std2io6cursor6CursorRINtNtCs31agqjrRntl_5alloc3vec3VechEEE3newCsfrfqSxIOjnf_41enterprise_mainframe_production_scenarios
FN:28,_RNCNvMNtCs8M7rtMEmd2k_14copybook_codec6recordINtB4_17FixedRecordReaderINtNtNtCs4eoO4cHkFdT_3std2io6cursor6CursorRINtNtCs31agqjrRntl_5alloc3vec3VechEEE3new0CsaBuigDW70JO_15golden_fixtures
FN:561,_RNCNvMs0_NtCs8M7rtMEmd2k_14copybook_codec6recordINtB7_15RDWRecordReaderINtNtNtCs4eoO4cHkFdT_3std2io6cursor6CursorRINtNtCs31agqjrRntl_5alloc3vec3VechEEE27is_suspect_ascii_corruption0CsaBuigDW70JO_15golden_fixtures
FN:49,_RNvMNtCs8M7rtMEmd2k_14copybook_codec6recordINtB2_17FixedRecordReaderINtNtNtCs4eoO4cHkFdT_3std2io6cursor6CursorRINtNtCs31agqjrRntl_5alloc3vec3VechEEE11read_recordCsaBuigDW70JO_15golden_fixtures
FN:26,_RNvMNtCs8M7rtMEmd2k_14copybook_codec6recordINtB2_17FixedRecordReaderINtNtNtCs4eoO4cHkFdT_3std2io6cursor6CursorRINtNtCs31agqjrRntl_5alloc3vec3VechEEE3newCsaBuigDW70JO_15golden_fixtures
FN:335,_RNvMs0_NtCs8M7rtMEmd2k_14copybook_codec6recordINtB5_15RDWRecordReaderINtNtNtCs4eoO4cHkFdT_3std2io6cursor6CursorRINtNtCs31agqjrRntl_5alloc3vec3VechEEE11read_recordCsaBuigDW70JO_15golden_fixtures
FN:555,_RNvMs0_NtCs8M7rtMEmd2k_14copybook_codec6recordINtB5_15RDWRecordReaderINtNtNtCs4eoO4cHkFdT_3std2io6cursor6CursorRINtNtCs31agqjrRntl_5alloc3vec3VechEEE27is_suspect_ascii_corruptionCsaBuigDW70JO_15golden_fixtures
FN:322,_RNvMs0_NtCs8M7rtMEmd2k_14copybook_codec6recordINtB5_15RDWRecordReaderINtNtNtCs4eoO4cHkFdT_3std2io6cursor6CursorRINtNtCs31agqjrRntl_5alloc3vec3VechEEE3newCsaBuigDW70JO_15golden_fixtures
FN:28,_RNCNvMNtCs8M7rtMEmd2k_14copybook_codec6recordINtB4_17FixedRecordReaderINtNtNtCs4eoO4cHkFdT_3std2io6cursor6CursorRINtNtCs31agqjrRntl_5alloc3vec3VechEEE3new0Csg7HvolesBgV_29integration_memory_management
FN:561,_RNCNvMs0_NtCs8M7rtMEmd2k_14copybook_codec6recordINtB7_15RDWRecordReaderINtNtNtCs4eoO4cHkFdT_3std2io6cursor6CursorRINtNtCs31agqjrRntl_5alloc3vec3VechEEE27is_suspect_ascii_corruption0Csg7HvolesBgV_29integration_memory_management
FN:49,_RNvMNtCs8M7rtMEmd2k_14copybook_codec6recordINtB2_17FixedRecordReaderINtNtNtCs4eoO4cHkFdT_3std2io6cursor6CursorRINtNtCs31agqjrRntl_5alloc3vec3VechEEE11read_recordCsg7HvolesBgV_29integration_memory_management
FN:26,_RNvMNtCs8M7rtMEmd2k_14copybook_codec6recordINtB2_17FixedRecordReaderINtNtNtCs4eoO4cHkFdT_3std2io6cursor6CursorRINtNtCs31agqjrRntl_5alloc3vec3VechEEE3newCsg7HvolesBgV_29integration_memory_management
FN:335,_RNvMs0_NtCs8M7rtMEmd2k_14copybook_codec6recordINtB5_15RDWRecordReaderINtNtNtCs4eoO4cHkFdT_3std2io6cursor6CursorRINtNtCs31agqjrRntl_5alloc3vec3VechEEE11read_recordCsg7HvolesBgV_29integration_memory_management
FN:555,_RNvMs0_NtCs8M7rtMEmd2k_14copybook_codec6recordINtB5_15RDWRecordReaderINtNtNtCs4eoO4cHkFdT_3std2io6cursor6CursorRINtNtCs31agqjrRntl_5alloc3vec3VechEEE27is_suspect_ascii_corruptionCsg7HvolesBgV_29integration_memory_management
FN:322,_RNvMs0_NtCs8M7rtMEmd2k_14copybook_codec6recordINtB5_15RDWRecordReaderINtNtNtCs4eoO4cHkFdT_3std2io6cursor6CursorRINtNtCs31agqjrRntl_5alloc3vec3VechEEE3newCsg7HvolesBgV_29integration_memory_management
FN:28,_RNCNvMNtCs8M7rtMEmd2k_14copybook_codec6recordINtB4_17FixedRecordReaderINtNtNtCs4eoO4cHkFdT_3std2io6cursor6CursorRAhj1c_EE3new0CskPdd2mul4kv_25integration_odo_redefines
FN:28,_RNCNvMNtCs8M7rtMEmd2k_14copybook_codec6recordINtB4_17FixedRecordReaderINtNtNtCs4eoO4cHkFdT_3std2io6cursor6CursorRAhj23_EE3new0CskPdd2mul4kv_25integration_odo_redefines
FN:561,_RNCNvMs0_NtCs8M7rtMEmd2k_14copybook_codec6recordINtB7_15RDWRecordReaderINtNtNtCs4eoO4cHkFdT_3std2io6cursor6CursorRAhj1c_EE27is_suspect_ascii_corruption0CskPdd2mul4kv_25integration_odo_redefines
FN:561,_RNCNvMs0_NtCs8M7rtMEmd2k_14copybook_codec6recordINtB7_15RDWRecordReaderINtNtNtCs4eoO4cHkFdT_3std2io6cursor6CursorRAhj23_EE27is_suspect_ascii_corruption0CskPdd2mul4kv_25integration_odo_redefines
FN:49,_RNvMNtCs8M7rtMEmd2k_14copybook_codec6recordINtB2_17FixedRecordReaderINtNtNtCs4eoO4cHkFdT_3std2io6cursor6CursorRAhj1c_EE11read_recordCskPdd2mul4kv_25integration_odo_redefines
FN:26,_RNvMNtCs8M7rtMEmd2k_14copybook_codec6recordINtB2_17FixedRecordReaderINtNtNtCs4eoO4cHkFdT_3std2io6cursor6CursorRAhj1c_EE3newCskPdd2mul4kv_25integration_odo_redefines
FN:49,_RNvMNtCs8M7rtMEmd2k_14copybook_codec6recordINtB2_17FixedRecordReaderINtNtNtCs4eoO4cHkFdT_3std2io6cursor6CursorRAhj23_EE11read_recordCskPdd2mul4kv_25integration_odo_redefines
FN:26,_RNvMNtCs8M7rtMEmd2k_14copybook_codec6recordINtB2_17FixedRecordReaderINtNtNtCs4eoO4cHkFdT_3std2io6cursor6CursorRAhj23_EE3newCskPdd2mul4kv_25integration_odo_redefines
FN:335,_RNvMs0_NtCs8M7rtMEmd2k_14copybook_codec6recordINtB5_15RDWRecordReaderINtNtNtCs4eoO4cHkFdT_3std2io6cursor6CursorRAhj1c_EE11read_recordCskPdd2mul4kv_25integration_odo_redefines
FN:555,_RNvMs0_NtCs8M7rtMEmd2k_14copybook_codec6recordINtB5_15RDWRecordReaderINtNtNtCs4eoO4cHkFdT_3std2io6cursor6CursorRAhj1c_EE27is_suspect_ascii_corruptionCskPdd2mul4kv_25integration_odo_redefines
FN:322,_RNvMs0_NtCs8M7rtMEmd2k_14copybook_codec6recordINtB5_15RDWRecordReaderINtNtNtCs4eoO4cHkFdT_3std2io6cursor6CursorRAhj1c_EE3newCskPdd2mul4kv_25integration_odo_redefines
FN:335,_RNvMs0_NtCs8M7rtMEmd2k_14copybook_codec6recordINtB5_15RDWRecordReaderINtNtNtCs4eoO4cHkFdT_3std2io6cursor6CursorRAhj23_EE11read_recordCskPdd2mul4kv_25integration_odo_redefines
FN:555,_RNvMs0_NtCs8M7rtMEmd2k_14copybook_codec6recordINtB5_15RDWRecordReaderINtNtNtCs4eoO4cHkFdT_3std2io6cursor6CursorRAhj23_EE27is_suspect_ascii_corruptionCskPdd2mul4kv_25integration_odo_redefines
FN:322,_RNvMs0_NtCs8M7rtMEmd2k_14copybook_codec6recordINtB5_15RDWRecordReaderINtNtNtCs4eoO4cHkFdT_3std2io6cursor6CursorRAhj23_EE3newCskPdd2mul4kv_25integration_odo_redefines
FN:28,_RNCNvMNtCs8M7rtMEmd2k_14copybook_codec6recordINtB4_17FixedRecordReaderINtNtNtCs4eoO4cHkFdT_3std2io6cursor6CursorRAhj2_EE3new0Cslw1aZpohcdE_21numeric_comprehensive
FN:28,_RNCNvMNtCs8M7rtMEmd2k_14copybook_codec6recordINtB4_17FixedRecordReaderINtNtNtCs4eoO4cHkFdT_3std2io6cursor6CursorRAhj3_EE3new0Cslw1aZpohcdE_21numeric_comprehensive
FN:28,_RNCNvMNtCs8M7rtMEmd2k_14copybook_codec6recordINtB4_17FixedRecordReaderINtNtNtCs4eoO4cHkFdT_3std2io6cursor6CursorRAhj4_EE3new0Cslw1aZpohcdE_21numeric_comprehensive
FN:28,_RNCNvMNtCs8M7rtMEmd2k_14copybook_codec6recordINtB4_17FixedRecordReaderINtNtNtCs4eoO4cHkFdT_3std2io6cursor6CursorRAhj5_EE3new0Cslw1aZpohcdE_21numeric_comprehensive
FN:28,_RNCNvMNtCs8M7rtMEmd2k_14copybook_codec6recordINtB4_17FixedRecordReaderINtNtNtCs4eoO4cHkFdT_3std2io6cursor6CursorRAhj8_EE3new0Cslw1aZpohcdE_21numeric_comprehensive
FN:28,_RNCNvMNtCs8M7rtMEmd2k_14copybook_codec6recordINtB4_17FixedRecordReaderINtNtNtCs4eoO4cHkFdT_3std2io6cursor6CursorRAhjb_EE3new0Cslw1aZpohcdE_21numeric_comprehensive
FN:561,_RNCNvMs0_NtCs8M7rtMEmd2k_14copybook_codec6recordINtB7_15RDWRecordReaderINtNtNtCs4eoO4cHkFdT_3std2io6cursor6CursorRAhj2_EE27is_suspect_ascii_corruption0Cslw1aZpohcdE_21numeric_comprehensive
FN:561,_RNCNvMs0_NtCs8M7rtMEmd2k_14copybook_codec6recordINtB7_15RDWRecordReaderINtNtNtCs4eoO4cHkFdT_3std2io6cursor6CursorRAhj3_EE27is_suspect_ascii_corruption0Cslw1aZpohcdE_21numeric_comprehensive
FN:561,_RNCNvMs0_NtCs8M7rtMEmd2k_14copybook_codec6recordINtB7_15RDWRecordReaderINtNtNtCs4eoO4cHkFdT_3std2io6cursor6CursorRAhj4_EE27is_suspect_ascii_corruption0Cslw1aZpohcdE_21numeric_comprehensive
FN:561,_RNCNvMs0_NtCs8M7rtMEmd2k_14copybook_codec6recordINtB7_15RDWRecordReaderINtNtNtCs4eoO4cHkFdT_3std2io6cursor6CursorRAhj5_EE27is_suspect_ascii_corruption0Cslw1aZpohcdE_21numeric_comprehensive
FN:561,_RNCNvMs0_NtCs8M7rtMEmd2k_14copybook_codec6recordINtB7_15RDWRecordReaderINtNtNtCs4eoO4cHkFdT_3std2io6cursor6CursorRAhj8_EE27is_suspect_ascii_corruption0Cslw1aZpohcdE_21numeric_comprehensive
FN:561,_RNCNvMs0_NtCs8M7rtMEmd2k_14copybook_codec6recordINtB7_15RDWRecordReaderINtNtNtCs4eoO4cHkFdT_3std2io6cursor6CursorRAhjb_EE27is_suspect_ascii_corruption0Cslw1aZpohcdE_21numeric_comprehensive
FN:49,_RNvMNtCs8M7rtMEmd2k_14copybook_codec6recordINtB2_17FixedRecordReaderINtNtNtCs4eoO4cHkFdT_3std2io6cursor6CursorRAhj2_EE11read_recordCslw1aZpohcdE_21numeric_comprehensive
FN:26,_RNvMNtCs8M7rtMEmd2k_14copybook_codec6recordINtB2_17FixedRecordReaderINtNtNtCs4eoO4cHkFdT_3std2io6cursor6CursorRAhj2_EE3newCslw1aZpohcdE_21numeric_comprehensive
FN:49,_RNvMNtCs8M7rtMEmd2k_14copybook_codec6recordINtB2_17FixedRecordReaderINtNtNtCs4eoO4cHkFdT_3std2io6cursor6CursorRAhj3_EE11read_recordCslw1aZpohcdE_21numeric_comprehensive
FN:26,_RNvMNtCs8M7rtMEmd2k_14copybook_codec6recordINtB2_17FixedRecordReaderINtNtNtCs4eoO4cHkFdT_3std2io6cursor6CursorRAhj3_EE3newCslw1aZpohcdE_21numeric_comprehensive
FN:49,_RNvMNtCs8M7rtMEmd2k_14copybook_codec6recordINtB2_17FixedRecordReaderINtNtNtCs4eoO4cHkFdT_3std2io6cursor6CursorRAhj4_EE11read_recordCslw1aZpohcdE_21numeric_comprehensive
FN:26,_RNvMNtCs8M7rtMEmd2k_14copybook_codec6recordINtB2_17FixedRecordReaderINtNtNtCs4eoO4cHkFdT_3std2io6cursor6CursorRAhj4_EE3newCslw1aZpohcdE_21numeric_comprehensive
FN:49,_RNvMNtCs8M7rtMEmd2k_14copybook_codec6recordINtB2_17FixedRecordReaderINtNtNtCs4eoO4cHkFdT_3std2io6cursor6CursorRAhj5_EE11read_recordCslw1aZpohcdE_21numeric_comprehensive
FN:26,_RNvMNtCs8M7rtMEmd2k_14copybook_codec6recordINtB2_17FixedRecordReaderINtNtNtCs4eoO4cHkFdT_3std2io6cursor6CursorRAhj5_EE3newCslw1aZpohcdE_21numeric_comprehensive
FN:49,_RNvMNtCs8M7rtMEmd2k_14copybook_codec6recordINtB2_17FixedRecordReaderINtNtNtCs4eoO4cHkFdT_3std2io6cursor6CursorRAhj8_EE11read_recordCslw1aZpohcdE_21numeric_comprehensive
FN:26,_RNvMNtCs8M7rtMEmd2k_14copybook_codec6recordINtB2_17FixedRecordReaderINtNtNtCs4eoO4cHkFdT_3std2io6cursor6CursorRAhj8_EE3newCslw1aZpohcdE_21numeric_comprehensive
FN:49,_RNvMNtCs8M7rtMEmd2k_14copybook_codec6recordINtB2_17FixedRecordReaderINtNtNtCs4eoO4cHkFdT_3std2io6cursor6CursorRAhjb_EE11read_recordCslw1aZpohcdE_21numeric_comprehensive
FN:26,_RNvMNtCs8M7rtMEmd2k_14copybook_codec6recordINtB2_17FixedRecordReaderINtNtNtCs4eoO4cHkFdT_3std2io6cursor6CursorRAhjb_EE3newCslw1aZpohcdE_21numeric_comprehensive
FN:335,_RNvMs0_NtCs8M7rtMEmd2k_14copybook_codec6recordINtB5_15RDWRecordReaderINtNtNtCs4eoO4cHkFdT_3std2io6cursor6CursorRAhj2_EE11read_recordCslw1aZpohcdE_21numeric_comprehensive
FN:555,_RNvMs0_NtCs8M7rtMEmd2k_14copybook_codec6recordINtB5_15RDWRecordReaderINtNtNtCs4eoO4cHkFdT_3std2io6cursor6CursorRAhj2_EE27is_suspect_ascii_corruptionCslw1aZpohcdE_21numeric_comprehensive
FN:322,_RNvMs0_NtCs8M7rtMEmd2k_14copybook_codec6recordINtB5_15RDWRecordReaderINtNtNtCs4eoO4cHkFdT_3std2io6cursor6CursorRAhj2_EE3newCslw1aZpohcdE_21numeric_comprehensive
FN:335,_RNvMs0_NtCs8M7rtMEmd2k_14copybook_codec6recordINtB5_15RDWRecordReaderINtNtNtCs4eoO4cHkFdT_3std2io6cursor6CursorRAhj3_EE11read_recordCslw1aZpohcdE_21numeric_comprehensive
FN:555,_RNvMs0_NtCs8M7rtMEmd2k_14copybook_codec6recordINtB5_15RDWRecordReaderINtNtNtCs4eoO4cHkFdT_3std2io6cursor6CursorRAhj3_EE27is_suspect_ascii_corruptionCslw1aZpohcdE_21numeric_comprehensive
FN:322,_RNvMs0_NtCs8M7rtMEmd2k_14copybook_codec6recordINtB5_15RDWRecordReaderINtNtNtCs4eoO4cHkFdT_3std2io6cursor6CursorRAhj3_EE3newCslw1aZpohcdE_21numeric_comprehensive
FN:335,_RNvMs0_NtCs8M7rtMEmd2k_14copybook_codec6recordINtB5_15RDWRecordReaderINtNtNtCs4eoO4cHkFdT_3std2io6cursor6CursorRAhj4_EE11read_recordCslw1aZpohcdE_21numeric_comprehensive
FN:555,_RNvMs0_NtCs8M7rtMEmd2k_14copybook_codec6recordINtB5_15RDWRecordReaderINtNtNtCs4eoO4cHkFdT_3std2io6cursor6CursorRAhj4_EE27is_suspect_ascii_corruptionCslw1aZpohcdE_21numeric_comprehensive
FN:322,_RNvMs0_NtCs8M7rtMEmd2k_14copybook_codec6recordINtB5_15RDWRecordReaderINtNtNtCs4eoO4cHkFdT_3std2io6cursor6CursorRAhj4_EE3newCslw1aZpohcdE_21numeric_comprehensive
FN:335,_RNvMs0_NtCs8M7rtMEmd2k_14copybook_codec6recordINtB5_15RDWRecordReaderINtNtNtCs4eoO4cHkFdT_3std2io6cursor6CursorRAhj5_EE11read_recordCslw1aZpohcdE_21numeric_comprehensive
FN:555,_RNvMs0_NtCs8M7rtMEmd2k_14copybook_codec6recordINtB5_15RDWRecordReaderINtNtNtCs4eoO4cHkFdT_3std2io6cursor6CursorRAhj5_EE27is_suspect_ascii_corruptionCslw1aZpohcdE_21numeric_comprehensive
FN:322,_RNvMs0_NtCs8M7rtMEmd2k_14copybook_codec6recordINtB5_15RDWRecordReaderINtNtNtCs4eoO4cHkFdT_3std2io6cursor6CursorRAhj5_EE3newCslw1aZpohcdE_21numeric_comprehensive
FN:335,_RNvMs0_NtCs8M7rtMEmd2k_14copybook_codec6recordINtB5_15RDWRecordReaderINtNtNtCs4eoO4cHkFdT_3std2io6cursor6CursorRAhj8_EE11read_recordCslw1aZpohcdE_21numeric_comprehensive
FN:555,_RNvMs0_NtCs8M7rtMEmd2k_14copybook_codec6recordINtB5_15RDWRecordReaderINtNtNtCs4eoO4cHkFdT_3std2io6cursor6CursorRAhj8_EE27is_suspect_ascii_corruptionCslw1aZpohcdE_21numeric_comprehensive
FN:322,_RNvMs0_NtCs8M7rtMEmd2k_14copybook_codec6recordINtB5_15RDWRecordReaderINtNtNtCs4eoO4cHkFdT_3std2io6cursor6CursorRAhj8_EE3newCslw1aZpohcdE_21numeric_comprehensive
FN:335,_RNvMs0_NtCs8M7rtMEmd2k_14copybook_codec6recordINtB5_15RDWRecordReaderINtNtNtCs4eoO4cHkFdT_3std2io6cursor6CursorRAhjb_EE11read_recordCslw1aZpohcdE_21numeric_comprehensive
FN:555,_RNvMs0_NtCs8M7rtMEmd2k_14copybook_codec6recordINtB5_15RDWRecordReaderINtNtNtCs4eoO4cHkFdT_3std2io6cursor6CursorRAhjb_EE27is_suspect_ascii_corruptionCslw1aZpohcdE_21numeric_comprehensive
FN:322,_RNvMs0_NtCs8M7rtMEmd2k_14copybook_codec6recordINtB5_15RDWRecordReaderINtNtNtCs4eoO4cHkFdT_3std2io6cursor6CursorRAhjb_EE3newCslw1aZpohcdE_21numeric_comprehensive
FN:28,_RNCNvMNtCs8M7rtMEmd2k_14copybook_codec6recordINtB4_17FixedRecordReaderINtNtNtCs4eoO4cHkFdT_3std2io6cursor6CursorRAhj17_EE3new0Cs39nnvYeCEEq_17odo_comprehensive
FN:28,_RNCNvMNtCs8M7rtMEmd2k_14copybook_codec6recordINtB4_17FixedRecordReaderINtNtNtCs4eoO4cHkFdT_3std2io6cursor6CursorRAhj21_EE3new0Cs39nnvYeCEEq_17odo_comprehensive
FN:28,_RNCNvMNtCs8M7rtMEmd2k_14copybook_codec6recordINtB4_17FixedRecordReaderINtNtNtCs4eoO4cHkFdT_3std2io6cursor6CursorRAhj35_EE3new0Cs39nnvYeCEEq_17odo_comprehensive
FN:28,_RNCNvMNtCs8M7rtMEmd2k_14copybook_codec6recordINtB4_17FixedRecordReaderINtNtNtCs4eoO4cHkFdT_3std2io6cursor6CursorRAhj3_EE3new0Cs39nnvYeCEEq_17odo_comprehensive
FN:28,_RNCNvMNtCs8M7rtMEmd2k_14copybook_codec6recordINtB4_17FixedRecordReaderINtNtNtCs4eoO4cHkFdT_3std2io6cursor6CursorRINtNtCs31agqjrRntl_5alloc3vec3VechEEE3new0Cs39nnvYeCEEq_17odo_comprehensive
FN:28,_RNCNvMNtCs8M7rtMEmd2k_14copybook_codec6recordINtB4_17FixedRecordReaderINtNtNtCs4eoO4cHkFdT_3std2io6cursor6CursorRShEE3new0Cs39nnvYeCEEq_17odo_comprehensive
FN:561,_RNCNvMs0_NtCs8M7rtMEmd2k_14copybook_codec6recordINtB7_15RDWRecordReaderINtNtNtCs4eoO4cHkFdT_3std2io6cursor6CursorRAhj17_EE27is_suspect_ascii_corruption0Cs39nnvYeCEEq_17odo_comprehensive
FN:561,_RNCNvMs0_NtCs8M7rtMEmd2k_14copybook_codec6recordINtB7_15RDWRecordReaderINtNtNtCs4eoO4cHkFdT_3std2io6cursor6CursorRAhj21_EE27is_suspect_ascii_corruption0Cs39nnvYeCEEq_17odo_comprehensive
FN:561,_RNCNvMs0_NtCs8M7rtMEmd2k_14copybook_codec6recordINtB7_15RDWRecordReaderINtNtNtCs4eoO4cHkFdT_3std2io6cursor6CursorRAhj35_EE27is_suspect_ascii_corruption0Cs39nnvYeCEEq_17odo_comprehensive
FN:561,_RNCNvMs0_NtCs8M7rtMEmd2k_14copybook_codec6recordINtB7_15RDWRecordReaderINtNtNtCs4eoO4cHkFdT_3std2io6cursor6CursorRAhj3_EE27is_suspect_ascii_corruption0Cs39nnvYeCEEq_17odo_comprehensive
FN:561,_RNCNvMs0_NtCs8M7rtMEmd2k_14copybook_codec6recordINtB7_15RDWRecordReaderINtNtNtCs4eoO4cHkFdT_3std2io6cursor6CursorRINtNtCs31agqjrRntl_5alloc3vec3VechEEE27is_suspect_ascii_corruption0Cs39nnvYeCEEq_17odo_comprehensive
FN:561,_RNCNvMs0_NtCs8M7rtMEmd2k_14copybook_codec6recordINtB7_15RDWRecordReaderINtNtNtCs4eoO4cHkFdT_3std2io6cursor6CursorRShEE27is_suspect_ascii_corruption0Cs39nnvYeCEEq_17odo_comprehensive
FN:49,_RNvMNtCs8M7rtMEmd2k_14copybook_codec6recordINtB2_17FixedRecordReaderINtNtNtCs4eoO4cHkFdT_3std2io6cursor6CursorRAhj17_EE11read_recordCs39nnvYeCEEq_17odo_comprehensive
FN:26,_RNvMNtCs8M7rtMEmd2k_14copybook_codec6recordINtB2_17FixedRecordReaderINtNtNtCs4eoO4cHkFdT_3std2io6cursor6CursorRAhj17_EE3newCs39nnvYeCEEq_17odo_comprehensive
FN:49,_RNvMNtCs8M7rtMEmd2k_14copybook_codec6recordINtB2_17FixedRecordReaderINtNtNtCs4eoO4cHkFdT_3std2io6cursor6CursorRAhj21_EE11read_recordCs39nnvYeCEEq_17odo_comprehensive
FN:26,_RNvMNtCs8M7rtMEmd2k_14copybook_codec6recordINtB2_17FixedRecordReaderINtNtNtCs4eoO4cHkFdT_3std2io6cursor6CursorRAhj21_EE3newCs39nnvYeCEEq_17odo_comprehensive
FN:49,_RNvMNtCs8M7rtMEmd2k_14copybook_codec6recordINtB2_17FixedRecordReaderINtNtNtCs4eoO4cHkFdT_3std2io6cursor6CursorRAhj35_EE11read_recordCs39nnvYeCEEq_17odo_comprehensive
FN:26,_RNvMNtCs8M7rtMEmd2k_14copybook_codec6recordINtB2_17FixedRecordReaderINtNtNtCs4eoO4cHkFdT_3std2io6cursor6CursorRAhj35_EE3newCs39nnvYeCEEq_17odo_comprehensive
FN:49,_RNvMNtCs8M7rtMEmd2k_14copybook_codec6recordINtB2_17FixedRecordReaderINtNtNtCs4eoO4cHkFdT_3std2io6cursor6CursorRAhj3_EE11read_recordCs39nnvYeCEEq_17odo_comprehensive
FN:26,_RNvMNtCs8M7rtMEmd2k_14copybook_codec6recordINtB2_17FixedRecordReaderINtNtNtCs4eoO4cHkFdT_3std2io6cursor6CursorRAhj3_EE3newCs39nnvYeCEEq_17odo_comprehensive
FN:49,_RNvMNtCs8M7rtMEmd2k_14copybook_codec6recordINtB2_17FixedRecordReaderINtNtNtCs4eoO4cHkFdT_3std2io6cursor6CursorRINtNtCs31agqjrRntl_5alloc3vec3VechEEE11read_recordCs39nnvYeCEEq_17odo_comprehensive
FN:26,_RNvMNtCs8M7rtMEmd2k_14copybook_codec6recordINtB2_17FixedRecordReaderINtNtNtCs4eoO4cHkFdT_3std2io6cursor6CursorRINtNtCs31agqjrRntl_5alloc3vec3VechEEE3newCs39nnvYeCEEq_17odo_comprehensive
FN:49,_RNvMNtCs8M7rtMEmd2k_14copybook_codec6recordINtB2_17FixedRecordReaderINtNtNtCs4eoO4cHkFdT_3std2io6cursor6CursorRShEE11read_recordCs39nnvYeCEEq_17odo_comprehensive
FN:26,_RNvMNtCs8M7rtMEmd2k_14copybook_codec6recordINtB2_17FixedRecordReaderINtNtNtCs4eoO4cHkFdT_3std2io6cursor6CursorRShEE3newCs39nnvYeCEEq_17odo_comprehensive
FN:335,_RNvMs0_NtCs8M7rtMEmd2k_14copybook_codec6recordINtB5_15RDWRecordReaderINtNtNtCs4eoO4cHkFdT_3std2io6cursor6CursorRAhj17_EE11read_recordCs39nnvYeCEEq_17odo_comprehensive
FN:555,_RNvMs0_NtCs8M7rtMEmd2k_14copybook_codec6recordINtB5_15RDWRecordReaderINtNtNtCs4eoO4cHkFdT_3std2io6cursor6CursorRAhj17_EE27is_suspect_ascii_corruptionCs39nnvYeCEEq_17odo_comprehensive
FN:322,_RNvMs0_NtCs8M7rtMEmd2k_14copybook_codec6recordINtB5_15RDWRecordReaderINtNtNtCs4eoO4cHkFdT_3std2io6cursor6CursorRAhj17_EE3newCs39nnvYeCEEq_17odo_comprehensive
FN:335,_RNvMs0_NtCs8M7rtMEmd2k_14copybook_codec6recordINtB5_15RDWRecordReaderINtNtNtCs4eoO4cHkFdT_3std2io6cursor6CursorRAhj21_EE11read_recordCs39nnvYeCEEq_17odo_comprehensive
FN:555,_RNvMs0_NtCs8M7rtMEmd2k_14copybook_codec6recordINtB5_15RDWRecordReaderINtNtNtCs4eoO4cHkFdT_3std2io6cursor6CursorRAhj21_EE27is_suspect_ascii_corruptionCs39nnvYeCEEq_17odo_comprehensive
FN:322,_RNvMs0_NtCs8M7rtMEmd2k_14copybook_codec6recordINtB5_15RDWRecordReaderINtNtNtCs4eoO4cHkFdT_3std2io6cursor6CursorRAhj21_EE3newCs39nnvYeCEEq_17odo_comprehensive
FN:335,_RNvMs0_NtCs8M7rtMEmd2k_14copybook_codec6recordINtB5_15RDWRecordReaderINtNtNtCs4eoO4cHkFdT_3std2io6cursor6CursorRAhj35_EE11read_recordCs39nnvYeCEEq_17odo_comprehensive
FN:555,_RNvMs0_NtCs8M7rtMEmd2k_14copybook_codec6recordINtB5_15RDWRecordReaderINtNtNtCs4eoO4cHkFdT_3std2io6cursor6CursorRAhj35_EE27is_suspect_ascii_corruptionCs39nnvYeCEEq_17odo_comprehensive
FN:322,_RNvMs0_NtCs8M7rtMEmd2k_14copybook_codec6recordINtB5_15RDWRecordReaderINtNtNtCs4eoO4cHkFdT_3std2io6cursor6CursorRAhj35_EE3newCs39nnvYeCEEq_17odo_comprehensive
FN:335,_RNvMs0_NtCs8M7rtMEmd2k_14copybook_codec6recordINtB5_15RDWRecordReaderINtNtNtCs4eoO4cHkFdT_3std2io6cursor6CursorRAhj3_EE11read_recordCs39nnvYeCEEq_17odo_comprehensive
FN:555,_RNvMs0_NtCs8M7rtMEmd2k_14copybook_codec6recordINtB5_15RDWRecordReaderINtNtNtCs4eoO4cHkFdT_3std2io6cursor6CursorRAhj3_EE27is_suspect_ascii_corruptionCs39nnvYeCEEq_17odo_comprehensive
FN:322,_RNvMs0_NtCs8M7rtMEmd2k_14copybook_codec6recordINtB5_15RDWRecordReaderINtNtNtCs4eoO4cHkFdT_3std2io6cursor6CursorRAhj3_EE3newCs39nnvYeCEEq_17odo_comprehensive
FN:335,_RNvMs0_NtCs8M7rtMEmd2k_14copybook_codec6recordINtB5_15RDWRecordReaderINtNtNtCs4eoO4cHkFdT_3std2io6cursor6CursorRINtNtCs31agqjrRntl_5alloc3vec3VechEEE11read_recordCs39nnvYeCEEq_17odo_comprehensive
FN:555,_RNvMs0_NtCs8M7rtMEmd2k_14copybook_codec6recordINtB5_15RDWRecordReaderINtNtNtCs4eoO4cHkFdT_3std2io6cursor6CursorRINtNtCs31agqjrRntl_5alloc3vec3VechEEE27is_suspect_ascii_corruptionCs39nnvYeCEEq_17odo_comprehensive
FN:322,_RNvMs0_NtCs8M7rtMEmd2k_14copybook_codec6recordINtB5_15RDWRecordReaderINtNtNtCs4eoO4cHkFdT_3std2io6cursor6CursorRINtNtCs31agqjrRntl_5alloc3vec3VechEEE3newCs39nnvYeCEEq_17odo_comprehensive
FN:335,_RNvMs0_NtCs8M7rtMEmd2k_14copybook_codec6recordINtB5_15RDWRecordReaderINtNtNtCs4eoO4cHkFdT_3std2io6cursor6CursorRShEE11read_recordCs39nnvYeCEEq_17odo_comprehensive
FN:555,_RNvMs0_NtCs8M7rtMEmd2k_14copybook_codec6recordINtB5_15RDWRecordReaderINtNtNtCs4eoO4cHkFdT_3std2io6cursor6CursorRShEE27is_suspect_ascii_corruptionCs39nnvYeCEEq_17odo_comprehensive
FN:322,_RNvMs0_NtCs8M7rtMEmd2k_14copybook_codec6recordINtB5_15RDWRecordReaderINtNtNtCs4eoO4cHkFdT_3std2io6cursor6CursorRShEE3newCs39nnvYeCEEq_17odo_comprehensive
FN:28,_RNCNvMNtCs8M7rtMEmd2k_14copybook_codec6recordINtB4_17FixedRecordReaderINtNtNtCs4eoO4cHkFdT_3std2io6cursor6CursorRINtNtCs31agqjrRntl_5alloc3vec3VechEEE3new0CsazAqiJI9UET_32performance_hardening_validation
FN:561,_RNCNvMs0_NtCs8M7rtMEmd2k_14copybook_codec6recordINtB7_15RDWRecordReaderINtNtNtCs4eoO4cHkFdT_3std2io6cursor6CursorRINtNtCs31agqjrRntl_5alloc3vec3VechEEE27is_suspect_ascii_corruption0CsazAqiJI9UET_32performance_hardening_validation
FN:49,_RNvMNtCs8M7rtMEmd2k_14copybook_codec6recordINtB2_17FixedRecordReaderINtNtNtCs4eoO4cHkFdT_3std2io6cursor6CursorRINtNtCs31agqjrRntl_5alloc3vec3VechEEE11read_recordCsazAqiJI9UET_32performance_hardening_validation
FN:26,_RNvMNtCs8M7rtMEmd2k_14copybook_codec6recordINtB2_17FixedRecordReaderINtNtNtCs4eoO4cHkFdT_3std2io6cursor6CursorRINtNtCs31agqjrRntl_5alloc3vec3VechEEE3newCsazAqiJI9UET_32performance_hardening_validation
FN:335,_RNvMs0_NtCs8M7rtMEmd2k_14copybook_codec6recordINtB5_15RDWRecordReaderINtNtNtCs4eoO4cHkFdT_3std2io6cursor6CursorRINtNtCs31agqjrRntl_5alloc3vec3VechEEE11read_recordCsazAqiJI9UET_32performance_hardening_validation
FN:555,_RNvMs0_NtCs8M7rtMEmd2k_14copybook_codec6recordINtB5_15RDWRecordReaderINtNtNtCs4eoO4cHkFdT_3std2io6cursor6CursorRINtNtCs31agqjrRntl_5alloc3vec3VechEEE27is_suspect_ascii_corruptionCsazAqiJI9UET_32performance_hardening_validation
FN:322,_RNvMs0_NtCs8M7rtMEmd2k_14copybook_codec6recordINtB5_15RDWRecordReaderINtNtNtCs4eoO4cHkFdT_3std2io6cursor6CursorRINtNtCs31agqjrRntl_5alloc3vec3VechEEE3newCsazAqiJI9UET_32performance_hardening_validation
FN:28,_RNCNvMNtCs8M7rtMEmd2k_14copybook_codec6recordINtB4_17FixedRecordReaderINtNtNtCs4eoO4cHkFdT_3std2io6cursor6CursorRAhj4_EE3new0CshQ4IvnJpZrL_17rdw_comprehensive
FN:28,_RNCNvMNtCs8M7rtMEmd2k_14copybook_codec6recordINtB4_17FixedRecordReaderINtNtNtCs4eoO4cHkFdT_3std2io6cursor6CursorRAhje_EE3new0CshQ4IvnJpZrL_17rdw_comprehensive
FN:28,_RNCNvMNtCs8M7rtMEmd2k_14copybook_codec6recordINtB4_17FixedRecordReaderINtNtNtCs4eoO4cHkFdT_3std2io6cursor6CursorRINtNtCs31agqjrRntl_5alloc3vec3VechEEE3new0CshQ4IvnJpZrL_17rdw_comprehensive
FN:561,_RNCNvMs0_NtCs8M7rtMEmd2k_14copybook_codec6recordINtB7_15RDWRecordReaderINtNtNtCs4eoO4cHkFdT_3std2io6cursor6CursorRAhj4_EE27is_suspect_ascii_corruption0CshQ4IvnJpZrL_17rdw_comprehensive
FN:561,_RNCNvMs0_NtCs8M7rtMEmd2k_14copybook_codec6recordINtB7_15RDWRecordReaderINtNtNtCs4eoO4cHkFdT_3std2io6cursor6CursorRAhje_EE27is_suspect_ascii_corruption0CshQ4IvnJpZrL_17rdw_comprehensive
FN:561,_RNCNvMs0_NtCs8M7rtMEmd2k_14copybook_codec6recordINtB7_15RDWRecordReaderINtNtNtCs4eoO4cHkFdT_3std2io6cursor6CursorRINtNtCs31agqjrRntl_5alloc3vec3VechEEE27is_suspect_ascii_corruption0CshQ4IvnJpZrL_17rdw_comprehensive
FN:49,_RNvMNtCs8M7rtMEmd2k_14copybook_codec6recordINtB2_17FixedRecordReaderINtNtNtCs4eoO4cHkFdT_3std2io6cursor6CursorRAhj4_EE11read_recordCshQ4IvnJpZrL_17rdw_comprehensive
FN:26,_RNvMNtCs8M7rtMEmd2k_14copybook_codec6recordINtB2_17FixedRecordReaderINtNtNtCs4eoO4cHkFdT_3std2io6cursor6CursorRAhj4_EE3newCshQ4IvnJpZrL_17rdw_comprehensive
FN:49,_RNvMNtCs8M7rtMEmd2k_14copybook_codec6recordINtB2_17FixedRecordReaderINtNtNtCs4eoO4cHkFdT_3std2io6cursor6CursorRAhje_EE11read_recordCshQ4IvnJpZrL_17rdw_comprehensive
FN:26,_RNvMNtCs8M7rtMEmd2k_14copybook_codec6recordINtB2_17FixedRecordReaderINtNtNtCs4eoO4cHkFdT_3std2io6cursor6CursorRAhje_EE3newCshQ4IvnJpZrL_17rdw_comprehensive
FN:49,_RNvMNtCs8M7rtMEmd2k_14copybook_codec6recordINtB2_17FixedRecordReaderINtNtNtCs4eoO4cHkFdT_3std2io6cursor6CursorRINtNtCs31agqjrRntl_5alloc3vec3VechEEE11read_recordCshQ4IvnJpZrL_17rdw_comprehensive
FN:26,_RNvMNtCs8M7rtMEmd2k_14copybook_codec6recordINtB2_17FixedRecordReaderINtNtNtCs4eoO4cHkFdT_3std2io6cursor6CursorRINtNtCs31agqjrRntl_5alloc3vec3VechEEE3newCshQ4IvnJpZrL_17rdw_comprehensive
FN:335,_RNvMs0_NtCs8M7rtMEmd2k_14copybook_codec6recordINtB5_15RDWRecordReaderINtNtNtCs4eoO4cHkFdT_3std2io6cursor6CursorRAhj4_EE11read_recordCshQ4IvnJpZrL_17rdw_comprehensive
FN:555,_RNvMs0_NtCs8M7rtMEmd2k_14copybook_codec6recordINtB5_15RDWRecordReaderINtNtNtCs4eoO4cHkFdT_3std2io6cursor6CursorRAhj4_EE27is_suspect_ascii_corruptionCshQ4IvnJpZrL_17rdw_comprehensive
FN:322,_RNvMs0_NtCs8M7rtMEmd2k_14copybook_codec6recordINtB5_15RDWRecordReaderINtNtNtCs4eoO4cHkFdT_3std2io6cursor6CursorRAhj4_EE3newCshQ4IvnJpZrL_17rdw_comprehensive
FN:335,_RNvMs0_NtCs8M7rtMEmd2k_14copybook_codec6recordINtB5_15RDWRecordReaderINtNtNtCs4eoO4cHkFdT_3std2io6cursor6CursorRAhje_EE11read_recordCshQ4IvnJpZrL_17rdw_comprehensive
FN:555,_RNvMs0_NtCs8M7rtMEmd2k_14copybook_codec6recordINtB5_15RDWRecordReaderINtNtNtCs4eoO4cHkFdT_3std2io6cursor6CursorRAhje_EE27is_suspect_ascii_corruptionCshQ4IvnJpZrL_17rdw_comprehensive
FN:322,_RNvMs0_NtCs8M7rtMEmd2k_14copybook_codec6recordINtB5_15RDWRecordReaderINtNtNtCs4eoO4cHkFdT_3std2io6cursor6CursorRAhje_EE3newCshQ4IvnJpZrL_17rdw_comprehensive
FN:335,_RNvMs0_NtCs8M7rtMEmd2k_14copybook_codec6recordINtB5_15RDWRecordReaderINtNtNtCs4eoO4cHkFdT_3std2io6cursor6CursorRINtNtCs31agqjrRntl_5alloc3vec3VechEEE11read_recordCshQ4IvnJpZrL_17rdw_comprehensive
FN:555,_RNvMs0_NtCs8M7rtMEmd2k_14copybook_codec6recordINtB5_15RDWRecordReaderINtNtNtCs4eoO4cHkFdT_3std2io6cursor6CursorRINtNtCs31agqjrRntl_5alloc3vec3VechEEE27is_suspect_ascii_corruptionCshQ4IvnJpZrL_17rdw_comprehensive
FN:322,_RNvMs0_NtCs8M7rtMEmd2k_14copybook_codec6recordINtB5_15RDWRecordReaderINtNtNtCs4eoO4cHkFdT_3std2io6cursor6CursorRINtNtCs31agqjrRntl_5alloc3vec3VechEEE3newCshQ4IvnJpZrL_17rdw_comprehensive
FN:28,_RNCNvMNtCs8M7rtMEmd2k_14copybook_codec6recordINtB4_17FixedRecordReaderINtNtNtCs4eoO4cHkFdT_3std2io6cursor6CursorRAhj23_EE3new0Cs1qMUk3KA0Zp_23redefines_comprehensive
FN:561,_RNCNvMs0_NtCs8M7rtMEmd2k_14copybook_codec6recordINtB7_15RDWRecordReaderINtNtNtCs4eoO4cHkFdT_3std2io6cursor6CursorRAhj23_EE27is_suspect_ascii_corruption0Cs1qMUk3KA0Zp_23redefines_comprehensive
FN:49,_RNvMNtCs8M7rtMEmd2k_14copybook_codec6recordINtB2_17FixedRecordReaderINtNtNtCs4eoO4cHkFdT_3std2io6cursor6CursorRAhj23_EE11read_recordCs1qMUk3KA0Zp_23redefines_comprehensive
FN:26,_RNvMNtCs8M7rtMEmd2k_14copybook_codec6recordINtB2_17FixedRecordReaderINtNtNtCs4eoO4cHkFdT_3std2io6cursor6CursorRAhj23_EE3newCs1qMUk3KA0Zp_23redefines_comprehensive
FN:335,_RNvMs0_NtCs8M7rtMEmd2k_14copybook_codec6recordINtB5_15RDWRecordReaderINtNtNtCs4eoO4cHkFdT_3std2io6cursor6CursorRAhj23_EE11read_recordCs1qMUk3KA0Zp_23redefines_comprehensive
FN:555,_RNvMs0_NtCs8M7rtMEmd2k_14copybook_codec6recordINtB5_15RDWRecordReaderINtNtNtCs4eoO4cHkFdT_3std2io6cursor6CursorRAhj23_EE27is_suspect_ascii_corruptionCs1qMUk3KA0Zp_23redefines_comprehensive
FN:322,_RNvMs0_NtCs8M7rtMEmd2k_14copybook_codec6recordINtB5_15RDWRecordReaderINtNtNtCs4eoO4cHkFdT_3std2io6cursor6CursorRAhj23_EE3newCs1qMUk3KA0Zp_23redefines_comprehensive
FN:28,_RNCNvMNtCs8M7rtMEmd2k_14copybook_codec6recordINtB4_17FixedRecordReaderINtNtNtCs4eoO4cHkFdT_3std2io6cursor6CursorRINtNtCs31agqjrRntl_5alloc3vec3VechEEE3new0Cs4AY4OFbcjkZ_32zoned_encoding_performance_tests
FN:561,_RNCNvMs0_NtCs8M7rtMEmd2k_14copybook_codec6recordINtB7_15RDWRecordReaderINtNtNtCs4eoO4cHkFdT_3std2io6cursor6CursorRINtNtCs31agqjrRntl_5alloc3vec3VechEEE27is_suspect_ascii_corruption0Cs4AY4OFbcjkZ_32zoned_encoding_performance_tests
FN:49,_RNvMNtCs8M7rtMEmd2k_14copybook_codec6recordINtB2_17FixedRecordReaderINtNtNtCs4eoO4cHkFdT_3std2io6cursor6CursorRINtNtCs31agqjrRntl_5alloc3vec3VechEEE11read_recordCs4AY4OFbcjkZ_32zoned_encoding_performance_tests
FN:26,_RNvMNtCs8M7rtMEmd2k_14copybook_codec6recordINtB2_17FixedRecordReaderINtNtNtCs4eoO4cHkFdT_3std2io6cursor6CursorRINtNtCs31agqjrRntl_5alloc3vec3VechEEE3newCs4AY4OFbcjkZ_32zoned_encoding_performance_tests
FN:335,_RNvMs0_NtCs8M7rtMEmd2k_14copybook_codec6recordINtB5_15RDWRecordReaderINtNtNtCs4eoO4cHkFdT_3std2io6cursor6CursorRINtNtCs31agqjrRntl_5alloc3vec3VechEEE11read_recordCs4AY4OFbcjkZ_32zoned_encoding_performance_tests
FN:555,_RNvMs0_NtCs8M7rtMEmd2k_14copybook_codec6recordINtB5_15RDWRecordReaderINtNtNtCs4eoO4cHkFdT_3std2io6cursor6CursorRINtNtCs31agqjrRntl_5alloc3vec3VechEEE27is_suspect_ascii_corruptionCs4AY4OFbcjkZ_32zoned_encoding_performance_tests
FN:322,_RNvMs0_NtCs8M7rtMEmd2k_14copybook_codec6recordINtB5_15RDWRecordReaderINtNtNtCs4eoO4cHkFdT_3std2io6cursor6CursorRINtNtCs31agqjrRntl_5alloc3vec3VechEEE3newCs4AY4OFbcjkZ_32zoned_encoding_performance_tests
FNDA:0,_RNCNvMNtCs8M7rtMEmd2k_14copybook_codec6recordINtB4_17FixedRecordReaderNtNtCs4eoO4cHkFdT_3std2fs4FileE3new0Csi2GSroy6duf_8copybook
FNDA:0,_RNCNvMs0_NtCs8M7rtMEmd2k_14copybook_codec6recordINtB7_15RDWRecordReaderNtNtCs4eoO4cHkFdT_3std2fs4FileE27is_suspect_ascii_corruption0Csi2GSroy6duf_8copybook
FNDA:113,_RNvMNtCs8M7rtMEmd2k_14copybook_codec6recordINtB2_17FixedRecordReaderNtNtCs4eoO4cHkFdT_3std2fs4FileE11read_recordCsi2GSroy6duf_8copybook
FNDA:7,_RNvMNtCs8M7rtMEmd2k_14copybook_codec6recordINtB2_17FixedRecordReaderNtNtCs4eoO4cHkFdT_3std2fs4FileE3newCsi2GSroy6duf_8copybook
FNDA:0,_RNvMs0_NtCs8M7rtMEmd2k_14copybook_codec6recordINtB5_15RDWRecordReaderNtNtCs4eoO4cHkFdT_3std2fs4FileE11read_recordCsi2GSroy6duf_8copybook
FNDA:0,_RNvMs0_NtCs8M7rtMEmd2k_14copybook_codec6recordINtB5_15RDWRecordReaderNtNtCs4eoO4cHkFdT_3std2fs4FileE27is_suspect_ascii_corruptionCsi2GSroy6duf_8copybook
FNDA:0,_RNvMs0_NtCs8M7rtMEmd2k_14copybook_codec6recordINtB5_15RDWRecordReaderNtNtCs4eoO4cHkFdT_3std2fs4FileE3newCsi2GSroy6duf_8copybook
FNDA:0,_RNvMs2_NtCs8M7rtMEmd2k_14copybook_codec6recordNtB5_9RDWRecord13with_reserved
FNDA:0,_RNvMs2_NtCs8M7rtMEmd2k_14copybook_codec6recordNtB5_9RDWRecord16recompute_length
FNDA:0,_RNvMs2_NtCs8M7rtMEmd2k_14copybook_codec6recordNtB5_9RDWRecord21get_data_for_raw_mode
FNDA:3,_RNvMs2_NtCs8M7rtMEmd2k_14copybook_codec6recordNtB5_9RDWRecord3new
FNDA:0,_RNvMs2_NtCs8M7rtMEmd2k_14copybook_codec6recordNtB5_9RDWRecord6length
FNDA:0,_RNvMs2_NtCs8M7rtMEmd2k_14copybook_codec6recordNtB5_9RDWRecord8as_bytes
FNDA:0,_RNvMs2_NtCs8M7rtMEmd2k_14copybook_codec6recordNtB5_9RDWRecord8reserved
FNDA:0,_RNvNvMs0_NtCs8M7rtMEmd2k_14copybook_codec6recordINtB7_15RDWRecordReaderpE29calculate_schema_fixed_prefix15find_record_end
FNDA:0,_RNvNvMs0_NtCs8M7rtMEmd2k_14copybook_codec6recordINtB7_15RDWRecordReaderpE29calculate_schema_fixed_prefix21find_first_odo_offset
FNDA:0,_RNCNvMNtCs8M7rtMEmd2k_14copybook_codec6recordINtB4_17FixedRecordReaderINtNtNtCs4eoO4cHkFdT_3std2io6cursor6CursorRINtNtCs31agqjrRntl_5alloc3vec3VechEEE3new0CslzLlZWW49z1_18canonical_fixtures
FNDA:0,_RNCNvMs0_NtCs8M7rtMEmd2k_14copybook_codec6recordINtB7_15RDWRecordReaderINtNtNtCs4eoO4cHkFdT_3std2io6cursor6CursorRINtNtCs31agqjrRntl_5alloc3vec3VechEEE27is_suspect_ascii_corruption0CslzLlZWW49z1_18canonical_fixtures
FNDA:3,_RNvMNtCs8M7rtMEmd2k_14copybook_codec6recordINtB2_17FixedRecordReaderINtNtNtCs4eoO4cHkFdT_3std2io6cursor6CursorRINtNtCs31agqjrRntl_5alloc3vec3VechEEE11read_recordCslzLlZWW49z1_18canonical_fixtures
FNDA:1,_RNvMNtCs8M7rtMEmd2k_14copybook_codec6recordINtB2_17FixedRecordReaderINtNtNtCs4eoO4cHkFdT_3std2io6cursor6CursorRINtNtCs31agqjrRntl_5alloc3vec3VechEEE3newCslzLlZWW49z1_18canonical_fixtures
FNDA:0,_RNvMs0_NtCs8M7rtMEmd2k_14copybook_codec6recordINtB5_15RDWRecordReaderINtNtNtCs4eoO4cHkFdT_3std2io6cursor6CursorRINtNtCs31agqjrRntl_5alloc3vec3VechEEE11read_recordCslzLlZWW49z1_18canonical_fixtures
FNDA:0,_RNvMs0_NtCs8M7rtMEmd2k_14copybook_codec6recordINtB5_15RDWRecordReaderINtNtNtCs4eoO4cHkFdT_3std2io6cursor6CursorRINtNtCs31agqjrRntl_5alloc3vec3VechEEE27is_suspect_ascii_corruptionCslzLlZWW49z1_18canonical_fixtures
FNDA:0,_RNvMs0_NtCs8M7rtMEmd2k_14copybook_codec6recordINtB5_15RDWRecordReaderINtNtNtCs4eoO4cHkFdT_3std2io6cursor6CursorRINtNtCs31agqjrRntl_5alloc3vec3VechEEE3newCslzLlZWW49z1_18canonical_fixtures
FNDA:1,_RNCNvMNtCs8M7rtMEmd2k_14copybook_codec6recordINtB4_17FixedRecordReaderINtNtNtCs4eoO4cHkFdT_3std2io6cursor6CursorRINtNtCs31agqjrRntl_5alloc3vec3VechEEE3new0Cs9bNFeEA8lew_34cobol_fixture_zoned_encoding_tests
FNDA:0,_RNCNvMs0_NtCs8M7rtMEmd2k_14copybook_codec6recordINtB7_15RDWRecordReaderINtNtNtCs4eoO4cHkFdT_3std2io6cursor6CursorRINtNtCs31agqjrRntl_5alloc3vec3VechEEE27is_suspect_ascii_corruption0Cs9bNFeEA8lew_34cobol_fixture_zoned_encoding_tests
FNDA:10037,_RNvMNtCs8M7rtMEmd2k_14copybook_codec6recordINtB2_17FixedRecordReaderINtNtNtCs4eoO4cHkFdT_3std2io6cursor6CursorRINtNtCs31agqjrRntl_5alloc3vec3VechEEE11read_recordCs9bNFeEA8lew_34cobol_fixture_zoned_encoding_tests
FNDA:14,_RNvMNtCs8M7rtMEmd2k_14copybook_codec6recordINtB2_17FixedRecordReaderINtNtNtCs4eoO4cHkFdT_3std2io6cursor6CursorRINtNtCs31agqjrRntl_5alloc3vec3VechEEE3newCs9bNFeEA8lew_34cobol_fixture_zoned_encoding_tests
FNDA:0,_RNvMs0_NtCs8M7rtMEmd2k_14copybook_codec6recordINtB5_15RDWRecordReaderINtNtNtCs4eoO4cHkFdT_3std2io6cursor6CursorRINtNtCs31agqjrRntl_5alloc3vec3VechEEE11read_recordCs9bNFeEA8lew_34cobol_fixture_zoned_encoding_tests
FNDA:0,_RNvMs0_NtCs8M7rtMEmd2k_14copybook_codec6recordINtB5_15RDWRecordReaderINtNtNtCs4eoO4cHkFdT_3std2io6cursor6CursorRINtNtCs31agqjrRntl_5alloc3vec3VechEEE27is_suspect_ascii_corruptionCs9bNFeEA8lew_34cobol_fixture_zoned_encoding_tests
FNDA:0,_RNvMs0_NtCs8M7rtMEmd2k_14copybook_codec6recordINtB5_15RDWRecordReaderINtNtNtCs4eoO4cHkFdT_3std2io6cursor6CursorRINtNtCs31agqjrRntl_5alloc3vec3VechEEE3newCs9bNFeEA8lew_34cobol_fixture_zoned_encoding_tests
FNDA:0,_RNCNvMNtCs8M7rtMEmd2k_14copybook_codec6recordINtB4_17FixedRecordReaderINtNtNtCs4eoO4cHkFdT_3std2io6cursor6CursorINtNtCs31agqjrRntl_5alloc3vec3VechEEE3new0CshMCmDISD09f_27comprehensive_numeric_tests
FNDA:0,_RNCNvMNtCs8M7rtMEmd2k_14copybook_codec6recordINtB4_17FixedRecordReaderINtNtNtCs4eoO4cHkFdT_3std2io6cursor6CursorRAhj2_EE3new0CshMCmDISD09f_27comprehensive_numeric_tests
FNDA:0,_RNCNvMNtCs8M7rtMEmd2k_14copybook_codec6recordINtB4_17FixedRecordReaderINtNtNtCs4eoO4cHkFdT_3std2io6cursor6CursorRAhj3_EE3new0CshMCmDISD09f_27comprehensive_numeric_tests
FNDA:0,_RNCNvMNtCs8M7rtMEmd2k_14copybook_codec6recordINtB4_17FixedRecordReaderINtNtNtCs4eoO4cHkFdT_3std2io6cursor6CursorRAhj5_EE3new0CshMCmDISD09f_27comprehensive_numeric_tests
FNDA:0,_RNCNvMNtCs8M7rtMEmd2k_14copybook_codec6recordINtB4_17FixedRecordReaderINtNtNtCs4eoO4cHkFdT_3std2io6cursor6CursorRAhj9_EE3new0CshMCmDISD09f_27comprehensive_numeric_tests
FNDA:0,_RNCNvMNtCs8M7rtMEmd2k_14copybook_codec6recordINtB4_17FixedRecordReaderINtNtNtCs4eoO4cHkFdT_3std2io6cursor6CursorRAhja_EE3new0CshMCmDISD09f_27comprehensive_numeric_tests
FNDA:0,_RNCNvMNtCs8M7rtMEmd2k_14copybook_codec6recordINtB4_17FixedRecordReaderINtNtNtCs4eoO4cHkFdT_3std2io6cursor6CursorRAhjc_EE3new0CshMCmDISD09f_27comprehensive_numeric_tests
FNDA:0,_RNCNvMNtCs8M7rtMEmd2k_14copybook_codec6recordINtB4_17FixedRecordReaderINtNtNtCs4eoO4cHkFdT_3std2io6cursor6CursorRAhjf_EE3new0CshMCmDISD09f_27comprehensive_numeric_tests
FNDA:0,_RNCNvMs0_NtCs8M7rtMEmd2k_14copybook_codec6recordINtB7_15RDWRecordReaderINtNtNtCs4eoO4cHkFdT_3std2io6cursor6CursorINtNtCs31agqjrRntl_5alloc3vec3VechEEE27is_suspect_ascii_corruption0CshMCmDISD09f_27comprehensive_numeric_tests
FNDA:0,_RNCNvMs0_NtCs8M7rtMEmd2k_14copybook_codec6recordINtB7_15RDWRecordReaderINtNtNtCs4eoO4cHkFdT_3std2io6cursor6CursorRAhj2_EE27is_suspect_ascii_corruption0CshMCmDISD09f_27comprehensive_numeric_tests
FNDA:0,_RNCNvMs0_NtCs8M7rtMEmd2k_14copybook_codec6recordINtB7_15RDWRecordReaderINtNtNtCs4eoO4cHkFdT_3std2io6cursor6CursorRAhj3_EE27is_suspect_ascii_corruption0CshMCmDISD09f_27comprehensive_numeric_tests
FNDA:0,_RNCNvMs0_NtCs8M7rtMEmd2k_14copybook_codec6recordINtB7_15RDWRecordReaderINtNtNtCs4eoO4cHkFdT_3std2io6cursor6CursorRAhj5_EE27is_suspect_ascii_corruption0CshMCmDISD09f_27comprehensive_numeric_tests
FNDA:0,_RNCNvMs0_NtCs8M7rtMEmd2k_14copybook_codec6recordINtB7_15RDWRecordReaderINtNtNtCs4eoO4cHkFdT_3std2io6cursor6CursorRAhj9_EE27is_suspect_ascii_corruption0CshMCmDISD09f_27comprehensive_numeric_tests
FNDA:0,_RNCNvMs0_NtCs8M7rtMEmd2k_14copybook_codec6recordINtB7_15RDWRecordReaderINtNtNtCs4eoO4cHkFdT_3std2io6cursor6CursorRAhja_EE27is_suspect_ascii_corruption0CshMCmDISD09f_27comprehensive_numeric_tests
FNDA:0,_RNCNvMs0_NtCs8M7rtMEmd2k_14copybook_codec6recordINtB7_15RDWRecordReaderINtNtNtCs4eoO4cHkFdT_3std2io6cursor6CursorRAhjc_EE27is_suspect_ascii_corruption0CshMCmDISD09f_27comprehensive_numeric_tests
FNDA:0,_RNCNvMs0_NtCs8M7rtMEmd2k_14copybook_codec6recordINtB7_15RDWRecordReaderINtNtNtCs4eoO4cHkFdT_3std2io6cursor6CursorRAhjf_EE27is_suspect_ascii_corruption0CshMCmDISD09f_27comprehensive_numeric_tests
FNDA:1003,_RNvMNtCs8M7rtMEmd2k_14copybook_codec6recordINtB2_17FixedRecordReaderINtNtNtCs4eoO4cHkFdT_3std2io6cursor6CursorINtNtCs31agqjrRntl_5alloc3vec3VechEEE11read_recordCshMCmDISD09f_27comprehensive_numeric_tests
FNDA:2,_RNvMNtCs8M7rtMEmd2k_14copybook_codec6recordINtB2_17FixedRecordReaderINtNtNtCs4eoO4cHkFdT_3std2io6cursor6CursorINtNtCs31agqjrRntl_5alloc3vec3VechEEE3newCshMCmDISD09f_27comprehensive_numeric_tests
FNDA:7,_RNvMNtCs8M7rtMEmd2k_14copybook_codec6recordINtB2_17FixedRecordReaderINtNtNtCs4eoO4cHkFdT_3std2io6cursor6CursorRAhj2_EE11read_recordCshMCmDISD09f_27comprehensive_numeric_tests
FNDA:4,_RNvMNtCs8M7rtMEmd2k_14copybook_codec6recordINtB2_17FixedRecordReaderINtNtNtCs4eoO4cHkFdT_3std2io6cursor6CursorRAhj2_EE3newCshMCmDISD09f_27comprehensive_numeric_tests
FNDA:11,_RNvMNtCs8M7rtMEmd2k_14copybook_codec6recordINtB2_17FixedRecordReaderINtNtNtCs4eoO4cHkFdT_3std2io6cursor6CursorRAhj3_EE11read_recordCshMCmDISD09f_27comprehensive_numeric_tests
FNDA:6,_RNvMNtCs8M7rtMEmd2k_14copybook_codec6recordINtB2_17FixedRecordReaderINtNtNtCs4eoO4cHkFdT_3std2io6cursor6CursorRAhj3_EE3newCshMCmDISD09f_27comprehensive_numeric_tests
FNDA:15,_RNvMNtCs8M7rtMEmd2k_14copybook_codec6recordINtB2_17FixedRecordReaderINtNtNtCs4eoO4cHkFdT_3std2io6cursor6CursorRAhj5_EE11read_recordCshMCmDISD09f_27comprehensive_numeric_tests
FNDA:8,_RNvMNtCs8M7rtMEmd2k_14copybook_codec6recordINtB2_17FixedRecordReaderINtNtNtCs4eoO4cHkFdT_3std2io6cursor6CursorRAhj5_EE3newCshMCmDISD09f_27comprehensive_numeric_tests
FNDA:2,_RNvMNtCs8M7rtMEmd2k_14copybook_codec6recordINtB2_17FixedRecordReaderINtNtNtCs4eoO4cHkFdT_3std2io6cursor6CursorRAhj9_EE11read_recordCshMCmDISD09f_27comprehensive_numeric_tests
FNDA:1,_RNvMNtCs8M7rtMEmd2k_14copybook_codec6recordINtB2_17FixedRecordReaderINtNtNtCs4eoO4cHkFdT_3std2io6cursor6CursorRAhj9_EE3newCshMCmDISD09f_27comprehensive_numeric_tests
FNDA:6,_RNvMNtCs8M7rtMEmd2k_14copybook_codec6recordINtB2_17FixedRecordReaderINtNtNtCs4eoO4cHkFdT_3std2io6cursor6CursorRAhja_EE11read_recordCshMCmDISD09f_27comprehensive_numeric_tests
FNDA:3,_RNvMNtCs8M7rtMEmd2k_14copybook_codec6recordINtB2_17FixedRecordReaderINtNtNtCs4eoO4cHkFdT_3std2io6cursor6CursorRAhja_EE3newCshMCmDISD09f_27comprehensive_numeric_tests
FNDA:4,_RNvMNtCs8M7rtMEmd2k_14copybook_codec6recordINtB2_17FixedRecordReaderINtNtNtCs4eoO4cHkFdT_3std2io6cursor6CursorRAhjc_EE11read_recordCshMCmDISD09f_27comprehensive_numeric_tests
FNDA:2,_RNvMNtCs8M7rtMEmd2k_14copybook_codec6recordINtB2_17FixedRecordReaderINtNtNtCs4eoO4cHkFdT_3std2io6cursor6CursorRAhjc_EE3newCshMCmDISD09f_27comprehensive_numeric_tests
FNDA:2,_RNvMNtCs8M7rtMEmd2k_14copybook_codec6recordINtB2_17FixedRecordReaderINtNtNtCs4eoO4cHkFdT_3std2io6cursor6CursorRAhjf_EE11read_recordCshMCmDISD09f_27comprehensive_numeric_tests
FNDA:1,_RNvMNtCs8M7rtMEmd2k_14copybook_codec6recordINtB2_17FixedRecordReaderINtNtNtCs4eoO4cHkFdT_3std2io6cursor6CursorRAhjf_EE3newCshMCmDISD09f_27comprehensive_numeric_tests
FNDA:0,_RNvMs0_NtCs8M7rtMEmd2k_14copybook_codec6recordINtB5_15RDWRecordReaderINtNtNtCs4eoO4cHkFdT_3std2io6cursor6CursorINtNtCs31agqjrRntl_5alloc3vec3VechEEE11read_recordCshMCmDISD09f_27comprehensive_numeric_tests
FNDA:0,_RNvMs0_NtCs8M7rtMEmd2k_14copybook_codec6recordINtB5_15RDWRecordReaderINtNtNtCs4eoO4cHkFdT_3std2io6cursor6CursorINtNtCs31agqjrRntl_5alloc3vec3VechEEE27is_suspect_ascii_corruptionCshMCmDISD09f_27comprehensive_numeric_tests
FNDA:0,_RNvMs0_NtCs8M7rtMEmd2k_14copybook_codec6recordINtB5_15RDWRecordReaderINtNtNtCs4eoO4cHkFdT_3std2io6cursor6CursorINtNtCs31agqjrRntl_5alloc3vec3VechEEE3newCshMCmDISD09f_27comprehensive_numeric_tests
FNDA:0,_RNvMs0_NtCs8M7rtMEmd2k_14copybook_codec6recordINtB5_15RDWRecordReaderINtNtNtCs4eoO4cHkFdT_3std2io6cursor6CursorRAhj2_EE11read_recordCshMCmDISD09f_27comprehensive_numeric_tests
FNDA:0,_RNvMs0_NtCs8M7rtMEmd2k_14copybook_codec6recordINtB5_15RDWRecordReaderINtNtNtCs4eoO4cHkFdT_3std2io6cursor6CursorRAhj2_EE27is_suspect_ascii_corruptionCshMCmDISD09f_27comprehensive_numeric_tests
FNDA:0,_RNvMs0_NtCs8M7rtMEmd2k_14copybook_codec6recordINtB5_15RDWRecordReaderINtNtNtCs4eoO4cHkFdT_3std2io6cursor6CursorRAhj2_EE3newCshMCmDISD09f_27comprehensive_numeric_tests
FNDA:0,_RNvMs0_NtCs8M7rtMEmd2k_14copybook_codec6recordINtB5_15RDWRecordReaderINtNtNtCs4eoO4cHkFdT_3std2io6cursor6CursorRAhj3_EE11read_recordCshMCmDISD09f_27comprehensive_numeric_tests
FNDA:0,_RNvMs0_NtCs8M7rtMEmd2k_14copybook_codec6recordINtB5_15RDWRecordReaderINtNtNtCs4eoO4cHkFdT_3std2io6cursor6CursorRAhj3_EE27is_suspect_ascii_corruptionCshMCmDISD09f_27comprehensive_numeric_tests
FNDA:0,_RNvMs0_NtCs8M7rtMEmd2k_14copybook_codec6recordINtB5_15RDWRecordReaderINtNtNtCs4eoO4cHkFdT_3std2io6cursor6CursorRAhj3_EE3newCshMCmDISD09f_27comprehensive_numeric_tests
FNDA:0,_RNvMs0_NtCs8M7rtMEmd2k_14copybook_codec6recordINtB5_15RDWRecordReaderINtNtNtCs4eoO4cHkFdT_3std2io6cursor6CursorRAhj5_EE11read_recordCshMCmDISD09f_27comprehensive_numeric_tests
FNDA:0,_RNvMs0_NtCs8M7rtMEmd2k_14copybook_codec6recordINtB5_15RDWRecordReaderINtNtNtCs4eoO4cHkFdT_3std2io6cursor6CursorRAhj5_EE27is_suspect_ascii_corruptionCshMCmDISD09f_27comprehensive_numeric_tests
FNDA:0,_RNvMs0_NtCs8M7rtMEmd2k_14copybook_codec6recordINtB5_15RDWRecordReaderINtNtNtCs4eoO4cHkFdT_3std2io6cursor6CursorRAhj5_EE3newCshMCmDISD09f_27comprehensive_numeric_tests
FNDA:0,_RNvMs0_NtCs8M7rtMEmd2k_14copybook_codec6recordINtB5_15RDWRecordReaderINtNtNtCs4eoO4cHkFdT_3std2io6cursor6CursorRAhj9_EE11read_recordCshMCmDISD09f_27comprehensive_numeric_tests
FNDA:0,_RNvMs0_NtCs8M7rtMEmd2k_14copybook_codec6recordINtB5_15RDWRecordReaderINtNtNtCs4eoO4cHkFdT_3std2io6cursor6CursorRAhj9_EE27is_suspect_ascii_corruptionCshMCmDISD09f_27comprehensive_numeric_tests
FNDA:0,_RNvMs0_NtCs8M7rtMEmd2k_14copybook_codec6recordINtB5_15RDWRecordReaderINtNtNtCs4eoO4cHkFdT_3std2io6cursor6CursorRAhj9_EE3newCshMCmDISD09f_27comprehensive_numeric_tests
FNDA:0,_RNvMs0_NtCs8M7rtMEmd2k_14copybook_codec6recordINtB5_15RDWRecordReaderINtNtNtCs4eoO4cHkFdT_3std2io6cursor6CursorRAhja_EE11read_recordCshMCmDISD09f_27comprehensive_numeric_tests
FNDA:0,_RNvMs0_NtCs8M7rtMEmd2k_14copybook_codec6recordINtB5_15RDWRecordReaderINtNtNtCs4eoO4cHkFdT_3std2io6cursor6CursorRAhja_EE27is_suspect_ascii_corruptionCshMCmDISD09f_27comprehensive_numeric_tests
FNDA:0,_RNvMs0_NtCs8M7rtMEmd2k_14copybook_codec6recordINtB5_15RDWRecordReaderINtNtNtCs4eoO4cHkFdT_3std2io6cursor6CursorRAhja_EE3newCshMCmDISD09f_27comprehensive_numeric_tests
FNDA:0,_RNvMs0_NtCs8M7rtMEmd2k_14copybook_codec6recordINtB5_15RDWRecordReaderINtNtNtCs4eoO4cHkFdT_3std2io6cursor6CursorRAhjc_EE11read_recordCshMCmDISD09f_27comprehensive_numeric_tests
FNDA:0,_RNvMs0_NtCs8M7rtMEmd2k_14copybook_codec6recordINtB5_15RDWRecordReaderINtNtNtCs4eoO4cHkFdT_3std2io6cursor6CursorRAhjc_EE27is_suspect_ascii_corruptionCshMCmDISD09f_27comprehensive_numeric_tests
FNDA:0,_RNvMs0_NtCs8M7rtMEmd2k_14copybook_codec6recordINtB5_15RDWRecordReaderINtNtNtCs4eoO4cHkFdT_3std2io6cursor6CursorRAhjc_EE3newCshMCmDISD09f_27comprehensive_numeric_tests
FNDA:0,_RNvMs0_NtCs8M7rtMEmd2k_14copybook_codec6recordINtB5_15RDWRecordReaderINtNtNtCs4eoO4cHkFdT_3std2io6cursor6CursorRAhjf_EE11read_recordCshMCmDISD09f_27comprehensive_numeric_tests
FNDA:0,_RNvMs0_NtCs8M7rtMEmd2k_14copybook_codec6recordINtB5_15RDWRecordReaderINtNtNtCs4eoO4cHkFdT_3std2io6cursor6CursorRAhjf_EE27is_suspect_ascii_corruptionCshMCmDISD09f_27comprehensive_numeric_tests
FNDA:0,_RNvMs0_NtCs8M7rtMEmd2k_14copybook_codec6recordINtB5_15RDWRecordReaderINtNtNtCs4eoO4cHkFdT_3std2io6cursor6CursorRAhjf_EE3newCshMCmDISD09f_27comprehensive_numeric_tests
FNDA:0,_RNCNvMNtCs8M7rtMEmd2k_14copybook_codec6recordINtB4_17FixedRecordReaderINtNtNtCs4eoO4cHkFdT_3std2io6cursor6CursorINtNtCs31agqjrRntl_5alloc3vec3VechEEE3new0CsgzuDHo0g7lo_23comprehensive_rdw_tests
FNDA:0,_RNCNvMNtCs8M7rtMEmd2k_14copybook_codec6recordINtB4_17FixedRecordReaderINtNtNtCs4eoO4cHkFdT_3std2io6cursor6CursorRAhj0_EE3new0CsgzuDHo0g7lo_23comprehensive_rdw_tests
FNDA:0,_RNCNvMNtCs8M7rtMEmd2k_14copybook_codec6recordINtB4_17FixedRecordReaderINtNtNtCs4eoO4cHkFdT_3std2io6cursor6CursorRAhj10_EE3new0CsgzuDHo0g7lo_23comprehensive_rdw_tests
FNDA:0,_RNCNvMNtCs8M7rtMEmd2k_14copybook_codec6recordINtB4_17FixedRecordReaderINtNtNtCs4eoO4cHkFdT_3std2io6cursor6CursorRAhj1b_EE3new0CsgzuDHo0g7lo_23comprehensive_rdw_tests
FNDA:0,_RNCNvMNtCs8M7rtMEmd2k_14copybook_codec6recordINtB4_17FixedRecordReaderINtNtNtCs4eoO4cHkFdT_3std2io6cursor6CursorRAhj2_EE3new0CsgzuDHo0g7lo_23comprehensive_rdw_tests
FNDA:0,_RNCNvMNtCs8M7rtMEmd2k_14copybook_codec6recordINtB4_17FixedRecordReaderINtNtNtCs4eoO4cHkFdT_3std2io6cursor6CursorRAhj4_EE3new0CsgzuDHo0g7lo_23comprehensive_rdw_tests
FNDA:0,_RNCNvMNtCs8M7rtMEmd2k_14copybook_codec6recordINtB4_17FixedRecordReaderINtNtNtCs4eoO4cHkFdT_3std2io6cursor6CursorRAhj9_EE3new0CsgzuDHo0g7lo_23comprehensive_rdw_tests
FNDA:0,_RNCNvMNtCs8M7rtMEmd2k_14copybook_codec6recordINtB4_17FixedRecordReaderINtNtNtCs4eoO4cHkFdT_3std2io6cursor6CursorRAhjc_EE3new0CsgzuDHo0g7lo_23comprehensive_rdw_tests
FNDA:0,_RNCNvMNtCs8M7rtMEmd2k_14copybook_codec6recordINtB4_17FixedRecordReaderINtNtNtCs4eoO4cHkFdT_3std2io6cursor6CursorRAhje_EE3new0CsgzuDHo0g7lo_23comprehensive_rdw_tests
FNDA:0,_RNCNvMNtCs8M7rtMEmd2k_14copybook_codec6recordINtB4_17FixedRecordReaderINtNtNtCs4eoO4cHkFdT_3std2io6cursor6CursorRAhjf_EE3new0CsgzuDHo0g7lo_23comprehensive_rdw_tests
FNDA:2,_RNCNvMs0_NtCs8M7rtMEmd2k_14copybook_codec6recordINtB7_15RDWRecordReaderINtNtNtCs4eoO4cHkFdT_3std2io6cursor6CursorINtNtCs31agqjrRntl_5alloc3vec3VechEEE27is_suspect_ascii_corruption0CsgzuDHo0g7lo_23comprehensive_rdw_tests
FNDA:0,_RNCNvMs0_NtCs8M7rtMEmd2k_14copybook_codec6recordINtB7_15RDWRecordReaderINtNtNtCs4eoO4cHkFdT_3std2io6cursor6CursorRAhj0_EE27is_suspect_ascii_corruption0CsgzuDHo0g7lo_23comprehensive_rdw_tests
FNDA:1,_RNCNvMs0_NtCs8M7rtMEmd2k_14copybook_codec6recordINtB7_15RDWRecordReaderINtNtNtCs4eoO4cHkFdT_3std2io6cursor6CursorRAhj10_EE27is_suspect_ascii_corruption0CsgzuDHo0g7lo_23comprehensive_rdw_tests
FNDA:3,_RNCNvMs0_NtCs8M7rtMEmd2k_14copybook_codec6recordINtB7_15RDWRecordReaderINtNtNtCs4eoO4cHkFdT_3std2io6cursor6CursorRAhj1b_EE27is_suspect_ascii_corruption0CsgzuDHo0g7lo_23comprehensive_rdw_tests
FNDA:0,_RNCNvMs0_NtCs8M7rtMEmd2k_14copybook_codec6recordINtB7_15RDWRecordReaderINtNtNtCs4eoO4cHkFdT_3std2io6cursor6CursorRAhj2_EE27is_suspect_ascii_corruption0CsgzuDHo0g7lo_23comprehensive_rdw_tests
FNDA:1,_RNCNvMs0_NtCs8M7rtMEmd2k_14copybook_codec6recordINtB7_15RDWRecordReaderINtNtNtCs4eoO4cHkFdT_3std2io6cursor6CursorRAhj4_EE27is_suspect_ascii_corruption0CsgzuDHo0g7lo_23comprehensive_rdw_tests
FNDA:3,_RNCNvMs0_NtCs8M7rtMEmd2k_14copybook_codec6recordINtB7_15RDWRecordReaderINtNtNtCs4eoO4cHkFdT_3std2io6cursor6CursorRAhj9_EE27is_suspect_ascii_corruption0CsgzuDHo0g7lo_23comprehensive_rdw_tests
FNDA:2,_RNCNvMs0_NtCs8M7rtMEmd2k_14copybook_codec6recordINtB7_15RDWRecordReaderINtNtNtCs4eoO4cHkFdT_3std2io6cursor6CursorRAhjc_EE27is_suspect_ascii_corruption0CsgzuDHo0g7lo_23comprehensive_rdw_tests
FNDA:3,_RNCNvMs0_NtCs8M7rtMEmd2k_14copybook_codec6recordINtB7_15RDWRecordReaderINtNtNtCs4eoO4cHkFdT_3std2io6cursor6CursorRAhje_EE27is_suspect_ascii_corruption0CsgzuDHo0g7lo_23comprehensive_rdw_tests
FNDA:1,_RNCNvMs0_NtCs8M7rtMEmd2k_14copybook_codec6recordINtB7_15RDWRecordReaderINtNtNtCs4eoO4cHkFdT_3std2io6cursor6CursorRAhjf_EE27is_suspect_ascii_corruption0CsgzuDHo0g7lo_23comprehensive_rdw_tests
FNDA:0,_RNvMNtCs8M7rtMEmd2k_14copybook_codec6recordINtB2_17FixedRecordReaderINtNtNtCs4eoO4cHkFdT_3std2io6cursor6CursorINtNtCs31agqjrRntl_5alloc3vec3VechEEE11read_recordCsgzuDHo0g7lo_23comprehensive_rdw_tests
FNDA:0,_RNvMNtCs8M7rtMEmd2k_14copybook_codec6recordINtB2_17FixedRecordReaderINtNtNtCs4eoO4cHkFdT_3std2io6cursor6CursorINtNtCs31agqjrRntl_5alloc3vec3VechEEE3newCsgzuDHo0g7lo_23comprehensive_rdw_tests
FNDA:0,_RNvMNtCs8M7rtMEmd2k_14copybook_codec6recordINtB2_17FixedRecordReaderINtNtNtCs4eoO4cHkFdT_3std2io6cursor6CursorRAhj0_EE11read_recordCsgzuDHo0g7lo_23comprehensive_rdw_tests
FNDA:0,_RNvMNtCs8M7rtMEmd2k_14copybook_codec6recordINtB2_17FixedRecordReaderINtNtNtCs4eoO4cHkFdT_3std2io6cursor6CursorRAhj0_EE3newCsgzuDHo0g7lo_23comprehensive_rdw_tests
FNDA:0,_RNvMNtCs8M7rtMEmd2k_14copybook_codec6recordINtB2_17FixedRecordReaderINtNtNtCs4eoO4cHkFdT_3std2io6cursor6CursorRAhj10_EE11read_recordCsgzuDHo0g7lo_23comprehensive_rdw_tests
FNDA:0,_RNvMNtCs8M7rtMEmd2k_14copybook_codec6recordINtB2_17FixedRecordReaderINtNtNtCs4eoO4cHkFdT_3std2io6cursor6CursorRAhj10_EE3newCsgzuDHo0g7lo_23comprehensive_rdw_tests
FNDA:0,_RNvMNtCs8M7rtMEmd2k_14copybook_codec6recordINtB2_17FixedRecordReaderINtNtNtCs4eoO4cHkFdT_3std2io6cursor6CursorRAhj1b_EE11read_recordCsgzuDHo0g7lo_23comprehensive_rdw_tests
FNDA:0,_RNvMNtCs8M7rtMEmd2k_14copybook_codec6recordINtB2_17FixedRecordReaderINtNtNtCs4eoO4cHkFdT_3std2io6cursor6CursorRAhj1b_EE3newCsgzuDHo0g7lo_23comprehensive_rdw_tests
FNDA:0,_RNvMNtCs8M7rtMEmd2k_14copybook_codec6recordINtB2_17FixedRecordReaderINtNtNtCs4eoO4cHkFdT_3std2io6cursor6CursorRAhj2_EE11read_recordCsgzuDHo0g7lo_23comprehensive_rdw_tests
FNDA:0,_RNvMNtCs8M7rtMEmd2k_14copybook_codec6recordINtB2_17FixedRecordReaderINtNtNtCs4eoO4cHkFdT_3std2io6cursor6CursorRAhj2_EE3newCsgzuDHo0g7lo_23comprehensive_rdw_tests
FNDA:0,_RNvMNtCs8M7rtMEmd2k_14copybook_codec6recordINtB2_17FixedRecordReaderINtNtNtCs4eoO4cHkFdT_3std2io6cursor6CursorRAhj4_EE11read_recordCsgzuDHo0g7lo_23comprehensive_rdw_tests
FNDA:0,_RNvMNtCs8M7rtMEmd2k_14copybook_codec6recordINtB2_17FixedRecordReaderINtNtNtCs4eoO4cHkFdT_3std2io6cursor6CursorRAhj4_EE3newCsgzuDHo0g7lo_23comprehensive_rdw_tests
FNDA:0,_RNvMNtCs8M7rtMEmd2k_14copybook_codec6recordINtB2_17FixedRecordReaderINtNtNtCs4eoO4cHkFdT_3std2io6cursor6CursorRAhj9_EE11read_recordCsgzuDHo0g7lo_23comprehensive_rdw_tests
FNDA:0,_RNvMNtCs8M7rtMEmd2k_14copybook_codec6recordINtB2_17FixedRecordReaderINtNtNtCs4eoO4cHkFdT_3std2io6cursor6CursorRAhj9_EE3newCsgzuDHo0g7lo_23comprehensive_rdw_tests
FNDA:0,_RNvMNtCs8M7rtMEmd2k_14copybook_codec6recordINtB2_17FixedRecordReaderINtNtNtCs4eoO4cHkFdT_3std2io6cursor6CursorRAhjc_EE11read_recordCsgzuDHo0g7lo_23comprehensive_rdw_tests
FNDA:0,_RNvMNtCs8M7rtMEmd2k_14copybook_codec6recordINtB2_17FixedRecordReaderINtNtNtCs4eoO4cHkFdT_3std2io6cursor6CursorRAhjc_EE3newCsgzuDHo0g7lo_23comprehensive_rdw_tests
FNDA:0,_RNvMNtCs8M7rtMEmd2k_14copybook_codec6recordINtB2_17FixedRecordReaderINtNtNtCs4eoO4cHkFdT_3std2io6cursor6CursorRAhje_EE11read_recordCsgzuDHo0g7lo_23comprehensive_rdw_tests
FNDA:0,_RNvMNtCs8M7rtMEmd2k_14copybook_codec6recordINtB2_17FixedRecordReaderINtNtNtCs4eoO4cHkFdT_3std2io6cursor6CursorRAhje_EE3newCsgzuDHo0g7lo_23comprehensive_rdw_tests
FNDA:0,_RNvMNtCs8M7rtMEmd2k_14copybook_codec6recordINtB2_17FixedRecordReaderINtNtNtCs4eoO4cHkFdT_3std2io6cursor6CursorRAhjf_EE11read_recordCsgzuDHo0g7lo_23comprehensive_rdw_tests
FNDA:0,_RNvMNtCs8M7rtMEmd2k_14copybook_codec6recordINtB2_17FixedRecordReaderINtNtNtCs4eoO4cHkFdT_3std2io6cursor6CursorRAhjf_EE3newCsgzuDHo0g7lo_23comprehensive_rdw_tests
FNDA:4,_RNvMs0_NtCs8M7rtMEmd2k_14copybook_codec6recordINtB5_15RDWRecordReaderINtNtNtCs4eoO4cHkFdT_3std2io6cursor6CursorINtNtCs31agqjrRntl_5alloc3vec3VechEEE11read_recordCsgzuDHo0g7lo_23comprehensive_rdw_tests
FNDA:2,_RNvMs0_NtCs8M7rtMEmd2k_14copybook_codec6recordINtB5_15RDWRecordReaderINtNtNtCs4eoO4cHkFdT_3std2io6cursor6CursorINtNtCs31agqjrRntl_5alloc3vec3VechEEE27is_suspect_ascii_corruptionCsgzuDHo0g7lo_23comprehensive_rdw_tests
FNDA:2,_RNvMs0_NtCs8M7rtMEmd2k_14copybook_codec6recordINtB5_15RDWRecordReaderINtNtNtCs4eoO4cHkFdT_3std2io6cursor6CursorINtNtCs31agqjrRntl_5alloc3vec3VechEEE3newCsgzuDHo0g7lo_23comprehensive_rdw_tests
FNDA:1,_RNvMs0_NtCs8M7rtMEmd2k_14copybook_codec6recordINtB5_15RDWRecordReaderINtNtNtCs4eoO4cHkFdT_3std2io6cursor6CursorRAhj0_EE11read_recordCsgzuDHo0g7lo_23comprehensive_rdw_tests
FNDA:0,_RNvMs0_NtCs8M7rtMEmd2k_14copybook_codec6recordINtB5_15RDWRecordReaderINtNtNtCs4eoO4cHkFdT_3std2io6cursor6CursorRAhj0_EE27is_suspect_ascii_corruptionCsgzuDHo0g7lo_23comprehensive_rdw_tests
FNDA:1,_RNvMs0_NtCs8M7rtMEmd2k_14copybook_codec6recordINtB5_15RDWRecordReaderINtNtNtCs4eoO4cHkFdT_3std2io6cursor6CursorRAhj0_EE3newCsgzuDHo0g7lo_23comprehensive_rdw_tests
FNDA:2,_RNvMs0_NtCs8M7rtMEmd2k_14copybook_codec6recordINtB5_15RDWRecordReaderINtNtNtCs4eoO4cHkFdT_3std2io6cursor6CursorRAhj10_EE11read_recordCsgzuDHo0g7lo_23comprehensive_rdw_tests
FNDA:1,_RNvMs0_NtCs8M7rtMEmd2k_14copybook_codec6recordINtB5_15RDWRecordReaderINtNtNtCs4eoO4cHkFdT_3std2io6cursor6CursorRAhj10_EE27is_suspect_ascii_corruptionCsgzuDHo0g7lo_23comprehensive_rdw_tests
FNDA:1,_RNvMs0_NtCs8M7rtMEmd2k_14copybook_codec6recordINtB5_15RDWRecordReaderINtNtNtCs4eoO4cHkFdT_3std2io6cursor6CursorRAhj10_EE3newCsgzuDHo0g7lo_23comprehensive_rdw_tests
FNDA:4,_RNvMs0_NtCs8M7rtMEmd2k_14copybook_codec6recordINtB5_15RDWRecordReaderINtNtNtCs4eoO4cHkFdT_3std2io6cursor6CursorRAhj1b_EE11read_recordCsgzuDHo0g7lo_23comprehensive_rdw_tests
FNDA:3,_RNvMs0_NtCs8M7rtMEmd2k_14copybook_codec6recordINtB5_15RDWRecordReaderINtNtNtCs4eoO4cHkFdT_3std2io6cursor6CursorRAhj1b_EE27is_suspect_ascii_corruptionCsgzuDHo0g7lo_23comprehensive_rdw_tests
FNDA:1,_RNvMs0_NtCs8M7rtMEmd2k_14copybook_codec6recordINtB5_15RDWRecordReaderINtNtNtCs4eoO4cHkFdT_3std2io6cursor6CursorRAhj1b_EE3newCsgzuDHo0g7lo_23comprehensive_rdw_tests
FNDA:1,_RNvMs0_NtCs8M7rtMEmd2k_14copybook_codec6recordINtB5_15RDWRecordReaderINtNtNtCs4eoO4cHkFdT_3std2io6cursor6CursorRAhj2_EE11read_recordCsgzuDHo0g7lo_23comprehensive_rdw_tests
FNDA:0,_RNvMs0_NtCs8M7rtMEmd2k_14copybook_codec6recordINtB5_15RDWRecordReaderINtNtNtCs4eoO4cHkFdT_3std2io6cursor6CursorRAhj2_EE27is_suspect_ascii_corruptionCsgzuDHo0g7lo_23comprehensive_rdw_tests
FNDA:1,_RNvMs0_NtCs8M7rtMEmd2k_14copybook_codec6recordINtB5_15RDWRecordReaderINtNtNtCs4eoO4cHkFdT_3std2io6cursor6CursorRAhj2_EE3newCsgzuDHo0g7lo_23comprehensive_rdw_tests
FNDA:2,_RNvMs0_NtCs8M7rtMEmd2k_14copybook_codec6recordINtB5_15RDWRecordReaderINtNtNtCs4eoO4cHkFdT_3std2io6cursor6CursorRAhj4_EE11read_recordCsgzuDHo0g7lo_23comprehensive_rdw_tests
FNDA:1,_RNvMs0_NtCs8M7rtMEmd2k_14copybook_codec6recordINtB5_15RDWRecordReaderINtNtNtCs4eoO4cHkFdT_3std2io6cursor6CursorRAhj4_EE27is_suspect_ascii_corruptionCsgzuDHo0g7lo_23comprehensive_rdw_tests
FNDA:1,_RNvMs0_NtCs8M7rtMEmd2k_14copybook_codec6recordINtB5_15RDWRecordReaderINtNtNtCs4eoO4cHkFdT_3std2io6cursor6CursorRAhj4_EE3newCsgzuDHo0g7lo_23comprehensive_rdw_tests
FNDA:5,_RNvMs0_NtCs8M7rtMEmd2k_14copybook_codec6recordINtB5_15RDWRecordReaderINtNtNtCs4eoO4cHkFdT_3std2io6cursor6CursorRAhj9_EE11read_recordCsgzuDHo0g7lo_23comprehensive_rdw_tests
FNDA:3,_RNvMs0_NtCs8M7rtMEmd2k_14copybook_codec6recordINtB5_15RDWRecordReaderINtNtNtCs4eoO4cHkFdT_3std2io6cursor6CursorRAhj9_EE27is_suspect_ascii_corruptionCsgzuDHo0g7lo_23comprehensive_rdw_tests
FNDA:4,_RNvMs0_NtCs8M7rtMEmd2k_14copybook_codec6recordINtB5_15RDWRecordReaderINtNtNtCs4eoO4cHkFdT_3std2io6cursor6CursorRAhj9_EE3newCsgzuDHo0g7lo_23comprehensive_rdw_tests
FNDA:4,_RNvMs0_NtCs8M7rtMEmd2k_14copybook_codec6recordINtB5_15RDWRecordReaderINtNtNtCs4eoO4cHkFdT_3std2io6cursor6CursorRAhjc_EE11read_recordCsgzuDHo0g7lo_23comprehensive_rdw_tests
FNDA:2,_RNvMs0_NtCs8M7rtMEmd2k_14copybook_codec6recordINtB5_15RDWRecordReaderINtNtNtCs4eoO4cHkFdT_3std2io6cursor6CursorRAhjc_EE27is_suspect_ascii_corruptionCsgzuDHo0g7lo_23comprehensive_rdw_tests
FNDA:2,_RNvMs0_NtCs8M7rtMEmd2k_14copybook_codec6recordINtB5_15RDWRecordReaderINtNtNtCs4eoO4cHkFdT_3std2io6cursor6CursorRAhjc_EE3newCsgzuDHo0g7lo_23comprehensive_rdw_tests
FNDA:3,_RNvMs0_NtCs8M7rtMEmd2k_14copybook_codec6recordINtB5_15RDWRecordReaderINtNtNtCs4eoO4cHkFdT_3std2io6cursor6CursorRAhje_EE11read_recordCsgzuDHo0g7lo_23comprehensive_rdw_tests
FNDA:2,_RNvMs0_NtCs8M7rtMEmd2k_14copybook_codec6recordINtB5_15RDWRecordReaderINtNtNtCs4eoO4cHkFdT_3std2io6cursor6CursorRAhje_EE27is_suspect_ascii_corruptionCsgzuDHo0g7lo_23comprehensive_rdw_tests
FNDA:2,_RNvMs0_NtCs8M7rtMEmd2k_14copybook_codec6recordINtB5_15RDWRecordReaderINtNtNtCs4eoO4cHkFdT_3std2io6cursor6CursorRAhje_EE3newCsgzuDHo0g7lo_23comprehensive_rdw_tests
FNDA:2,_RNvMs0_NtCs8M7rtMEmd2k_14copybook_codec6recordINtB5_15RDWRecordReaderINtNtNtCs4eoO4cHkFdT_3std2io6cursor6CursorRAhjf_EE11read_recordCsgzuDHo0g7lo_23comprehensive_rdw_tests
FNDA:1,_RNvMs0_NtCs8M7rtMEmd2k_14copybook_codec6recordINtB5_15RDWRecordReaderINtNtNtCs4eoO4cHkFdT_3std2io6cursor6CursorRAhjf_EE27is_suspect_ascii_corruptionCsgzuDHo0g7lo_23comprehensive_rdw_tests
FNDA:1,_RNvMs0_NtCs8M7rtMEmd2k_14copybook_codec6recordINtB5_15RDWRecordReaderINtNtNtCs4eoO4cHkFdT_3std2io6cursor6CursorRAhjf_EE3newCsgzuDHo0g7lo_23comprehensive_rdw_tests
FNDA:0,_RNCNvMNtCs8M7rtMEmd2k_14copybook_codec6recordINtB4_17FixedRecordReaderINtNtNtCs4eoO4cHkFdT_3std2io6cursor6CursorRAhj11_EE3new0Csc6sau5EZUC8_33comprehensive_redefines_odo_tests
FNDA:0,_RNCNvMNtCs8M7rtMEmd2k_14copybook_codec6recordINtB4_17FixedRecordReaderINtNtNtCs4eoO4cHkFdT_3std2io6cursor6CursorRAhj14_EE3new0Csc6sau5EZUC8_33comprehensive_redefines_odo_tests
FNDA:0,_RNCNvMNtCs8M7rtMEmd2k_14copybook_codec6recordINtB4_17FixedRecordReaderINtNtNtCs4eoO4cHkFdT_3std2io6cursor6CursorRAhj1c_EE3new0Csc6sau5EZUC8_33comprehensive_redefines_odo_tests
FNDA:0,_RNCNvMNtCs8M7rtMEmd2k_14copybook_codec6recordINtB4_17FixedRecordReaderINtNtNtCs4eoO4cHkFdT_3std2io6cursor6CursorRAhj8_EE3new0Csc6sau5EZUC8_33comprehensive_redefines_odo_tests
FNDA:0,_RNCNvMs0_NtCs8M7rtMEmd2k_14copybook_codec6recordINtB7_15RDWRecordReaderINtNtNtCs4eoO4cHkFdT_3std2io6cursor6CursorRAhj11_EE27is_suspect_ascii_corruption0Csc6sau5EZUC8_33comprehensive_redefines_odo_tests
FNDA:0,_RNCNvMs0_NtCs8M7rtMEmd2k_14copybook_codec6recordINtB7_15RDWRecordReaderINtNtNtCs4eoO4cHkFdT_3std2io6cursor6CursorRAhj14_EE27is_suspect_ascii_corruption0Csc6sau5EZUC8_33comprehensive_redefines_odo_tests
FNDA:0,_RNCNvMs0_NtCs8M7rtMEmd2k_14copybook_codec6recordINtB7_15RDWRecordReaderINtNtNtCs4eoO4cHkFdT_3std2io6cursor6CursorRAhj1c_EE27is_suspect_ascii_corruption0Csc6sau5EZUC8_33comprehensive_redefines_odo_tests
FNDA:0,_RNCNvMs0_NtCs8M7rtMEmd2k_14copybook_codec6recordINtB7_15RDWRecordReaderINtNtNtCs4eoO4cHkFdT_3std2io6cursor6CursorRAhj8_EE27is_suspect_ascii_corruption0Csc6sau5EZUC8_33comprehensive_redefines_odo_tests
FNDA:2,_RNvMNtCs8M7rtMEmd2k_14copybook_codec6recordINtB2_17FixedRecordReaderINtNtNtCs4eoO4cHkFdT_3std2io6cursor6CursorRAhj11_EE11read_recordCsc6sau5EZUC8_33comprehensive_redefines_odo_tests
FNDA:1,_RNvMNtCs8M7rtMEmd2k_14copybook_codec6recordINtB2_17FixedRecordReaderINtNtNtCs4eoO4cHkFdT_3std2io6cursor6CursorRAhj11_EE3newCsc6sau5EZUC8_33comprehensive_redefines_odo_tests
FNDA:0,_RNvMNtCs8M7rtMEmd2k_14copybook_codec6recordINtB2_17FixedRecordReaderINtNtNtCs4eoO4cHkFdT_3std2io6cursor6CursorRAhj14_EE11read_recordCsc6sau5EZUC8_33comprehensive_redefines_odo_tests
FNDA:0,_RNvMNtCs8M7rtMEmd2k_14copybook_codec6recordINtB2_17FixedRecordReaderINtNtNtCs4eoO4cHkFdT_3std2io6cursor6CursorRAhj14_EE3newCsc6sau5EZUC8_33comprehensive_redefines_odo_tests
FNDA:0,_RNvMNtCs8M7rtMEmd2k_14copybook_codec6recordINtB2_17FixedRecordReaderINtNtNtCs4eoO4cHkFdT_3std2io6cursor6CursorRAhj1c_EE11read_recordCsc6sau5EZUC8_33comprehensive_redefines_odo_tests
FNDA:0,_RNvMNtCs8M7rtMEmd2k_14copybook_codec6recordINtB2_17FixedRecordReaderINtNtNtCs4eoO4cHkFdT_3std2io6cursor6CursorRAhj1c_EE3newCsc6sau5EZUC8_33comprehensive_redefines_odo_tests
FNDA:4,_RNvMNtCs8M7rtMEmd2k_14copybook_codec6recordINtB2_17FixedRecordReaderINtNtNtCs4eoO4cHkFdT_3std2io6cursor6CursorRAhj8_EE11read_recordCsc6sau5EZUC8_33comprehensive_redefines_odo_tests
FNDA:2,_RNvMNtCs8M7rtMEmd2k_14copybook_codec6recordINtB2_17FixedRecordReaderINtNtNtCs4eoO4cHkFdT_3std2io6cursor6CursorRAhj8_EE3newCsc6sau5EZUC8_33comprehensive_redefines_odo_tests
FNDA:0,_RNvMs0_NtCs8M7rtMEmd2k_14copybook_codec6recordINtB5_15RDWRecordReaderINtNtNtCs4eoO4cHkFdT_3std2io6cursor6CursorRAhj11_EE11read_recordCsc6sau5EZUC8_33comprehensive_redefines_odo_tests
FNDA:0,_RNvMs0_NtCs8M7rtMEmd2k_14copybook_codec6recordINtB5_15RDWRecordReaderINtNtNtCs4eoO4cHkFdT_3std2io6cursor6CursorRAhj11_EE27is_suspect_ascii_corruptionCsc6sau5EZUC8_33comprehensive_redefines_odo_tests
FNDA:0,_RNvMs0_NtCs8M7rtMEmd2k_14copybook_codec6recordINtB5_15RDWRecordReaderINtNtNtCs4eoO4cHkFdT_3std2io6cursor6CursorRAhj11_EE3newCsc6sau5EZUC8_33comprehensive_redefines_odo_tests
FNDA:0,_RNvMs0_NtCs8M7rtMEmd2k_14copybook_codec6recordINtB5_15RDWRecordReaderINtNtNtCs4eoO4cHkFdT_3std2io6cursor6CursorRAhj14_EE11read_recordCsc6sau5EZUC8_33comprehensive_redefines_odo_tests
FNDA:0,_RNvMs0_NtCs8M7rtMEmd2k_14copybook_codec6recordINtB5_15RDWRecordReaderINtNtNtCs4eoO4cHkFdT_3std2io6cursor6CursorRAhj14_EE27is_suspect_ascii_corruptionCsc6sau5EZUC8_33comprehensive_redefines_odo_tests
FNDA:0,_RNvMs0_NtCs8M7rtMEmd2k_14copybook_codec6recordINtB5_15RDWRecordReaderINtNtNtCs4eoO4cHkFdT_3std2io6cursor6CursorRAhj14_EE3newCsc6sau5EZUC8_33comprehensive_redefines_odo_tests
FNDA:0,_RNvMs0_NtCs8M7rtMEmd2k_14copybook_codec6recordINtB5_15RDWRecordReaderINtNtNtCs4eoO4cHkFdT_3std2io6cursor6CursorRAhj1c_EE11read_recordCsc6sau5EZUC8_33comprehensive_redefines_odo_tests
FNDA:0,_RNvMs0_NtCs8M7rtMEmd2k_14copybook_codec6recordINtB5_15RDWRecordReaderINtNtNtCs4eoO4cHkFdT_3std2io6cursor6CursorRAhj1c_EE27is_suspect_ascii_corruptionCsc6sau5EZUC8_33comprehensive_redefines_odo_tests
FNDA:0,_RNvMs0_NtCs8M7rtMEmd2k_14copybook_codec6recordINtB5_15RDWRecordReaderINtNtNtCs4eoO4cHkFdT_3std2io6cursor6CursorRAhj1c_EE3newCsc6sau5EZUC8_33comprehensive_redefines_odo_tests
FNDA:0,_RNvMs0_NtCs8M7rtMEmd2k_14copybook_codec6recordINtB5_15RDWRecordReaderINtNtNtCs4eoO4cHkFdT_3std2io6cursor6CursorRAhj8_EE11read_recordCsc6sau5EZUC8_33comprehensive_redefines_odo_tests
FNDA:0,_RNvMs0_NtCs8M7rtMEmd2k_14copybook_codec6recordINtB5_15RDWRecordReaderINtNtNtCs4eoO4cHkFdT_3std2io6cursor6CursorRAhj8_EE27is_suspect_ascii_corruptionCsc6sau5EZUC8_33comprehensive_redefines_odo_tests
FNDA:0,_RNvMs0_NtCs8M7rtMEmd2k_14copybook_codec6recordINtB5_15RDWRecordReaderINtNtNtCs4eoO4cHkFdT_3std2io6cursor6CursorRAhj8_EE3newCsc6sau5EZUC8_33comprehensive_redefines_odo_tests
FNDA:0,_RNCNvMs1_NtCs7MLK0KUMdQf_14copybook_codec6recordINtB7_15RDWRecordWriterpE5flush0B9_
FNDA:0,_RNvMNtCs7MLK0KUMdQf_14copybook_codec6recordINtB2_17FixedRecordReaderpE5lreclB4_
FNDA:0,_RNvMs1_NtCs7MLK0KUMdQf_14copybook_codec6recordINtB5_15RDWRecordWriterpE5flushB7_
FNDA:0,_RNvMs_NtCs7MLK0KUMdQf_14copybook_codec6recordINtB4_17FixedRecordWriterpE5lreclB6_
FNDA:1,_RNvMs2_NtCs7MLK0KUMdQf_14copybook_codec6recordNtB5_9RDWRecord13with_reserved
FNDA:1,_RNvMs2_NtCs7MLK0KUMdQf_14copybook_codec6recordNtB5_9RDWRecord16recompute_length
FNDA:2,_RNvMs2_NtCs7MLK0KUMdQf_14copybook_codec6recordNtB5_9RDWRecord21get_data_for_raw_mode
FNDA:5,_RNvMs2_NtCs7MLK0KUMdQf_14copybook_codec6recordNtB5_9RDWRecord3new
FNDA:6,_RNvMs2_NtCs7MLK0KUMdQf_14copybook_codec6recordNtB5_9RDWRecord6length
FNDA:2,_RNvMs2_NtCs7MLK0KUMdQf_14copybook_codec6recordNtB5_9RDWRecord8as_bytes
FNDA:5,_RNvMs2_NtCs7MLK0KUMdQf_14copybook_codec6recordNtB5_9RDWRecord8reserved
FNDA:2,_RNvNvMs0_NtCs7MLK0KUMdQf_14copybook_codec6recordINtB7_15RDWRecordReaderpE29calculate_schema_fixed_prefix15find_record_end
FNDA:6,_RNvNvMs0_NtCs7MLK0KUMdQf_14copybook_codec6recordINtB7_15RDWRecordReaderpE29calculate_schema_fixed_prefix21find_first_odo_offset
FNDA:1,_RINvNtCs7MLK0KUMdQf_14copybook_codec6record11read_recordINtNtNtCs4eoO4cHkFdT_3std2io6cursor6CursorINtNtCs31agqjrRntl_5alloc3vec3VechEEEB4_
FNDA:1,_RINvNtCs7MLK0KUMdQf_14copybook_codec6record11read_recordINtNtNtCs4eoO4cHkFdT_3std2io6cursor6CursorRAhj2_EEB4_
FNDA:1,_RINvNtCs7MLK0KUMdQf_14copybook_codec6record11read_recordINtNtNtCs4eoO4cHkFdT_3std2io6cursor6CursorRAhj8_EEB4_
FNDA:2,_RINvNtCs7MLK0KUMdQf_14copybook_codec6record12write_recordINtNtCs31agqjrRntl_5alloc3vec3VechEEB4_
FNDA:0,_RNCINvNtCs7MLK0KUMdQf_14copybook_codec6record12write_recordINtNtCs31agqjrRntl_5alloc3vec3VechEE0B6_
FNDA:0,_RNCNvMNtCs7MLK0KUMdQf_14copybook_codec6recordINtB4_17FixedRecordReaderINtNtNtCs4eoO4cHkFdT_3std2io6cursor6CursorINtNtCs31agqjrRntl_5alloc3vec3VechEEE3new0B6_
FNDA:0,_RNCNvMNtCs7MLK0KUMdQf_14copybook_codec6recordINtB4_17FixedRecordReaderINtNtNtCs4eoO4cHkFdT_3std2io6cursor6CursorRAhj10_EE3new0B6_
FNDA:1,_RNCNvMNtCs7MLK0KUMdQf_14copybook_codec6recordINtB4_17FixedRecordReaderINtNtNtCs4eoO4cHkFdT_3std2io6cursor6CursorRAhj4_EE3new0B6_
FNDA:0,_RNCNvMNtCs7MLK0KUMdQf_14copybook_codec6recordINtB4_17FixedRecordReaderINtNtNtCs4eoO4cHkFdT_3std2io6cursor6CursorRAhj7_EE3new0B6_
FNDA:0,_RNCNvMNtCs7MLK0KUMdQf_14copybook_codec6recordINtB4_17FixedRecordReaderINtNtNtCs4eoO4cHkFdT_3std2io6cursor6CursorRAhj8_EE3new0B6_
FNDA:0,_RNCNvMNtCs7MLK0KUMdQf_14copybook_codec6recordINtB4_17FixedRecordReaderQINtNtNtCs4eoO4cHkFdT_3std2io6cursor6CursorINtNtCs31agqjrRntl_5alloc3vec3VechEEE3new0B6_
FNDA:0,_RNCNvMNtCs7MLK0KUMdQf_14copybook_codec6recordINtB4_17FixedRecordReaderQINtNtNtCs4eoO4cHkFdT_3std2io6cursor6CursorRAhj2_EE3new0B6_
FNDA:0,_RNCNvMNtCs7MLK0KUMdQf_14copybook_codec6recordINtB4_17FixedRecordReaderQINtNtNtCs4eoO4cHkFdT_3std2io6cursor6CursorRAhj8_EE3new0B6_
FNDA:10,_RNCNvMs0_NtCs7MLK0KUMdQf_14copybook_codec6recordINtB7_15RDWRecordReaderINtNtNtCs4eoO4cHkFdT_3std2io6cursor6CursorINtNtCs31agqjrRntl_5alloc3vec3VechEEE27is_suspect_ascii_corruption0B9_
FNDA:1,_RNCNvMs0_NtCs7MLK0KUMdQf_14copybook_codec6recordINtB7_15RDWRecordReaderQINtNtNtCs4eoO4cHkFdT_3std2io6cursor6CursorINtNtCs31agqjrRntl_5alloc3vec3VechEEE27is_suspect_ascii_corruption0B9_
FNDA:0,_RNCNvMs0_NtCs7MLK0KUMdQf_14copybook_codec6recordINtB7_15RDWRecordReaderQINtNtNtCs4eoO4cHkFdT_3std2io6cursor6CursorRAhj2_EE27is_suspect_ascii_corruption0B9_
FNDA:0,_RNCNvMs0_NtCs7MLK0KUMdQf_14copybook_codec6recordINtB7_15RDWRecordReaderQINtNtNtCs4eoO4cHkFdT_3std2io6cursor6CursorRAhj8_EE27is_suspect_ascii_corruption0B9_
FNDA:0,_RNCNvMs1_NtCs7MLK0KUMdQf_14copybook_codec6recordINtB7_15RDWRecordWriterQINtNtCs31agqjrRntl_5alloc3vec3VechEE12write_record0B9_
FNDA:0,_RNCNvMs1_NtCs7MLK0KUMdQf_14copybook_codec6recordINtB7_15RDWRecordWriterQINtNtCs31agqjrRntl_5alloc3vec3VechEE12write_records_0B9_
FNDA:0,_RNCNvMs_NtCs7MLK0KUMdQf_14copybook_codec6recordINtB6_17FixedRecordWriterQINtNtCs31agqjrRntl_5alloc3vec3VechEE12write_record0B8_
FNDA:0,_RNCNvMs_NtCs7MLK0KUMdQf_14copybook_codec6recordINtB6_17FixedRecordWriterQINtNtCs31agqjrRntl_5alloc3vec3VechEE12write_records_0B8_
FNDA:1,_RNCNvMs_NtCs7MLK0KUMdQf_14copybook_codec6recordINtB6_17FixedRecordWriterQINtNtCs31agqjrRntl_5alloc3vec3VechEE3new0B8_
FNDA:0,_RNCNvMs_NtCs7MLK0KUMdQf_14copybook_codec6recordINtB6_17FixedRecordWriterQINtNtCs31agqjrRntl_5alloc3vec3VechEE5flush0B8_
FNDA:3,_RNvMNtCs7MLK0KUMdQf_14copybook_codec6recordINtB2_17FixedRecordReaderINtNtNtCs4eoO4cHkFdT_3std2io6cursor6CursorINtNtCs31agqjrRntl_5alloc3vec3VechEEE11read_recordB4_
FNDA:1,_RNvMNtCs7MLK0KUMdQf_14copybook_codec6recordINtB2_17FixedRecordReaderINtNtNtCs4eoO4cHkFdT_3std2io6cursor6CursorINtNtCs31agqjrRntl_5alloc3vec3VechEEE3newB4_
FNDA:3,_RNvMNtCs7MLK0KUMdQf_14copybook_codec6recordINtB2_17FixedRecordReaderINtNtNtCs4eoO4cHkFdT_3std2io6cursor6CursorRAhj10_EE11read_recordB4_
FNDA:2,_RNvMNtCs7MLK0KUMdQf_14copybook_codec6recordINtB2_17FixedRecordReaderINtNtNtCs4eoO4cHkFdT_3std2io6cursor6CursorRAhj10_EE12record_countB4_
FNDA:1,_RNvMNtCs7MLK0KUMdQf_14copybook_codec6recordINtB2_17FixedRecordReaderINtNtNtCs4eoO4cHkFdT_3std2io6cursor6CursorRAhj10_EE3newB4_
FNDA:2,_RNvMNtCs7MLK0KUMdQf_14copybook_codec6recordINtB2_17FixedRecordReaderINtNtNtCs4eoO4cHkFdT_3std2io6cursor6CursorRAhj4_EE3newB4_
FNDA:1,_RNvMNtCs7MLK0KUMdQf_14copybook_codec6recordINtB2_17FixedRecordReaderINtNtNtCs4eoO4cHkFdT_3std2io6cursor6CursorRAhj7_EE11read_recordB4_
FNDA:1,_RNvMNtCs7MLK0KUMdQf_14copybook_codec6recordINtB2_17FixedRecordReaderINtNtNtCs4eoO4cHkFdT_3std2io6cursor6CursorRAhj7_EE3newB4_
FNDA:2,_RNvMNtCs7MLK0KUMdQf_14copybook_codec6recordINtB2_17FixedRecordReaderINtNtNtCs4eoO4cHkFdT_3std2io6cursor6CursorRAhj8_EE11read_recordB4_
FNDA:2,_RNvMNtCs7MLK0KUMdQf_14copybook_codec6recordINtB2_17FixedRecordReaderINtNtNtCs4eoO4cHkFdT_3std2io6cursor6CursorRAhj8_EE22validate_record_lengthB4_
FNDA:2,_RNvMNtCs7MLK0KUMdQf_14copybook_codec6recordINtB2_17FixedRecordReaderINtNtNtCs4eoO4cHkFdT_3std2io6cursor6CursorRAhj8_EE3newB4_
FNDA:0,_RNvMNtCs7MLK0KUMdQf_14copybook_codec6recordINtB2_17FixedRecordReaderQINtNtNtCs4eoO4cHkFdT_3std2io6cursor6CursorINtNtCs31agqjrRntl_5alloc3vec3VechEEE11read_recordB4_
FNDA:0,_RNvMNtCs7MLK0KUMdQf_14copybook_codec6recordINtB2_17FixedRecordReaderQINtNtNtCs4eoO4cHkFdT_3std2io6cursor6CursorINtNtCs31agqjrRntl_5alloc3vec3VechEEE3newB4_
FNDA:0,_RNvMNtCs7MLK0KUMdQf_14copybook_codec6recordINtB2_17FixedRecordReaderQINtNtNtCs4eoO4cHkFdT_3std2io6cursor6CursorRAhj2_EE11read_recordB4_
FNDA:0,_RNvMNtCs7MLK0KUMdQf_14copybook_codec6recordINtB2_17FixedRecordReaderQINtNtNtCs4eoO4cHkFdT_3std2io6cursor6CursorRAhj2_EE3newB4_
FNDA:1,_RNvMNtCs7MLK0KUMdQf_14copybook_codec6recordINtB2_17FixedRecordReaderQINtNtNtCs4eoO4cHkFdT_3std2io6cursor6CursorRAhj8_EE11read_recordB4_
FNDA:1,_RNvMNtCs7MLK0KUMdQf_14copybook_codec6recordINtB2_17FixedRecordReaderQINtNtNtCs4eoO4cHkFdT_3std2io6cursor6CursorRAhj8_EE3newB4_
FNDA:10,_RNvMs0_NtCs7MLK0KUMdQf_14copybook_codec6recordINtB5_15RDWRecordReaderINtNtNtCs4eoO4cHkFdT_3std2io6cursor6CursorINtNtCs31agqjrRntl_5alloc3vec3VechEEE11read_recordB7_
FNDA:3,_RNvMs0_NtCs7MLK0KUMdQf_14copybook_codec6recordINtB5_15RDWRecordReaderINtNtNtCs4eoO4cHkFdT_3std2io6cursor6CursorINtNtCs31agqjrRntl_5alloc3vec3VechEEE12record_countB7_
FNDA:9,_RNvMs0_NtCs7MLK0KUMdQf_14copybook_codec6recordINtB5_15RDWRecordReaderINtNtNtCs4eoO4cHkFdT_3std2io6cursor6CursorINtNtCs31agqjrRntl_5alloc3vec3VechEEE27is_suspect_ascii_corruptionB7_
FNDA:3,_RNvMs0_NtCs7MLK0KUMdQf_14copybook_codec6recordINtB5_15RDWRecordReaderINtNtNtCs4eoO4cHkFdT_3std2io6cursor6CursorINtNtCs31agqjrRntl_5alloc3vec3VechEEE27validate_zero_length_recordB7_
FNDA:6,_RNvMs0_NtCs7MLK0KUMdQf_14copybook_codec6recordINtB5_15RDWRecordReaderINtNtNtCs4eoO4cHkFdT_3std2io6cursor6CursorINtNtCs31agqjrRntl_5alloc3vec3VechEEE29calculate_schema_fixed_prefixB7_
FNDA:11,_RNvMs0_NtCs7MLK0KUMdQf_14copybook_codec6recordINtB5_15RDWRecordReaderINtNtNtCs4eoO4cHkFdT_3std2io6cursor6CursorINtNtCs31agqjrRntl_5alloc3vec3VechEEE3newB7_
FNDA:1,_RNvMs0_NtCs7MLK0KUMdQf_14copybook_codec6recordINtB5_15RDWRecordReaderQINtNtNtCs4eoO4cHkFdT_3std2io6cursor6CursorINtNtCs31agqjrRntl_5alloc3vec3VechEEE11read_recordB7_
FNDA:1,_RNvMs0_NtCs7MLK0KUMdQf_14copybook_codec6recordINtB5_15RDWRecordReaderQINtNtNtCs4eoO4cHkFdT_3std2io6cursor6CursorINtNtCs31agqjrRntl_5alloc3vec3VechEEE27is_suspect_ascii_corruptionB7_
FNDA:1,_RNvMs0_NtCs7MLK0KUMdQf_14copybook_codec6recordINtB5_15RDWRecordReaderQINtNtNtCs4eoO4cHkFdT_3std2io6cursor6CursorINtNtCs31agqjrRntl_5alloc3vec3VechEEE3newB7_
FNDA:1,_RNvMs0_NtCs7MLK0KUMdQf_14copybook_codec6recordINtB5_15RDWRecordReaderQINtNtNtCs4eoO4cHkFdT_3std2io6cursor6CursorRAhj2_EE11read_recordB7_
FNDA:0,_RNvMs0_NtCs7MLK0KUMdQf_14copybook_codec6recordINtB5_15RDWRecordReaderQINtNtNtCs4eoO4cHkFdT_3std2io6cursor6CursorRAhj2_EE27is_suspect_ascii_corruptionB7_
FNDA:1,_RNvMs0_NtCs7MLK0KUMdQf_14copybook_codec6recordINtB5_15RDWRecordReaderQINtNtNtCs4eoO4cHkFdT_3std2io6cursor6CursorRAhj2_EE3newB7_
FNDA:0,_RNvMs0_NtCs7MLK0KUMdQf_14copybook_codec6recordINtB5_15RDWRecordReaderQINtNtNtCs4eoO4cHkFdT_3std2io6cursor6CursorRAhj8_EE11read_recordB7_
FNDA:0,_RNvMs0_NtCs7MLK0KUMdQf_14copybook_codec6recordINtB5_15RDWRecordReaderQINtNtNtCs4eoO4cHkFdT_3std2io6cursor6CursorRAhj8_EE27is_suspect_ascii_corruptionB7_
FNDA:0,_RNvMs0_NtCs7MLK0KUMdQf_14copybook_codec6recordINtB5_15RDWRecordReaderQINtNtNtCs4eoO4cHkFdT_3std2io6cursor6CursorRAhj8_EE3newB7_
FNDA:2,_RNvMs1_NtCs7MLK0KUMdQf_14copybook_codec6recordINtB5_15RDWRecordWriterQINtNtCs31agqjrRntl_5alloc3vec3VechEE12record_countB7_
FNDA:4,_RNvMs1_NtCs7MLK0KUMdQf_14copybook_codec6recordINtB5_15RDWRecordWriterQINtNtCs31agqjrRntl_5alloc3vec3VechEE12write_recordB7_
FNDA:4,_RNvMs1_NtCs7MLK0KUMdQf_14copybook_codec6recordINtB5_15RDWRecordWriterQINtNtCs31agqjrRntl_5alloc3vec3VechEE25write_record_from_payloadB7_
FNDA:5,_RNvMs1_NtCs7MLK0KUMdQf_14copybook_codec6recordINtB5_15RDWRecordWriterQINtNtCs31agqjrRntl_5alloc3vec3VechEE3newB7_
FNDA:2,_RNvMs_NtCs7MLK0KUMdQf_14copybook_codec6recordINtB4_17FixedRecordWriterQINtNtCs31agqjrRntl_5alloc3vec3VechEE12record_countB6_
FNDA:3,_RNvMs_NtCs7MLK0KUMdQf_14copybook_codec6recordINtB4_17FixedRecordWriterQINtNtCs31agqjrRntl_5alloc3vec3VechEE12write_recordB6_
FNDA:4,_RNvMs_NtCs7MLK0KUMdQf_14copybook_codec6recordINtB4_17FixedRecordWriterQINtNtCs31agqjrRntl_5alloc3vec3VechEE3newB6_
FNDA:1,_RNvMs_NtCs7MLK0KUMdQf_14copybook_codec6recordINtB4_17FixedRecordWriterQINtNtCs31agqjrRntl_5alloc3vec3VechEE5flushB6_
FNDA:1,_RNvNtNtCs7MLK0KUMdQf_14copybook_codec6record5testss_19test_rdw_record_new
FNDA:1,_RNvNtNtCs7MLK0KUMdQf_14copybook_codec6record5testss_21test_rdw_reader_basic
FNDA:1,_RNvNtNtCs7MLK0KUMdQf_14copybook_codec6record5testss_21test_rdw_writer_basic
FNDA:1,_RNvNtNtCs7MLK0KUMdQf_14copybook_codec6record5testss_24test_rdw_record_as_bytes
FNDA:1,_RNvNtNtCs7MLK0KUMdQf_14copybook_codec6record5testss_27test_legacy_read_record_rdw
FNDA:1,_RNvNtNtCs7MLK0KUMdQf_14copybook_codec6record5testss_27test_rdw_reader_zero_length
FNDA:1,_RNvNtNtCs7MLK0KUMdQf_14copybook_codec6record5testss_27test_validate_record_length
FNDA:1,_RNvNtNtCs7MLK0KUMdQf_14copybook_codec6record5testss_28test_legacy_write_record_rdw
FNDA:1,_RNvNtNtCs7MLK0KUMdQf_14copybook_codec6record5testss_28test_rdw_writer_from_payload
FNDA:1,_RNvNtNtCs7MLK0KUMdQf_14copybook_codec6record5testss_29test_legacy_read_record_fixed
FNDA:1,_RNvNtNtCs7MLK0KUMdQf_14copybook_codec6record5testss_29test_rdw_record_with_reserved
FNDA:1,_RNvNtNtCs7MLK0KUMdQf_14copybook_codec6record5testss_30test_fixed_record_reader_basic
FNDA:1,_RNvNtNtCs7MLK0KUMdQf_14copybook_codec6record5testss_30test_fixed_record_writer_basic
FNDA:1,_RNvNtNtCs7MLK0KUMdQf_14copybook_codec6record5testss_30test_legacy_write_record_fixed
FNDA:1,_RNvNtNtCs7MLK0KUMdQf_14copybook_codec6record5testss_32test_rdw_reader_multiple_records
FNDA:1,_RNvNtNtCs7MLK0KUMdQf_14copybook_codec6record5testss_32test_rdw_record_recompute_length
FNDA:1,_RNvNtNtCs7MLK0KUMdQf_14copybook_codec6record5testss_33test_fixed_record_reader_no_lrecl
FNDA:1,_RNvNtNtCs7MLK0KUMdQf_14copybook_codec6record5testss_33test_fixed_record_writer_no_lrecl
FNDA:1,_RNvNtNtCs7MLK0KUMdQf_14copybook_codec6record5testss_33test_fixed_record_writer_too_long
FNDA:1,_RNvNtNtCs7MLK0KUMdQf_14copybook_codec6record5testss_33test_rdw_reader_incomplete_header
FNDA:1,_RNvNtNtCs7MLK0KUMdQf_14copybook_codec6record5testss_33test_rdw_writer_payload_too_large
FNDA:1,_RNvNtNtCs7MLK0KUMdQf_14copybook_codec6record5testss_33test_rdw_writer_preserve_reserved
FNDA:1,_RNvNtNtCs7MLK0KUMdQf_14copybook_codec6record5testss_34test_rdw_reader_incomplete_payload
FNDA:1,_RNvNtNtCs7MLK0KUMdQf_14copybook_codec6record5testss_35test_fixed_record_reader_zero_lrecl
FNDA:1,_RNvNtNtCs7MLK0KUMdQf_14copybook_codec6record5testss_35test_fixed_record_writer_zero_lrecl
FNDA:1,_RNvNtNtCs7MLK0KUMdQf_14copybook_codec6record5testss_36test_validate_record_length_mismatch
FNDA:1,_RNvNtNtCs7MLK0KUMdQf_14copybook_codec6record5testss_37test_rdw_record_get_data_for_raw_mode
FNDA:1,_RNvNtNtCs7MLK0KUMdQf_14copybook_codec6record5testss_39test_fixed_record_reader_partial_record
FNDA:1,_RNvNtNtCs7MLK0KUMdQf_14copybook_codec6record5testss_39test_rdw_reader_reserved_nonzero_strict
FNDA:1,_RNvNtNtCs7MLK0KUMdQf_14copybook_codec6record5testss_40test_rdw_reader_reserved_nonzero_lenient
FNDA:1,_RNvNtNtCs7MLK0KUMdQf_14copybook_codec6record5testss_41test_zero_length_record_rejected_with_odo
FNDA:1,_RNvNtNtCs7MLK0KUMdQf_14copybook_codec6record5testss_42test_legacy_read_record_rdw_invalid_header
FNDA:1,_RNvNtNtCs7MLK0KUMdQf_14copybook_codec6record5testss_42test_rdw_reader_ascii_corruption_detection
FNDA:1,_RNvNtNtCs7MLK0KUMdQf_14copybook_codec6record5testss_44test_zero_length_record_rejected_without_odo
FNDA:1,_RNvNtNtCs7MLK0KUMdQf_14copybook_codec6record5testss_48test_zero_length_record_allowed_for_empty_schema
FNDA:0,_RNCNvMNtCs8M7rtMEmd2k_14copybook_codec6recordINtB4_17FixedRecordReaderINtNtNtCs4eoO4cHkFdT_3std2io6cursor6CursorRINtNtCs31agqjrRntl_5alloc3vec3VechEEE3new0CsfrfqSxIOjnf_41enterprise_mainframe_production_scenarios
FNDA:0,_RNCNvMs0_NtCs8M7rtMEmd2k_14copybook_codec6recordINtB7_15RDWRecordReaderINtNtNtCs4eoO4cHkFdT_3std2io6cursor6CursorRINtNtCs31agqjrRntl_5alloc3vec3VechEEE27is_suspect_ascii_corruption0CsfrfqSxIOjnf_41enterprise_mainframe_production_scenarios
FNDA:0,_RNvMNtCs8M7rtMEmd2k_14copybook_codec6recordINtB2_17FixedRecordReaderINtNtNtCs4eoO4cHkFdT_3std2io6cursor6CursorRINtNtCs31agqjrRntl_5alloc3vec3VechEEE11read_recordCsfrfqSxIOjnf_41enterprise_mainframe_production_scenarios
FNDA:0,_RNvMNtCs8M7rtMEmd2k_14copybook_codec6recordINtB2_17FixedRecordReaderINtNtNtCs4eoO4cHkFdT_3std2io6cursor6CursorRINtNtCs31agqjrRntl_5alloc3vec3VechEEE3newCsfrfqSxIOjnf_41enterprise_mainframe_production_scenarios
FNDA:0,_RNvMs0_NtCs8M7rtMEmd2k_14copybook_codec6recordINtB5_15RDWRecordReaderINtNtNtCs4eoO4cHkFdT_3std2io6cursor6CursorRINtNtCs31agqjrRntl_5alloc3vec3VechEEE11read_recordCsfrfqSxIOjnf_41enterprise_mainframe_production_scenarios
FNDA:0,_RNvMs0_NtCs8M7rtMEmd2k_14copybook_codec6recordINtB5_15RDWRecordReaderINtNtNtCs4eoO4cHkFdT_3std2io6cursor6CursorRINtNtCs31agqjrRntl_5alloc3vec3VechEEE27is_suspect_ascii_corruptionCsfrfqSxIOjnf_41enterprise_mainframe_production_scenarios
FNDA:0,_RNvMs0_NtCs8M7rtMEmd2k_14copybook_codec6recordINtB5_15RDWRecordReaderINtNtNtCs4eoO4cHkFdT_3std2io6cursor6CursorRINtNtCs31agqjrRntl_5alloc3vec3VechEEE3newCsfrfqSxIOjnf_41enterprise_mainframe_production_scenarios
FNDA:0,_RNCNvMNtCs8M7rtMEmd2k_14copybook_codec6recordINtB4_17FixedRecordReaderINtNtNtCs4eoO4cHkFdT_3std2io6cursor6CursorRINtNtCs31agqjrRntl_5alloc3vec3VechEEE3new0CsaBuigDW70JO_15golden_fixtures
FNDA:0,_RNCNvMs0_NtCs8M7rtMEmd2k_14copybook_codec6recordINtB7_15RDWRecordReaderINtNtNtCs4eoO4cHkFdT_3std2io6cursor6CursorRINtNtCs31agqjrRntl_5alloc3vec3VechEEE27is_suspect_ascii_corruption0CsaBuigDW70JO_15golden_fixtures
FNDA:3,_RNvMNtCs8M7rtMEmd2k_14copybook_codec6recordINtB2_17FixedRecordReaderINtNtNtCs4eoO4cHkFdT_3std2io6cursor6CursorRINtNtCs31agqjrRntl_5alloc3vec3VechEEE11read_recordCsaBuigDW70JO_15golden_fixtures
FNDA:1,_RNvMNtCs8M7rtMEmd2k_14copybook_codec6recordINtB2_17FixedRecordReaderINtNtNtCs4eoO4cHkFdT_3std2io6cursor6CursorRINtNtCs31agqjrRntl_5alloc3vec3VechEEE3newCsaBuigDW70JO_15golden_fixtures
FNDA:0,_RNvMs0_NtCs8M7rtMEmd2k_14copybook_codec6recordINtB5_15RDWRecordReaderINtNtNtCs4eoO4cHkFdT_3std2io6cursor6CursorRINtNtCs31agqjrRntl_5alloc3vec3VechEEE11read_recordCsaBuigDW70JO_15golden_fixtures
FNDA:0,_RNvMs0_NtCs8M7rtMEmd2k_14copybook_codec6recordINtB5_15RDWRecordReaderINtNtNtCs4eoO4cHkFdT_3std2io6cursor6CursorRINtNtCs31agqjrRntl_5alloc3vec3VechEEE27is_suspect_ascii_corruptionCsaBuigDW70JO_15golden_fixtures
FNDA:0,_RNvMs0_NtCs8M7rtMEmd2k_14copybook_codec6recordINtB5_15RDWRecordReaderINtNtNtCs4eoO4cHkFdT_3std2io6cursor6CursorRINtNtCs31agqjrRntl_5alloc3vec3VechEEE3newCsaBuigDW70JO_15golden_fixtures
FNDA:0,_RNCNvMNtCs8M7rtMEmd2k_14copybook_codec6recordINtB4_17FixedRecordReaderINtNtNtCs4eoO4cHkFdT_3std2io6cursor6CursorRINtNtCs31agqjrRntl_5alloc3vec3VechEEE3new0Csg7HvolesBgV_29integration_memory_management
FNDA:0,_RNCNvMs0_NtCs8M7rtMEmd2k_14copybook_codec6recordINtB7_15RDWRecordReaderINtNtNtCs4eoO4cHkFdT_3std2io6cursor6CursorRINtNtCs31agqjrRntl_5alloc3vec3VechEEE27is_suspect_ascii_corruption0Csg7HvolesBgV_29integration_memory_management
FNDA:303,_RNvMNtCs8M7rtMEmd2k_14copybook_codec6recordINtB2_17FixedRecordReaderINtNtNtCs4eoO4cHkFdT_3std2io6cursor6CursorRINtNtCs31agqjrRntl_5alloc3vec3VechEEE11read_recordCsg7HvolesBgV_29integration_memory_management
FNDA:3,_RNvMNtCs8M7rtMEmd2k_14copybook_codec6recordINtB2_17FixedRecordReaderINtNtNtCs4eoO4cHkFdT_3std2io6cursor6CursorRINtNtCs31agqjrRntl_5alloc3vec3VechEEE3newCsg7HvolesBgV_29integration_memory_management
FNDA:0,_RNvMs0_NtCs8M7rtMEmd2k_14copybook_codec6recordINtB5_15RDWRecordReaderINtNtNtCs4eoO4cHkFdT_3std2io6cursor6CursorRINtNtCs31agqjrRntl_5alloc3vec3VechEEE11read_recordCsg7HvolesBgV_29integration_memory_management
FNDA:0,_RNvMs0_NtCs8M7rtMEmd2k_14copybook_codec6recordINtB5_15RDWRecordReaderINtNtNtCs4eoO4cHkFdT_3std2io6cursor6CursorRINtNtCs31agqjrRntl_5alloc3vec3VechEEE27is_suspect_ascii_corruptionCsg7HvolesBgV_29integration_memory_management
FNDA:0,_RNvMs0_NtCs8M7rtMEmd2k_14copybook_codec6recordINtB5_15RDWRecordReaderINtNtNtCs4eoO4cHkFdT_3std2io6cursor6CursorRINtNtCs31agqjrRntl_5alloc3vec3VechEEE3newCsg7HvolesBgV_29integration_memory_management
FNDA:1,_RNCNvMNtCs8M7rtMEmd2k_14copybook_codec6recordINtB4_17FixedRecordReaderINtNtNtCs4eoO4cHkFdT_3std2io6cursor6CursorRAhj1c_EE3new0CskPdd2mul4kv_25integration_odo_redefines
FNDA:1,_RNCNvMNtCs8M7rtMEmd2k_14copybook_codec6recordINtB4_17FixedRecordReaderINtNtNtCs4eoO4cHkFdT_3std2io6cursor6CursorRAhj23_EE3new0CskPdd2mul4kv_25integration_odo_redefines
FNDA:0,_RNCNvMs0_NtCs8M7rtMEmd2k_14copybook_codec6recordINtB7_15RDWRecordReaderINtNtNtCs4eoO4cHkFdT_3std2io6cursor6CursorRAhj1c_EE27is_suspect_ascii_corruption0CskPdd2mul4kv_25integration_odo_redefines
FNDA:0,_RNCNvMs0_NtCs8M7rtMEmd2k_14copybook_codec6recordINtB7_15RDWRecordReaderINtNtNtCs4eoO4cHkFdT_3std2io6cursor6CursorRAhj23_EE27is_suspect_ascii_corruption0CskPdd2mul4kv_25integration_odo_redefines
FNDA:0,_RNvMNtCs8M7rtMEmd2k_14copybook_codec6recordINtB2_17FixedRecordReaderINtNtNtCs4eoO4cHkFdT_3std2io6cursor6CursorRAhj1c_EE11read_recordCskPdd2mul4kv_25integration_odo_redefines
FNDA:1,_RNvMNtCs8M7rtMEmd2k_14copybook_codec6recordINtB2_17FixedRecordReaderINtNtNtCs4eoO4cHkFdT_3std2io6cursor6CursorRAhj1c_EE3newCskPdd2mul4kv_25integration_odo_redefines
FNDA:0,_RNvMNtCs8M7rtMEmd2k_14copybook_codec6recordINtB2_17FixedRecordReaderINtNtNtCs4eoO4cHkFdT_3std2io6cursor6CursorRAhj23_EE11read_recordCskPdd2mul4kv_25integration_odo_redefines
FNDA:1,_RNvMNtCs8M7rtMEmd2k_14copybook_codec6recordINtB2_17FixedRecordReaderINtNtNtCs4eoO4cHkFdT_3std2io6cursor6CursorRAhj23_EE3newCskPdd2mul4kv_25integration_odo_redefines
FNDA:0,_RNvMs0_NtCs8M7rtMEmd2k_14copybook_codec6recordINtB5_15RDWRecordReaderINtNtNtCs4eoO4cHkFdT_3std2io6cursor6CursorRAhj1c_EE11read_recordCskPdd2mul4kv_25integration_odo_redefines
FNDA:0,_RNvMs0_NtCs8M7rtMEmd2k_14copybook_codec6recordINtB5_15RDWRecordReaderINtNtNtCs4eoO4cHkFdT_3std2io6cursor6CursorRAhj1c_EE27is_suspect_ascii_corruptionCskPdd2mul4kv_25integration_odo_redefines
FNDA:0,_RNvMs0_NtCs8M7rtMEmd2k_14copybook_codec6recordINtB5_15RDWRecordReaderINtNtNtCs4eoO4cHkFdT_3std2io6cursor6CursorRAhj1c_EE3newCskPdd2mul4kv_25integration_odo_redefines
FNDA:0,_RNvMs0_NtCs8M7rtMEmd2k_14copybook_codec6recordINtB5_15RDWRecordReaderINtNtNtCs4eoO4cHkFdT_3std2io6cursor6CursorRAhj23_EE11read_recordCskPdd2mul4kv_25integration_odo_redefines
FNDA:0,_RNvMs0_NtCs8M7rtMEmd2k_14copybook_codec6recordINtB5_15RDWRecordReaderINtNtNtCs4eoO4cHkFdT_3std2io6cursor6CursorRAhj23_EE27is_suspect_ascii_corruptionCskPdd2mul4kv_25integration_odo_redefines
FNDA:0,_RNvMs0_NtCs8M7rtMEmd2k_14copybook_codec6recordINtB5_15RDWRecordReaderINtNtNtCs4eoO4cHkFdT_3std2io6cursor6CursorRAhj23_EE3newCskPdd2mul4kv_25integration_odo_redefines
FNDA:0,_RNCNvMNtCs8M7rtMEmd2k_14copybook_codec6recordINtB4_17FixedRecordReaderINtNtNtCs4eoO4cHkFdT_3std2io6cursor6CursorRAhj2_EE3new0Cslw1aZpohcdE_21numeric_comprehensive
FNDA:0,_RNCNvMNtCs8M7rtMEmd2k_14copybook_codec6recordINtB4_17FixedRecordReaderINtNtNtCs4eoO4cHkFdT_3std2io6cursor6CursorRAhj3_EE3new0Cslw1aZpohcdE_21numeric_comprehensive
FNDA:0,_RNCNvMNtCs8M7rtMEmd2k_14copybook_codec6recordINtB4_17FixedRecordReaderINtNtNtCs4eoO4cHkFdT_3std2io6cursor6CursorRAhj4_EE3new0Cslw1aZpohcdE_21numeric_comprehensive
FNDA:0,_RNCNvMNtCs8M7rtMEmd2k_14copybook_codec6recordINtB4_17FixedRecordReaderINtNtNtCs4eoO4cHkFdT_3std2io6cursor6CursorRAhj5_EE3new0Cslw1aZpohcdE_21numeric_comprehensive
FNDA:0,_RNCNvMNtCs8M7rtMEmd2k_14copybook_codec6recordINtB4_17FixedRecordReaderINtNtNtCs4eoO4cHkFdT_3std2io6cursor6CursorRAhj8_EE3new0Cslw1aZpohcdE_21numeric_comprehensive
FNDA:0,_RNCNvMNtCs8M7rtMEmd2k_14copybook_codec6recordINtB4_17FixedRecordReaderINtNtNtCs4eoO4cHkFdT_3std2io6cursor6CursorRAhjb_EE3new0Cslw1aZpohcdE_21numeric_comprehensive
FNDA:0,_RNCNvMs0_NtCs8M7rtMEmd2k_14copybook_codec6recordINtB7_15RDWRecordReaderINtNtNtCs4eoO4cHkFdT_3std2io6cursor6CursorRAhj2_EE27is_suspect_ascii_corruption0Cslw1aZpohcdE_21numeric_comprehensive
FNDA:0,_RNCNvMs0_NtCs8M7rtMEmd2k_14copybook_codec6recordINtB7_15RDWRecordReaderINtNtNtCs4eoO4cHkFdT_3std2io6cursor6CursorRAhj3_EE27is_suspect_ascii_corruption0Cslw1aZpohcdE_21numeric_comprehensive
FNDA:0,_RNCNvMs0_NtCs8M7rtMEmd2k_14copybook_codec6recordINtB7_15RDWRecordReaderINtNtNtCs4eoO4cHkFdT_3std2io6cursor6CursorRAhj4_EE27is_suspect_ascii_corruption0Cslw1aZpohcdE_21numeric_comprehensive
FNDA:0,_RNCNvMs0_NtCs8M7rtMEmd2k_14copybook_codec6recordINtB7_15RDWRecordReaderINtNtNtCs4eoO4cHkFdT_3std2io6cursor6CursorRAhj5_EE27is_suspect_ascii_corruption0Cslw1aZpohcdE_21numeric_comprehensive
FNDA:0,_RNCNvMs0_NtCs8M7rtMEmd2k_14copybook_codec6recordINtB7_15RDWRecordReaderINtNtNtCs4eoO4cHkFdT_3std2io6cursor6CursorRAhj8_EE27is_suspect_ascii_corruption0Cslw1aZpohcdE_21numeric_comprehensive
FNDA:0,_RNCNvMs0_NtCs8M7rtMEmd2k_14copybook_codec6recordINtB7_15RDWRecordReaderINtNtNtCs4eoO4cHkFdT_3std2io6cursor6CursorRAhjb_EE27is_suspect_ascii_corruption0Cslw1aZpohcdE_21numeric_comprehensive
FNDA:6,_RNvMNtCs8M7rtMEmd2k_14copybook_codec6recordINtB2_17FixedRecordReaderINtNtNtCs4eoO4cHkFdT_3std2io6cursor6CursorRAhj2_EE11read_recordCslw1aZpohcdE_21numeric_comprehensive
FNDA:3,_RNvMNtCs8M7rtMEmd2k_14copybook_codec6recordINtB2_17FixedRecordReaderINtNtNtCs4eoO4cHkFdT_3std2io6cursor6CursorRAhj2_EE3newCslw1aZpohcdE_21numeric_comprehensive
FNDA:10,_RNvMNtCs8M7rtMEmd2k_14copybook_codec6recordINtB2_17FixedRecordReaderINtNtNtCs4eoO4cHkFdT_3std2io6cursor6CursorRAhj3_EE11read_recordCslw1aZpohcdE_21numeric_comprehensive
FNDA:5,_RNvMNtCs8M7rtMEmd2k_14copybook_codec6recordINtB2_17FixedRecordReaderINtNtNtCs4eoO4cHkFdT_3std2io6cursor6CursorRAhj3_EE3newCslw1aZpohcdE_21numeric_comprehensive
FNDA:2,_RNvMNtCs8M7rtMEmd2k_14copybook_codec6recordINtB2_17FixedRecordReaderINtNtNtCs4eoO4cHkFdT_3std2io6cursor6CursorRAhj4_EE11read_recordCslw1aZpohcdE_21numeric_comprehensive
FNDA:1,_RNvMNtCs8M7rtMEmd2k_14copybook_codec6recordINtB2_17FixedRecordReaderINtNtNtCs4eoO4cHkFdT_3std2io6cursor6CursorRAhj4_EE3newCslw1aZpohcdE_21numeric_comprehensive
FNDA:2,_RNvMNtCs8M7rtMEmd2k_14copybook_codec6recordINtB2_17FixedRecordReaderINtNtNtCs4eoO4cHkFdT_3std2io6cursor6CursorRAhj5_EE11read_recordCslw1aZpohcdE_21numeric_comprehensive
FNDA:1,_RNvMNtCs8M7rtMEmd2k_14copybook_codec6recordINtB2_17FixedRecordReaderINtNtNtCs4eoO4cHkFdT_3std2io6cursor6CursorRAhj5_EE3newCslw1aZpohcdE_21numeric_comprehensive
FNDA:2,_RNvMNtCs8M7rtMEmd2k_14copybook_codec6recordINtB2_17FixedRecordReaderINtNtNtCs4eoO4cHkFdT_3std2io6cursor6CursorRAhj8_EE11read_recordCslw1aZpohcdE_21numeric_comprehensive
FNDA:1,_RNvMNtCs8M7rtMEmd2k_14copybook_codec6recordINtB2_17FixedRecordReaderINtNtNtCs4eoO4cHkFdT_3std2io6cursor6CursorRAhj8_EE3newCslw1aZpohcdE_21numeric_comprehensive
FNDA:4,_RNvMNtCs8M7rtMEmd2k_14copybook_codec6recordINtB2_17FixedRecordReaderINtNtNtCs4eoO4cHkFdT_3std2io6cursor6CursorRAhjb_EE11read_recordCslw1aZpohcdE_21numeric_comprehensive
FNDA:2,_RNvMNtCs8M7rtMEmd2k_14copybook_codec6recordINtB2_17FixedRecordReaderINtNtNtCs4eoO4cHkFdT_3std2io6cursor6CursorRAhjb_EE3newCslw1aZpohcdE_21numeric_comprehensive
FNDA:0,_RNvMs0_NtCs8M7rtMEmd2k_14copybook_codec6recordINtB5_15RDWRecordReaderINtNtNtCs4eoO4cHkFdT_3std2io6cursor6CursorRAhj2_EE11read_recordCslw1aZpohcdE_21numeric_comprehensive
FNDA:0,_RNvMs0_NtCs8M7rtMEmd2k_14copybook_codec6recordINtB5_15RDWRecordReaderINtNtNtCs4eoO4cHkFdT_3std2io6cursor6CursorRAhj2_EE27is_suspect_ascii_corruptionCslw1aZpohcdE_21numeric_comprehensive
FNDA:0,_RNvMs0_NtCs8M7rtMEmd2k_14copybook_codec6recordINtB5_15RDWRecordReaderINtNtNtCs4eoO4cHkFdT_3std2io6cursor6CursorRAhj2_EE3newCslw1aZpohcdE_21numeric_comprehensive
FNDA:0,_RNvMs0_NtCs8M7rtMEmd2k_14copybook_codec6recordINtB5_15RDWRecordReaderINtNtNtCs4eoO4cHkFdT_3std2io6cursor6CursorRAhj3_EE11read_recordCslw1aZpohcdE_21numeric_comprehensive
FNDA:0,_RNvMs0_NtCs8M7rtMEmd2k_14copybook_codec6recordINtB5_15RDWRecordReaderINtNtNtCs4eoO4cHkFdT_3std2io6cursor6CursorRAhj3_EE27is_suspect_ascii_corruptionCslw1aZpohcdE_21numeric_comprehensive
FNDA:0,_RNvMs0_NtCs8M7rtMEmd2k_14copybook_codec6recordINtB5_15RDWRecordReaderINtNtNtCs4eoO4cHkFdT_3std2io6cursor6CursorRAhj3_EE3newCslw1aZpohcdE_21numeric_comprehensive
FNDA:0,_RNvMs0_NtCs8M7rtMEmd2k_14copybook_codec6recordINtB5_15RDWRecordReaderINtNtNtCs4eoO4cHkFdT_3std2io6cursor6CursorRAhj4_EE11read_recordCslw1aZpohcdE_21numeric_comprehensive
FNDA:0,_RNvMs0_NtCs8M7rtMEmd2k_14copybook_codec6recordINtB5_15RDWRecordReaderINtNtNtCs4eoO4cHkFdT_3std2io6cursor6CursorRAhj4_EE27is_suspect_ascii_corruptionCslw1aZpohcdE_21numeric_comprehensive
FNDA:0,_RNvMs0_NtCs8M7rtMEmd2k_14copybook_codec6recordINtB5_15RDWRecordReaderINtNtNtCs4eoO4cHkFdT_3std2io6cursor6CursorRAhj4_EE3newCslw1aZpohcdE_21numeric_comprehensive
FNDA:0,_RNvMs0_NtCs8M7rtMEmd2k_14copybook_codec6recordINtB5_15RDWRecordReaderINtNtNtCs4eoO4cHkFdT_3std2io6cursor6CursorRAhj5_EE11read_recordCslw1aZpohcdE_21numeric_comprehensive
FNDA:0,_RNvMs0_NtCs8M7rtMEmd2k_14copybook_codec6recordINtB5_15RDWRecordReaderINtNtNtCs4eoO4cHkFdT_3std2io6cursor6CursorRAhj5_EE27is_suspect_ascii_corruptionCslw1aZpohcdE_21numeric_comprehensive
FNDA:0,_RNvMs0_NtCs8M7rtMEmd2k_14copybook_codec6recordINtB5_15RDWRecordReaderINtNtNtCs4eoO4cHkFdT_3std2io6cursor6CursorRAhj5_EE3newCslw1aZpohcdE_21numeric_comprehensive
FNDA:0,_RNvMs0_NtCs8M7rtMEmd2k_14copybook_codec6recordINtB5_15RDWRecordReaderINtNtNtCs4eoO4cHkFdT_3std2io6cursor6CursorRAhj8_EE11read_recordCslw1aZpohcdE_21numeric_comprehensive
FNDA:0,_RNvMs0_NtCs8M7rtMEmd2k_14copybook_codec6recordINtB5_15RDWRecordReaderINtNtNtCs4eoO4cHkFdT_3std2io6cursor6CursorRAhj8_EE27is_suspect_ascii_corruptionCslw1aZpohcdE_21numeric_comprehensive
FNDA:0,_RNvMs0_NtCs8M7rtMEmd2k_14copybook_codec6recordINtB5_15RDWRecordReaderINtNtNtCs4eoO4cHkFdT_3std2io6cursor6CursorRAhj8_EE3newCslw1aZpohcdE_21numeric_comprehensive
FNDA:0,_RNvMs0_NtCs8M7rtMEmd2k_14copybook_codec6recordINtB5_15RDWRecordReaderINtNtNtCs4eoO4cHkFdT_3std2io6cursor6CursorRAhjb_EE11read_recordCslw1aZpohcdE_21numeric_comprehensive
FNDA:0,_RNvMs0_NtCs8M7rtMEmd2k_14copybook_codec6recordINtB5_15RDWRecordReaderINtNtNtCs4eoO4cHkFdT_3std2io6cursor6CursorRAhjb_EE27is_suspect_ascii_corruptionCslw1aZpohcdE_21numeric_comprehensive
FNDA:0,_RNvMs0_NtCs8M7rtMEmd2k_14copybook_codec6recordINtB5_15RDWRecordReaderINtNtNtCs4eoO4cHkFdT_3std2io6cursor6CursorRAhjb_EE3newCslw1aZpohcdE_21numeric_comprehensive
FNDA:1,_RNCNvMNtCs8M7rtMEmd2k_14copybook_codec6recordINtB4_17FixedRecordReaderINtNtNtCs4eoO4cHkFdT_3std2io6cursor6CursorRAhj17_EE3new0Cs39nnvYeCEEq_17odo_comprehensive
FNDA:1,_RNCNvMNtCs8M7rtMEmd2k_14copybook_codec6recordINtB4_17FixedRecordReaderINtNtNtCs4eoO4cHkFdT_3std2io6cursor6CursorRAhj21_EE3new0Cs39nnvYeCEEq_17odo_comprehensive
FNDA:2,_RNCNvMNtCs8M7rtMEmd2k_14copybook_codec6recordINtB4_17FixedRecordReaderINtNtNtCs4eoO4cHkFdT_3std2io6cursor6CursorRAhj35_EE3new0Cs39nnvYeCEEq_17odo_comprehensive
FNDA:1,_RNCNvMNtCs8M7rtMEmd2k_14copybook_codec6recordINtB4_17FixedRecordReaderINtNtNtCs4eoO4cHkFdT_3std2io6cursor6CursorRAhj3_EE3new0Cs39nnvYeCEEq_17odo_comprehensive
FNDA:1,_RNCNvMNtCs8M7rtMEmd2k_14copybook_codec6recordINtB4_17FixedRecordReaderINtNtNtCs4eoO4cHkFdT_3std2io6cursor6CursorRINtNtCs31agqjrRntl_5alloc3vec3VechEEE3new0Cs39nnvYeCEEq_17odo_comprehensive
FNDA:1,_RNCNvMNtCs8M7rtMEmd2k_14copybook_codec6recordINtB4_17FixedRecordReaderINtNtNtCs4eoO4cHkFdT_3std2io6cursor6CursorRShEE3new0Cs39nnvYeCEEq_17odo_comprehensive
FNDA:0,_RNCNvMs0_NtCs8M7rtMEmd2k_14copybook_codec6recordINtB7_15RDWRecordReaderINtNtNtCs4eoO4cHkFdT_3std2io6cursor6CursorRAhj17_EE27is_suspect_ascii_corruption0Cs39nnvYeCEEq_17odo_comprehensive
FNDA:0,_RNCNvMs0_NtCs8M7rtMEmd2k_14copybook_codec6recordINtB7_15RDWRecordReaderINtNtNtCs4eoO4cHkFdT_3std2io6cursor6CursorRAhj21_EE27is_suspect_ascii_corruption0Cs39nnvYeCEEq_17odo_comprehensive
FNDA:0,_RNCNvMs0_NtCs8M7rtMEmd2k_14copybook_codec6recordINtB7_15RDWRecordReaderINtNtNtCs4eoO4cHkFdT_3std2io6cursor6CursorRAhj35_EE27is_suspect_ascii_corruption0Cs39nnvYeCEEq_17odo_comprehensive
FNDA:0,_RNCNvMs0_NtCs8M7rtMEmd2k_14copybook_codec6recordINtB7_15RDWRecordReaderINtNtNtCs4eoO4cHkFdT_3std2io6cursor6CursorRAhj3_EE27is_suspect_ascii_corruption0Cs39nnvYeCEEq_17odo_comprehensive
FNDA:0,_RNCNvMs0_NtCs8M7rtMEmd2k_14copybook_codec6recordINtB7_15RDWRecordReaderINtNtNtCs4eoO4cHkFdT_3std2io6cursor6CursorRINtNtCs31agqjrRntl_5alloc3vec3VechEEE27is_suspect_ascii_corruption0Cs39nnvYeCEEq_17odo_comprehensive
FNDA:0,_RNCNvMs0_NtCs8M7rtMEmd2k_14copybook_codec6recordINtB7_15RDWRecordReaderINtNtNtCs4eoO4cHkFdT_3std2io6cursor6CursorRShEE27is_suspect_ascii_corruption0Cs39nnvYeCEEq_17odo_comprehensive
FNDA:0,_RNvMNtCs8M7rtMEmd2k_14copybook_codec6recordINtB2_17FixedRecordReaderINtNtNtCs4eoO4cHkFdT_3std2io6cursor6CursorRAhj17_EE11read_recordCs39nnvYeCEEq_17odo_comprehensive
FNDA:1,_RNvMNtCs8M7rtMEmd2k_14copybook_codec6recordINtB2_17FixedRecordReaderINtNtNtCs4eoO4cHkFdT_3std2io6cursor6CursorRAhj17_EE3newCs39nnvYeCEEq_17odo_comprehensive
FNDA:0,_RNvMNtCs8M7rtMEmd2k_14copybook_codec6recordINtB2_17FixedRecordReaderINtNtNtCs4eoO4cHkFdT_3std2io6cursor6CursorRAhj21_EE11read_recordCs39nnvYeCEEq_17odo_comprehensive
FNDA:1,_RNvMNtCs8M7rtMEmd2k_14copybook_codec6recordINtB2_17FixedRecordReaderINtNtNtCs4eoO4cHkFdT_3std2io6cursor6CursorRAhj21_EE3newCs39nnvYeCEEq_17odo_comprehensive
FNDA:0,_RNvMNtCs8M7rtMEmd2k_14copybook_codec6recordINtB2_17FixedRecordReaderINtNtNtCs4eoO4cHkFdT_3std2io6cursor6CursorRAhj35_EE11read_recordCs39nnvYeCEEq_17odo_comprehensive
FNDA:2,_RNvMNtCs8M7rtMEmd2k_14copybook_codec6recordINtB2_17FixedRecordReaderINtNtNtCs4eoO4cHkFdT_3std2io6cursor6CursorRAhj35_EE3newCs39nnvYeCEEq_17odo_comprehensive
FNDA:0,_RNvMNtCs8M7rtMEmd2k_14copybook_codec6recordINtB2_17FixedRecordReaderINtNtNtCs4eoO4cHkFdT_3std2io6cursor6CursorRAhj3_EE11read_recordCs39nnvYeCEEq_17odo_comprehensive
FNDA:1,_RNvMNtCs8M7rtMEmd2k_14copybook_codec6recordINtB2_17FixedRecordReaderINtNtNtCs4eoO4cHkFdT_3std2io6cursor6CursorRAhj3_EE3newCs39nnvYeCEEq_17odo_comprehensive
FNDA:0,_RNvMNtCs8M7rtMEmd2k_14copybook_codec6recordINtB2_17FixedRecordReaderINtNtNtCs4eoO4cHkFdT_3std2io6cursor6CursorRINtNtCs31agqjrRntl_5alloc3vec3VechEEE11read_recordCs39nnvYeCEEq_17odo_comprehensive
FNDA:1,_RNvMNtCs8M7rtMEmd2k_14copybook_codec6recordINtB2_17FixedRecordReaderINtNtNtCs4eoO4cHkFdT_3std2io6cursor6CursorRINtNtCs31agqjrRntl_5alloc3vec3VechEEE3newCs39nnvYeCEEq_17odo_comprehensive
FNDA:0,_RNvMNtCs8M7rtMEmd2k_14copybook_codec6recordINtB2_17FixedRecordReaderINtNtNtCs4eoO4cHkFdT_3std2io6cursor6CursorRShEE11read_recordCs39nnvYeCEEq_17odo_comprehensive
FNDA:1,_RNvMNtCs8M7rtMEmd2k_14copybook_codec6recordINtB2_17FixedRecordReaderINtNtNtCs4eoO4cHkFdT_3std2io6cursor6CursorRShEE3newCs39nnvYeCEEq_17odo_comprehensive
FNDA:0,_RNvMs0_NtCs8M7rtMEmd2k_14copybook_codec6recordINtB5_15RDWRecordReaderINtNtNtCs4eoO4cHkFdT_3std2io6cursor6CursorRAhj17_EE11read_recordCs39nnvYeCEEq_17odo_comprehensive
FNDA:0,_RNvMs0_NtCs8M7rtMEmd2k_14copybook_codec6recordINtB5_15RDWRecordReaderINtNtNtCs4eoO4cHkFdT_3std2io6cursor6CursorRAhj17_EE27is_suspect_ascii_corruptionCs39nnvYeCEEq_17odo_comprehensive
FNDA:0,_RNvMs0_NtCs8M7rtMEmd2k_14copybook_codec6recordINtB5_15RDWRecordReaderINtNtNtCs4eoO4cHkFdT_3std2io6cursor6CursorRAhj17_EE3newCs39nnvYeCEEq_17odo_comprehensive
FNDA:0,_RNvMs0_NtCs8M7rtMEmd2k_14copybook_codec6recordINtB5_15RDWRecordReaderINtNtNtCs4eoO4cHkFdT_3std2io6cursor6CursorRAhj21_EE11read_recordCs39nnvYeCEEq_17odo_comprehensive
FNDA:0,_RNvMs0_NtCs8M7rtMEmd2k_14copybook_codec6recordINtB5_15RDWRecordReaderINtNtNtCs4eoO4cHkFdT_3std2io6cursor6CursorRAhj21_EE27is_suspect_ascii_corruptionCs39nnvYeCEEq_17odo_comprehensive
FNDA:0,_RNvMs0_NtCs8M7rtMEmd2k_14copybook_codec6recordINtB5_15RDWRecordReaderINtNtNtCs4eoO4cHkFdT_3std2io6cursor6CursorRAhj21_EE3newCs39nnvYeCEEq_17odo_comprehensive
FNDA:0,_RNvMs0_NtCs8M7rtMEmd2k_14copybook_codec6recordINtB5_15RDWRecordReaderINtNtNtCs4eoO4cHkFdT_3std2io6cursor6CursorRAhj35_EE11read_recordCs39nnvYeCEEq_17odo_comprehensive
FNDA:0,_RNvMs0_NtCs8M7rtMEmd2k_14copybook_codec6recordINtB5_15RDWRecordReaderINtNtNtCs4eoO4cHkFdT_3std2io6cursor6CursorRAhj35_EE27is_suspect_ascii_corruptionCs39nnvYeCEEq_17odo_comprehensive
FNDA:0,_RNvMs0_NtCs8M7rtMEmd2k_14copybook_codec6recordINtB5_15RDWRecordReaderINtNtNtCs4eoO4cHkFdT_3std2io6cursor6CursorRAhj35_EE3newCs39nnvYeCEEq_17odo_comprehensive
FNDA:0,_RNvMs0_NtCs8M7rtMEmd2k_14copybook_codec6recordINtB5_15RDWRecordReaderINtNtNtCs4eoO4cHkFdT_3std2io6cursor6CursorRAhj3_EE11read_recordCs39nnvYeCEEq_17odo_comprehensive
FNDA:0,_RNvMs0_NtCs8M7rtMEmd2k_14copybook_codec6recordINtB5_15RDWRecordReaderINtNtNtCs4eoO4cHkFdT_3std2io6cursor6CursorRAhj3_EE27is_suspect_ascii_corruptionCs39nnvYeCEEq_17odo_comprehensive
FNDA:0,_RNvMs0_NtCs8M7rtMEmd2k_14copybook_codec6recordINtB5_15RDWRecordReaderINtNtNtCs4eoO4cHkFdT_3std2io6cursor6CursorRAhj3_EE3newCs39nnvYeCEEq_17odo_comprehensive
FNDA:0,_RNvMs0_NtCs8M7rtMEmd2k_14copybook_codec6recordINtB5_15RDWRecordReaderINtNtNtCs4eoO4cHkFdT_3std2io6cursor6CursorRINtNtCs31agqjrRntl_5alloc3vec3VechEEE11read_recordCs39nnvYeCEEq_17odo_comprehensive
FNDA:0,_RNvMs0_NtCs8M7rtMEmd2k_14copybook_codec6recordINtB5_15RDWRecordReaderINtNtNtCs4eoO4cHkFdT_3std2io6cursor6CursorRINtNtCs31agqjrRntl_5alloc3vec3VechEEE27is_suspect_ascii_corruptionCs39nnvYeCEEq_17odo_comprehensive
FNDA:0,_RNvMs0_NtCs8M7rtMEmd2k_14copybook_codec6recordINtB5_15RDWRecordReaderINtNtNtCs4eoO4cHkFdT_3std2io6cursor6CursorRINtNtCs31agqjrRntl_5alloc3vec3VechEEE3newCs39nnvYeCEEq_17odo_comprehensive
FNDA:0,_RNvMs0_NtCs8M7rtMEmd2k_14copybook_codec6recordINtB5_15RDWRecordReaderINtNtNtCs4eoO4cHkFdT_3std2io6cursor6CursorRShEE11read_recordCs39nnvYeCEEq_17odo_comprehensive
FNDA:0,_RNvMs0_NtCs8M7rtMEmd2k_14copybook_codec6recordINtB5_15RDWRecordReaderINtNtNtCs4eoO4cHkFdT_3std2io6cursor6CursorRShEE27is_suspect_ascii_corruptionCs39nnvYeCEEq_17odo_comprehensive
FNDA:0,_RNvMs0_NtCs8M7rtMEmd2k_14copybook_codec6recordINtB5_15RDWRecordReaderINtNtNtCs4eoO4cHkFdT_3std2io6cursor6CursorRShEE3newCs39nnvYeCEEq_17odo_comprehensive
FNDA:0,_RNCNvMNtCs8M7rtMEmd2k_14copybook_codec6recordINtB4_17FixedRecordReaderINtNtNtCs4eoO4cHkFdT_3std2io6cursor6CursorRINtNtCs31agqjrRntl_5alloc3vec3VechEEE3new0CsazAqiJI9UET_32performance_hardening_validation
FNDA:0,_RNCNvMs0_NtCs8M7rtMEmd2k_14copybook_codec6recordINtB7_15RDWRecordReaderINtNtNtCs4eoO4cHkFdT_3std2io6cursor6CursorRINtNtCs31agqjrRntl_5alloc3vec3VechEEE27is_suspect_ascii_corruption0CsazAqiJI9UET_32performance_hardening_validation
FNDA:0,_RNvMNtCs8M7rtMEmd2k_14copybook_codec6recordINtB2_17FixedRecordReaderINtNtNtCs4eoO4cHkFdT_3std2io6cursor6CursorRINtNtCs31agqjrRntl_5alloc3vec3VechEEE11read_recordCsazAqiJI9UET_32performance_hardening_validation
FNDA:0,_RNvMNtCs8M7rtMEmd2k_14copybook_codec6recordINtB2_17FixedRecordReaderINtNtNtCs4eoO4cHkFdT_3std2io6cursor6CursorRINtNtCs31agqjrRntl_5alloc3vec3VechEEE3newCsazAqiJI9UET_32performance_hardening_validation
FNDA:0,_RNvMs0_NtCs8M7rtMEmd2k_14copybook_codec6recordINtB5_15RDWRecordReaderINtNtNtCs4eoO4cHkFdT_3std2io6cursor6CursorRINtNtCs31agqjrRntl_5alloc3vec3VechEEE11read_recordCsazAqiJI9UET_32performance_hardening_validation
FNDA:0,_RNvMs0_NtCs8M7rtMEmd2k_14copybook_codec6recordINtB5_15RDWRecordReaderINtNtNtCs4eoO4cHkFdT_3std2io6cursor6CursorRINtNtCs31agqjrRntl_5alloc3vec3VechEEE27is_suspect_ascii_corruptionCsazAqiJI9UET_32performance_hardening_validation
FNDA:0,_RNvMs0_NtCs8M7rtMEmd2k_14copybook_codec6recordINtB5_15RDWRecordReaderINtNtNtCs4eoO4cHkFdT_3std2io6cursor6CursorRINtNtCs31agqjrRntl_5alloc3vec3VechEEE3newCsazAqiJI9UET_32performance_hardening_validation
FNDA:0,_RNCNvMNtCs8M7rtMEmd2k_14copybook_codec6recordINtB4_17FixedRecordReaderINtNtNtCs4eoO4cHkFdT_3std2io6cursor6CursorRAhj4_EE3new0CshQ4IvnJpZrL_17rdw_comprehensive
FNDA:0,_RNCNvMNtCs8M7rtMEmd2k_14copybook_codec6recordINtB4_17FixedRecordReaderINtNtNtCs4eoO4cHkFdT_3std2io6cursor6CursorRAhje_EE3new0CshQ4IvnJpZrL_17rdw_comprehensive
FNDA:0,_RNCNvMNtCs8M7rtMEmd2k_14copybook_codec6recordINtB4_17FixedRecordReaderINtNtNtCs4eoO4cHkFdT_3std2io6cursor6CursorRINtNtCs31agqjrRntl_5alloc3vec3VechEEE3new0CshQ4IvnJpZrL_17rdw_comprehensive
FNDA:3,_RNCNvMs0_NtCs8M7rtMEmd2k_14copybook_codec6recordINtB7_15RDWRecordReaderINtNtNtCs4eoO4cHkFdT_3std2io6cursor6CursorRAhj4_EE27is_suspect_ascii_corruption0CshQ4IvnJpZrL_17rdw_comprehensive
FNDA:7,_RNCNvMs0_NtCs8M7rtMEmd2k_14copybook_codec6recordINtB7_15RDWRecordReaderINtNtNtCs4eoO4cHkFdT_3std2io6cursor6CursorRAhje_EE27is_suspect_ascii_corruption0CshQ4IvnJpZrL_17rdw_comprehensive
FNDA:3,_RNCNvMs0_NtCs8M7rtMEmd2k_14copybook_codec6recordINtB7_15RDWRecordReaderINtNtNtCs4eoO4cHkFdT_3std2io6cursor6CursorRINtNtCs31agqjrRntl_5alloc3vec3VechEEE27is_suspect_ascii_corruption0CshQ4IvnJpZrL_17rdw_comprehensive
FNDA:0,_RNvMNtCs8M7rtMEmd2k_14copybook_codec6recordINtB2_17FixedRecordReaderINtNtNtCs4eoO4cHkFdT_3std2io6cursor6CursorRAhj4_EE11read_recordCshQ4IvnJpZrL_17rdw_comprehensive
FNDA:0,_RNvMNtCs8M7rtMEmd2k_14copybook_codec6recordINtB2_17FixedRecordReaderINtNtNtCs4eoO4cHkFdT_3std2io6cursor6CursorRAhj4_EE3newCshQ4IvnJpZrL_17rdw_comprehensive
FNDA:0,_RNvMNtCs8M7rtMEmd2k_14copybook_codec6recordINtB2_17FixedRecordReaderINtNtNtCs4eoO4cHkFdT_3std2io6cursor6CursorRAhje_EE11read_recordCshQ4IvnJpZrL_17rdw_comprehensive
FNDA:0,_RNvMNtCs8M7rtMEmd2k_14copybook_codec6recordINtB2_17FixedRecordReaderINtNtNtCs4eoO4cHkFdT_3std2io6cursor6CursorRAhje_EE3newCshQ4IvnJpZrL_17rdw_comprehensive
FNDA:0,_RNvMNtCs8M7rtMEmd2k_14copybook_codec6recordINtB2_17FixedRecordReaderINtNtNtCs4eoO4cHkFdT_3std2io6cursor6CursorRINtNtCs31agqjrRntl_5alloc3vec3VechEEE11read_recordCshQ4IvnJpZrL_17rdw_comprehensive
FNDA:0,_RNvMNtCs8M7rtMEmd2k_14copybook_codec6recordINtB2_17FixedRecordReaderINtNtNtCs4eoO4cHkFdT_3std2io6cursor6CursorRINtNtCs31agqjrRntl_5alloc3vec3VechEEE3newCshQ4IvnJpZrL_17rdw_comprehensive
FNDA:4,_RNvMs0_NtCs8M7rtMEmd2k_14copybook_codec6recordINtB5_15RDWRecordReaderINtNtNtCs4eoO4cHkFdT_3std2io6cursor6CursorRAhj4_EE11read_recordCshQ4IvnJpZrL_17rdw_comprehensive
FNDA:3,_RNvMs0_NtCs8M7rtMEmd2k_14copybook_codec6recordINtB5_15RDWRecordReaderINtNtNtCs4eoO4cHkFdT_3std2io6cursor6CursorRAhj4_EE27is_suspect_ascii_corruptionCshQ4IvnJpZrL_17rdw_comprehensive
FNDA:3,_RNvMs0_NtCs8M7rtMEmd2k_14copybook_codec6recordINtB5_15RDWRecordReaderINtNtNtCs4eoO4cHkFdT_3std2io6cursor6CursorRAhj4_EE3newCshQ4IvnJpZrL_17rdw_comprehensive
FNDA:12,_RNvMs0_NtCs8M7rtMEmd2k_14copybook_codec6recordINtB5_15RDWRecordReaderINtNtNtCs4eoO4cHkFdT_3std2io6cursor6CursorRAhje_EE11read_recordCshQ4IvnJpZrL_17rdw_comprehensive
FNDA:6,_RNvMs0_NtCs8M7rtMEmd2k_14copybook_codec6recordINtB5_15RDWRecordReaderINtNtNtCs4eoO4cHkFdT_3std2io6cursor6CursorRAhje_EE27is_suspect_ascii_corruptionCshQ4IvnJpZrL_17rdw_comprehensive
FNDA:7,_RNvMs0_NtCs8M7rtMEmd2k_14copybook_codec6recordINtB5_15RDWRecordReaderINtNtNtCs4eoO4cHkFdT_3std2io6cursor6CursorRAhje_EE3newCshQ4IvnJpZrL_17rdw_comprehensive
FNDA:4,_RNvMs0_NtCs8M7rtMEmd2k_14copybook_codec6recordINtB5_15RDWRecordReaderINtNtNtCs4eoO4cHkFdT_3std2io6cursor6CursorRINtNtCs31agqjrRntl_5alloc3vec3VechEEE11read_recordCshQ4IvnJpZrL_17rdw_comprehensive
FNDA:3,_RNvMs0_NtCs8M7rtMEmd2k_14copybook_codec6recordINtB5_15RDWRecordReaderINtNtNtCs4eoO4cHkFdT_3std2io6cursor6CursorRINtNtCs31agqjrRntl_5alloc3vec3VechEEE27is_suspect_ascii_corruptionCshQ4IvnJpZrL_17rdw_comprehensive
FNDA:1,_RNvMs0_NtCs8M7rtMEmd2k_14copybook_codec6recordINtB5_15RDWRecordReaderINtNtNtCs4eoO4cHkFdT_3std2io6cursor6CursorRINtNtCs31agqjrRntl_5alloc3vec3VechEEE3newCshQ4IvnJpZrL_17rdw_comprehensive
FNDA:0,_RNCNvMNtCs8M7rtMEmd2k_14copybook_codec6recordINtB4_17FixedRecordReaderINtNtNtCs4eoO4cHkFdT_3std2io6cursor6CursorRAhj23_EE3new0Cs1qMUk3KA0Zp_23redefines_comprehensive
FNDA:0,_RNCNvMs0_NtCs8M7rtMEmd2k_14copybook_codec6recordINtB7_15RDWRecordReaderINtNtNtCs4eoO4cHkFdT_3std2io6cursor6CursorRAhj23_EE27is_suspect_ascii_corruption0Cs1qMUk3KA0Zp_23redefines_comprehensive
FNDA:6,_RNvMNtCs8M7rtMEmd2k_14copybook_codec6recordINtB2_17FixedRecordReaderINtNtNtCs4eoO4cHkFdT_3std2io6cursor6CursorRAhj23_EE11read_recordCs1qMUk3KA0Zp_23redefines_comprehensive
FNDA:3,_RNvMNtCs8M7rtMEmd2k_14copybook_codec6recordINtB2_17FixedRecordReaderINtNtNtCs4eoO4cHkFdT_3std2io6cursor6CursorRAhj23_EE3newCs1qMUk3KA0Zp_23redefines_comprehensive
FNDA:0,_RNvMs0_NtCs8M7rtMEmd2k_14copybook_codec6recordINtB5_15RDWRecordReaderINtNtNtCs4eoO4cHkFdT_3std2io6cursor6CursorRAhj23_EE11read_recordCs1qMUk3KA0Zp_23redefines_comprehensive
FNDA:0,_RNvMs0_NtCs8M7rtMEmd2k_14copybook_codec6recordINtB5_15RDWRecordReaderINtNtNtCs4eoO4cHkFdT_3std2io6cursor6CursorRAhj23_EE27is_suspect_ascii_corruptionCs1qMUk3KA0Zp_23redefines_comprehensive
FNDA:0,_RNvMs0_NtCs8M7rtMEmd2k_14copybook_codec6recordINtB5_15RDWRecordReaderINtNtNtCs4eoO4cHkFdT_3std2io6cursor6CursorRAhj23_EE3newCs1qMUk3KA0Zp_23redefines_comprehensive
FNDA:0,_RNCNvMNtCs8M7rtMEmd2k_14copybook_codec6recordINtB4_17FixedRecordReaderINtNtNtCs4eoO4cHkFdT_3std2io6cursor6CursorRINtNtCs31agqjrRntl_5alloc3vec3VechEEE3new0Cs4AY4OFbcjkZ_32zoned_encoding_performance_tests
FNDA:0,_RNCNvMs0_NtCs8M7rtMEmd2k_14copybook_codec6recordINtB7_15RDWRecordReaderINtNtNtCs4eoO4cHkFdT_3std2io6cursor6CursorRINtNtCs31agqjrRntl_5alloc3vec3VechEEE27is_suspect_ascii_corruption0Cs4AY4OFbcjkZ_32zoned_encoding_performance_tests
FNDA:4004,_RNvMNtCs8M7rtMEmd2k_14copybook_codec6recordINtB2_17FixedRecordReaderINtNtNtCs4eoO4cHkFdT_3std2io6cursor6CursorRINtNtCs31agqjrRntl_5alloc3vec3VechEEE11read_recordCs4AY4OFbcjkZ_32zoned_encoding_performance_tests
FNDA:4,_RNvMNtCs8M7rtMEmd2k_14copybook_codec6recordINtB2_17FixedRecordReaderINtNtNtCs4eoO4cHkFdT_3std2io6cursor6CursorRINtNtCs31agqjrRntl_5alloc3vec3VechEEE3newCs4AY4OFbcjkZ_32zoned_encoding_performance_tests
FNDA:0,_RNvMs0_NtCs8M7rtMEmd2k_14copybook_codec6recordINtB5_15RDWRecordReaderINtNtNtCs4eoO4cHkFdT_3std2io6cursor6CursorRINtNtCs31agqjrRntl_5alloc3vec3VechEEE11read_recordCs4AY4OFbcjkZ_32zoned_encoding_performance_tests
FNDA:0,_RNvMs0_NtCs8M7rtMEmd2k_14copybook_codec6recordINtB5_15RDWRecordReaderINtNtNtCs4eoO4cHkFdT_3std2io6cursor6CursorRINtNtCs31agqjrRntl_5alloc3vec3VechEEE27is_suspect_ascii_corruptionCs4AY4OFbcjkZ_32zoned_encoding_performance_tests
FNDA:0,_RNvMs0_NtCs8M7rtMEmd2k_14copybook_codec6recordINtB5_15RDWRecordReaderINtNtNtCs4eoO4cHkFdT_3std2io6cursor6CursorRINtNtCs31agqjrRntl_5alloc3vec3VechEEE3newCs4AY4OFbcjkZ_32zoned_encoding_performance_tests
FNF:77
FNH:67
DA:26,93
DA:27,93
DA:28,93
DA:30,82
DA:31,1
DA:32,1
DA:33,1
DA:34,1
DA:35,81
DA:37,81
DA:38,81
DA:39,81
DA:40,81
DA:41,81
DA:42,93
DA:49,15561
DA:51,15561
DA:52,15561
DA:55,15487
DA:56,15487
DA:58,15487
DA:59,15487
DA:61,15485
DA:62,15485
DA:63,0
DA:66,15485
DA:68,2
DA:70,2
DA:71,2
DA:72,2
DA:73,2
DA:74,2
DA:75,2
DA:76,2
DA:77,2
DA:78,2
DA:79,2
DA:80,2
DA:81,2
DA:82,2
DA:83,2
DA:85,0
DA:86,0
DA:87,0
DA:88,0
DA:89,0
DA:90,0
DA:91,0
DA:92,0
DA:93,0
DA:94,0
DA:95,0
DA:99,0
DA:100,0
DA:101,0
DA:104,0
DA:107,74
DA:109,74
DA:110,74
DA:112,0
DA:113,0
DA:114,0
DA:115,0
DA:116,0
DA:117,0
DA:118,0
DA:119,0
DA:120,0
DA:121,0
DA:122,0
DA:124,15561
DA:131,2
DA:133,2
DA:134,1
DA:135,1
DA:136,1
DA:137,1
DA:138,1
DA:139,1
DA:140,1
DA:141,1
DA:142,1
DA:143,1
DA:144,1
DA:145,1
DA:146,1
DA:147,1
DA:148,1
DA:149,1
DA:152,1
DA:153,0
DA:155,0
DA:156,0
DA:159,1
DA:162,1
DA:163,0
DA:164,1
DA:166,1
DA:167,2
DA:171,2
DA:172,2
DA:173,2
DA:177,0
DA:178,0
DA:179,0
DA:196,4
DA:197,4
DA:198,4
DA:200,3
DA:201,1
DA:202,1
DA:203,1
DA:204,1
DA:205,2
DA:207,2
DA:208,2
DA:209,2
DA:210,2
DA:211,2
DA:212,4
DA:219,3
DA:220,3
DA:221,3
DA:223,3
DA:224,1
DA:225,1
DA:226,1
DA:227,1
DA:228,1
DA:229,1
DA:230,1
DA:231,1
DA:232,1
DA:233,1
DA:234,1
DA:235,1
DA:236,1
DA:237,1
DA:238,2
DA:241,2
DA:242,0
DA:243,0
DA:244,0
DA:246,0
DA:247,0
DA:248,0
DA:249,0
DA:250,0
DA:251,0
DA:252,0
DA:253,0
DA:256,2
DA:257,1
DA:258,1
DA:259,0
DA:260,0
DA:261,0
DA:263,0
DA:264,0
DA:265,0
DA:266,0
DA:267,0
DA:268,0
DA:269,0
DA:270,0
DA:271,1
DA:273,2
DA:274,2
DA:275,0
DA:279,0
DA:282,2
DA:283,3
DA:290,1
DA:291,1
DA:292,0
DA:293,0
DA:294,0
DA:296,0
DA:297,1
DA:301,2
DA:302,2
DA:303,2
DA:307,0
DA:308,0
DA:309,0
DA:322,40
DA:323,40
DA:324,40
DA:325,40
DA:326,40
DA:327,40
DA:328,40
DA:335,60
DA:337,60
DA:338,60
DA:341,38
DA:342,38
DA:344,38
DA:345,38
DA:346,0
DA:351,38
DA:352,11
DA:353,11
DA:354,11
DA:356,11
DA:357,11
DA:358,11
DA:359,11
DA:360,11
DA:361,11
DA:362,11
DA:364,11
DA:365,3
DA:367,8
DA:368,0
DA:372,8
DA:374,27
DA:377,35
DA:378,2
DA:379,0
DA:381,0
DA:382,0
DA:383,0
DA:384,0
DA:387,2
DA:388,2
DA:389,2
DA:390,2
DA:391,2
DA:392,2
DA:393,2
DA:394,2
DA:395,2
DA:396,2
DA:397,2
DA:398,2
DA:399,2
DA:400,2
DA:401,33
DA:404,33
DA:405,4
DA:406,4
DA:407,4
DA:408,4
DA:409,4
DA:410,29
DA:413,29
DA:414,29
DA:416,26
DA:417,0
DA:420,26
DA:421,26
DA:422,26
DA:423,26
DA:425,3
DA:426,3
DA:427,3
DA:428,3
DA:429,3
DA:430,3
DA:431,3
DA:432,3
DA:433,3
DA:434,3
DA:435,3
DA:436,3
DA:438,0
DA:439,0
DA:440,0
DA:441,0
DA:442,0
DA:443,0
DA:444,0
DA:445,0
DA:446,0
DA:447,0
DA:448,0
DA:451,22
DA:453,22
DA:454,22
DA:456,0
DA:457,0
DA:458,0
DA:459,0
DA:460,0
DA:461,0
DA:462,0
DA:463,0
DA:464,0
DA:465,0
DA:466,0
DA:468,60
DA:475,3
DA:479,3
DA:481,3
DA:482,2
DA:483,2
DA:484,2
DA:485,2
DA:486,2
DA:487,2
DA:488,2
DA:489,2
DA:490,2
DA:491,2
DA:492,2
DA:493,2
DA:494,2
DA:495,2
DA:496,1
DA:498,1
DA:499,3
DA:506,6
DA:509,6
DA:510,12
DA:511,2
DA:512,2
DA:513,2
DA:514,0
DA:515,0
DA:516,0
DA:517,0
DA:519,2
DA:521,4
DA:522,6
DA:523,0
DA:524,6
DA:526,6
DA:528,6
DA:529,6
DA:531,6
DA:532,2
DA:533,4
DA:534,2
DA:536,2
DA:537,2
DA:538,0
DA:539,0
DA:540,0
DA:541,0
DA:542,0
DA:543,0
DA:544,0
DA:546,2
DA:548,2
DA:549,2
DA:550,2
DA:552,6
DA:555,37
DA:558,37
DA:561,40
DA:562,37
DA:566,3
DA:567,3
DA:568,3
DA:580,5
DA:581,5
DA:582,5
DA:583,5
DA:584,5
DA:585,5
DA:592,4
DA:594,4
DA:595,0
DA:596,0
DA:597,0
DA:599,0
DA:600,0
DA:601,0
DA:602,0
DA:603,0
DA:604,0
DA:605,0
DA:606,0
DA:609,4
DA:610,0
DA:611,0
DA:612,0
DA:614,0
DA:615,0
DA:616,0
DA:617,0
DA:618,0
DA:619,0
DA:620,0
DA:621,0
DA:623,4
DA:624,4
DA:625,0
DA:627,0
DA:630,4
DA:631,4
DA:638,4
DA:639,4
DA:640,4
DA:641,4
DA:642,4
DA:643,4
DA:645,4
DA:646,1
DA:647,1
DA:648,1
DA:649,1
DA:650,1
DA:651,1
DA:652,1
DA:653,1
DA:654,1
DA:655,1
DA:656,1
DA:657,1
DA:658,1
DA:659,1
DA:660,1
DA:661,3
DA:664,3
DA:665,3
DA:666,3
DA:667,3
DA:668,3
DA:669,3
DA:670,3
DA:671,3
DA:673,3
DA:674,3
DA:675,3
DA:676,3
DA:678,3
DA:679,4
DA:686,0
DA:687,0
DA:688,0
DA:689,0
DA:690,0
DA:692,0
DA:693,0
DA:697,2
DA:698,2
DA:699,2
DA:714,8
DA:715,8
DA:716,8
DA:717,8
DA:719,8
DA:720,8
DA:724,1
DA:725,1
DA:726,1
DA:727,1
DA:728,1
DA:729,1
DA:730,1
DA:731,1
DA:732,1
DA:733,1
DA:735,1
DA:736,1
DA:740,6
DA:741,6
DA:742,6
DA:746,5
DA:747,5
DA:748,5
DA:751,1
DA:752,1
DA:753,1
DA:754,1
DA:755,1
DA:756,1
DA:760,2
DA:761,2
DA:762,2
DA:763,2
DA:764,2
DA:765,2
DA:769,2
DA:770,2
DA:771,1
DA:772,1
DA:774,2
DA:782,3
DA:783,3
DA:784,3
DA:785,3
DA:786,3
DA:787,3
DA:789,1
DA:790,1
DA:793,2
DA:794,2
DA:795,1
DA:796,1
DA:800,3
DA:807,2
DA:808,2
DA:811,1
DA:812,0
DA:813,0
DA:814,0
DA:816,0
DA:819,1
DA:820,1
DA:823,2
DA:824,2
DA:833,1
DA:834,1
DA:835,1
DA:838,1
DA:839,1
DA:840,1
DA:843,1
DA:844,1
DA:845,1
DA:848,1
DA:849,1
DA:850,1
DA:853,1
DA:854,1
DA:855,1
DA:858,1
DA:859,1
DA:860,1
DA:861,1
DA:862,1
DA:865,1
DA:866,1
DA:867,1
DA:868,1
DA:869,1
DA:870,1
DA:871,1
DA:874,1
DA:875,1
DA:876,1
DA:877,1
DA:878,1
DA:879,1
DA:880,1
DA:883,1
DA:884,1
DA:885,1
DA:888,1
DA:889,1
DA:892,1
DA:893,1
DA:895,1
DA:898,1
DA:899,1
DA:902,1
DA:903,1
DA:904,1
DA:907,1
DA:908,1
DA:909,1
DA:910,1
DA:911,1
DA:914,1
DA:915,1
DA:916,1
DA:917,1
DA:918,1
DA:919,1
DA:920,1
DA:923,1
DA:924,1
DA:925,1
DA:926,1
DA:927,1
DA:928,1
DA:929,1
DA:932,1
DA:933,1
DA:934,1
DA:935,1
DA:937,1
DA:938,1
DA:939,1
DA:940,1
DA:943,1
DA:944,1
DA:945,1
DA:946,1
DA:948,1
DA:950,1
DA:951,1
DA:952,1
DA:953,1
DA:954,1
DA:955,1
DA:958,1
DA:959,1
DA:960,1
DA:961,1
DA:962,1
DA:963,1
DA:964,1
DA:967,1
DA:969,1
DA:970,1
DA:971,1
DA:972,1
DA:973,1
DA:976,1
DA:977,1
DA:978,1
DA:979,1
DA:980,1
DA:983,1
DA:984,1
DA:985,1
DA:988,1
DA:991,1
DA:992,1
DA:993,1
DA:994,1
DA:997,1
DA:998,1
DA:999,1
DA:1000,1
DA:1001,1
DA:1002,1
DA:1005,1
DA:1006,1
DA:1007,1
DA:1008,1
DA:1009,1
DA:1010,1
DA:1013,1
DA:1014,1
DA:1015,1
DA:1016,1
DA:1017,1
DA:1018,1
DA:1021,1
DA:1022,1
DA:1023,1
DA:1024,1
DA:1025,1
DA:1028,1
DA:1029,1
DA:1032,1
DA:1033,1
DA:1036,1
DA:1037,1
DA:1038,1
DA:1041,1
DA:1043,1
DA:1044,1
DA:1046,1
DA:1047,1
DA:1048,1
DA:1049,1
DA:1050,1
DA:1051,1
DA:1054,1
DA:1056,1
DA:1060,1
DA:1063,1
DA:1064,1
DA:1065,1
DA:1068,1
DA:1069,1
DA:1070,1
DA:1073,1
DA:1074,1
DA:1075,1
DA:1078,1
DA:1080,1
DA:1081,1
DA:1083,1
DA:1084,1
DA:1085,1
DA:1086,1
DA:1089,1
DA:1091,1
DA:1092,1
DA:1094,1
DA:1095,1
DA:1096,1
DA:1097,1
DA:1100,1
DA:1102,1
DA:1103,1
DA:1105,1
DA:1106,1
DA:1107,1
DA:1108,1
DA:1109,1
DA:1112,1
DA:1114,1
DA:1115,1
DA:1117,1
DA:1118,1
DA:1119,1
DA:1120,1
DA:1123,1
DA:1125,1
DA:1126,1
DA:1128,1
DA:1129,1
DA:1130,1
DA:1131,1
DA:1132,1
DA:1135,1
DA:1140,1
DA:1143,1
DA:1146,1
DA:1147,1
DA:1148,1
DA:1149,1
DA:1154,1
DA:1155,1
DA:1156,1
DA:1157,1
DA:1159,1
DA:1160,1
DA:1161,1
DA:1162,1
DA:1164,1
DA:1167,1
DA:1168,1
DA:1169,1
DA:1171,1
DA:1172,1
DA:1174,1
DA:1175,1
DA:1176,1
DA:1179,1
DA:1180,1
DA:1181,1
DA:1183,1
DA:1185,1
DA:1186,1
DA:1187,1
DA:1190,1
DA:1191,1
DA:1192,1
DA:1194,1
DA:1195,1
DA:1196,1
DA:1198,1
DA:1199,1
DA:1202,1
DA:1203,1
DA:1204,1
DA:1207,1
DA:1208,1
DA:1210,1
DA:1211,1
DA:1212,1
DA:1213,1
DA:1216,1
DA:1219,1
DA:1220,1
DA:1221,1
DA:1223,1
DA:1224,1
DA:1225,1
DA:1226,1
DA:1227,1
DA:1228,1
DA:1230,1
DA:1231,1
DA:1232,1
DA:1233,1
DA:1234,1
DA:1236,1
DA:1237,1
DA:1238,1
DA:1241,1
DA:1244,1
DA:1246,1
DA:1247,1
DA:1248,1
DA:1249,1
DA:1250,1
DA:1252,1
DA:1253,1
DA:1255,1
DA:1256,1
DA:1257,1
DA:1258,1
DA:1259,1
DA:1260,1
DA:1261,1
DA:1262,1
DA:1264,1
DA:1265,1
DA:1266,1
DA:1267,1
DA:1268,1
DA:1269,1
DA:1270,1
DA:1271,1
DA:1272,1
DA:1273,1
DA:1274,1
DA:1276,1
DA:1277,1
DA:1278,1
DA:1279,1
DA:1280,1
DA:1282,1
DA:1283,1
DA:1284,1
DA:1287,1
DA:1288,1
DA:1289,1
DA:1291,1
DA:1292,1
DA:1294,1
DA:1295,1
DA:1296,1
DA:1299,1
DA:1300,1
DA:1301,1
DA:1303,1
DA:1304,1
DA:1305,1
DA:1306,1
DA:1307,1
BRF:0
BRH:0
LF:836
LH:660
end_of_record
SF:/home/steven/code/Rust/copybook-rs/copybook-core/src/error.rs
FN:288,_RNvMs1_NtCscjynpR2Nz1w_13copybook_core5errorNtB5_5Error11with_offset
FN:260,_RNvMs1_NtCscjynpR2Nz1w_13copybook_core5errorNtB5_5Error11with_record
FN:253,_RNvMs1_NtCscjynpR2Nz1w_13copybook_core5errorNtB5_5Error12with_context
FN:24,_RNvXNtCscjynpR2Nz1w_13copybook_core5errorNtB2_5ErrorNtNtCshnvtj5zUHGu_4core3fmt7Display3fmt
FN:200,_RNvXs0_NtCscjynpR2Nz1w_13copybook_core5errorNtB5_12ErrorContextNtNtCshnvtj5zUHGu_4core3fmt7Display3fmt
FN:131,_RNvXs_NtCscjynpR2Nz1w_13copybook_core5errorNtB4_9ErrorCodeNtNtCshnvtj5zUHGu_4core3fmt7Display3fmt
FN:243,_RINvMs1_NtCscjynpR2Nz1w_13copybook_core5errorNtB6_5Error3newNtNtCs31agqjrRntl_5alloc6string6StringEB8_
FN:243,_RINvMs1_NtCscjynpR2Nz1w_13copybook_core5errorNtB6_5Error3newReEB8_
FN:274,_RINvMs1_NtCs1OT1nrWj27a_13copybook_core5errorNtB6_5Error10with_fieldReEB8_
FN:243,_RINvMs1_NtCs1OT1nrWj27a_13copybook_core5errorNtB6_5Error3newNtNtCs31agqjrRntl_5alloc6string6StringEB8_
FN:243,_RINvMs1_NtCs1OT1nrWj27a_13copybook_core5errorNtB6_5Error3newReEB8_
FN:288,_RNvMs1_NtCs1OT1nrWj27a_13copybook_core5errorNtB5_5Error11with_offset
FN:260,_RNvMs1_NtCs1OT1nrWj27a_13copybook_core5errorNtB5_5Error11with_record
FN:253,_RNvMs1_NtCs1OT1nrWj27a_13copybook_core5errorNtB5_5Error12with_context
FN:24,_RNvXNtCs1OT1nrWj27a_13copybook_core5errorNtB2_5ErrorNtNtCshnvtj5zUHGu_4core3fmt7Display3fmt
FN:200,_RNvXs0_NtCs1OT1nrWj27a_13copybook_core5errorNtB5_12ErrorContextNtNtCshnvtj5zUHGu_4core3fmt7Display3fmt
FN:131,_RNvXs_NtCs1OT1nrWj27a_13copybook_core5errorNtB4_9ErrorCodeNtNtCshnvtj5zUHGu_4core3fmt7Display3fmt
FN:274,_RINvMs1_NtCscjynpR2Nz1w_13copybook_core5errorNtB6_5Error10with_fieldReECsgOXJGCqd5eF_32zoned_encoding_error_codes_tests
FNDA:1,_RNvMs1_NtCscjynpR2Nz1w_13copybook_core5errorNtB5_5Error11with_offset
FNDA:1,_RNvMs1_NtCscjynpR2Nz1w_13copybook_core5errorNtB5_5Error11with_record
FNDA:26,_RNvMs1_NtCscjynpR2Nz1w_13copybook_core5errorNtB5_5Error12with_context
FNDA:275,_RNvXNtCscjynpR2Nz1w_13copybook_core5errorNtB2_5ErrorNtNtCshnvtj5zUHGu_4core3fmt7Display3fmt
FNDA:0,_RNvXs0_NtCscjynpR2Nz1w_13copybook_core5errorNtB5_12ErrorContextNtNtCshnvtj5zUHGu_4core3fmt7Display3fmt
FNDA:285,_RNvXs_NtCscjynpR2Nz1w_13copybook_core5errorNtB4_9ErrorCodeNtNtCshnvtj5zUHGu_4core3fmt7Display3fmt
FNDA:2369,_RINvMs1_NtCscjynpR2Nz1w_13copybook_core5errorNtB6_5Error3newNtNtCs31agqjrRntl_5alloc6string6StringEB8_
FNDA:51,_RINvMs1_NtCscjynpR2Nz1w_13copybook_core5errorNtB6_5Error3newReEB8_
FNDA:2,_RINvMs1_NtCs1OT1nrWj27a_13copybook_core5errorNtB6_5Error10with_fieldReEB8_
FNDA:9,_RINvMs1_NtCs1OT1nrWj27a_13copybook_core5errorNtB6_5Error3newNtNtCs31agqjrRntl_5alloc6string6StringEB8_
FNDA:8,_RINvMs1_NtCs1OT1nrWj27a_13copybook_core5errorNtB6_5Error3newReEB8_
FNDA:2,_RNvMs1_NtCs1OT1nrWj27a_13copybook_core5errorNtB5_5Error11with_offset
FNDA:3,_RNvMs1_NtCs1OT1nrWj27a_13copybook_core5errorNtB5_5Error11with_record
FNDA:1,_RNvMs1_NtCs1OT1nrWj27a_13copybook_core5errorNtB5_5Error12with_context
FNDA:8,_RNvXNtCs1OT1nrWj27a_13copybook_core5errorNtB2_5ErrorNtNtCshnvtj5zUHGu_4core3fmt7Display3fmt
FNDA:4,_RNvXs0_NtCs1OT1nrWj27a_13copybook_core5errorNtB5_12ErrorContextNtNtCshnvtj5zUHGu_4core3fmt7Display3fmt
FNDA:9,_RNvXs_NtCs1OT1nrWj27a_13copybook_core5errorNtB4_9ErrorCodeNtNtCshnvtj5zUHGu_4core3fmt7Display3fmt
FNDA:1,_RINvMs1_NtCscjynpR2Nz1w_13copybook_core5errorNtB6_5Error10with_fieldReECsgOXJGCqd5eF_32zoned_encoding_error_codes_tests
FNF:8
FNH:8
DA:24,283
DA:25,283
DA:26,283
DA:27,4
DA:28,279
DA:29,283
DA:30,283
DA:131,294
DA:132,294
DA:133,6
DA:134,0
DA:135,0
DA:136,1
DA:137,0
DA:138,0
DA:139,1
DA:140,1
DA:141,0
DA:142,0
DA:143,0
DA:144,0
DA:145,0
DA:146,2
DA:147,7
DA:148,269
DA:149,1
DA:150,1
DA:151,1
DA:152,1
DA:153,2
DA:154,0
DA:155,0
DA:156,0
DA:157,0
DA:158,1
DA:160,294
DA:161,294
DA:200,4
DA:201,4
DA:203,4
DA:204,4
DA:205,4
DA:206,4
DA:207,2
DA:208,2
DA:209,4
DA:210,2
DA:211,2
DA:212,4
DA:213,0
DA:214,4
DA:215,4
DA:216,0
DA:217,4
DA:219,4
DA:220,4
DA:243,2437
DA:244,2437
DA:245,2437
DA:246,2437
DA:247,2437
DA:248,2437
DA:249,2437
DA:253,27
DA:254,27
DA:255,27
DA:256,27
DA:260,4
DA:261,4
DA:262,4
DA:263,4
DA:264,4
DA:265,4
DA:266,4
DA:267,4
DA:268,4
DA:269,4
DA:270,4
DA:274,3
DA:275,3
DA:276,3
DA:277,3
DA:278,3
DA:279,3
DA:280,3
DA:281,3
DA:282,3
DA:283,3
DA:284,3
DA:288,3
DA:289,3
DA:290,3
DA:291,3
DA:292,3
DA:293,3
DA:294,3
DA:295,3
DA:296,3
DA:297,3
DA:298,3
BRF:0
BRH:0
LF:100
LH:83
end_of_record
SF:/home/steven/code/Rust/copybook-rs/copybook-core/src/error_reporter.rs
FN:192,_RNvMNtCscjynpR2Nz1w_13copybook_core14error_reporterNtB2_13ErrorReporter10has_errors
FN:216,_RNvMNtCscjynpR2Nz1w_13copybook_core14error_reporterNtB2_13ErrorReporter11error_count
FN:207,_RNvMNtCscjynpR2Nz1w_13copybook_core14error_reporterNtB2_13ErrorReporter12has_warnings
FN:109,_RNvMNtCscjynpR2Nz1w_13copybook_core14error_reporterNtB2_13ErrorReporter12report_error
FN:179,_RNvMNtCscjynpR2Nz1w_13copybook_core14error_reporterNtB2_13ErrorReporter12start_record
FN:229,_RNvMNtCscjynpR2Nz1w_13copybook_core14error_reporterNtB2_13ErrorReporter13warning_count
FN:158,_RNvMNtCscjynpR2Nz1w_13copybook_core14error_reporterNtB2_13ErrorReporter14report_warning
FN:238,_RNvMNtCscjynpR2Nz1w_13copybook_core14error_reporterNtB2_13ErrorReporter15generate_report
FN:349,_RNvMNtCscjynpR2Nz1w_13copybook_core14error_reporterNtB2_13ErrorReporter17update_statistics
FN:284,_RNvMNtCscjynpR2Nz1w_13copybook_core14error_reporterNtB2_13ErrorReporter18determine_severity
FN:91,_RNvMNtCscjynpR2Nz1w_13copybook_core14error_reporterNtB2_13ErrorReporter20with_verbose_logging
FN:409,_RNvMNtCscjynpR2Nz1w_13copybook_core14error_reporterNtB2_13ErrorReporter21is_corruption_warning
FN:80,_RNvMNtCscjynpR2Nz1w_13copybook_core14error_reporterNtB2_13ErrorReporter3new
FN:186,_RNvMNtCscjynpR2Nz1w_13copybook_core14error_reporterNtB2_13ErrorReporter7summary
FN:383,_RNvMNtCscjynpR2Nz1w_13copybook_core14error_reporterNtB2_13ErrorReporter9log_error
FN:430,_RNvMs0_NtCscjynpR2Nz1w_13copybook_core14error_reporterNtB5_12ErrorSummary10has_errors
FN:441,_RNvMs0_NtCscjynpR2Nz1w_13copybook_core14error_reporterNtB5_12ErrorSummary11error_count
FN:436,_RNvMs0_NtCscjynpR2Nz1w_13copybook_core14error_reporterNtB5_12ErrorSummary12has_warnings
FN:447,_RNvMs0_NtCscjynpR2Nz1w_13copybook_core14error_reporterNtB5_12ErrorSummary13warning_count
FN:418,_RNvXs_NtCscjynpR2Nz1w_13copybook_core14error_reporterNtB4_13ErrorSeverityNtNtCshnvtj5zUHGu_4core3fmt7Display3fmt
FN:192,_RNvMNtCs1OT1nrWj27a_13copybook_core14error_reporterNtB2_13ErrorReporter10has_errors
FN:216,_RNvMNtCs1OT1nrWj27a_13copybook_core14error_reporterNtB2_13ErrorReporter11error_count
FN:207,_RNvMNtCs1OT1nrWj27a_13copybook_core14error_reporterNtB2_13ErrorReporter12has_warnings
FN:109,_RNvMNtCs1OT1nrWj27a_13copybook_core14error_reporterNtB2_13ErrorReporter12report_error
FN:179,_RNvMNtCs1OT1nrWj27a_13copybook_core14error_reporterNtB2_13ErrorReporter12start_record
FN:229,_RNvMNtCs1OT1nrWj27a_13copybook_core14error_reporterNtB2_13ErrorReporter13warning_count
FN:158,_RNvMNtCs1OT1nrWj27a_13copybook_core14error_reporterNtB2_13ErrorReporter14report_warning
FN:238,_RNvMNtCs1OT1nrWj27a_13copybook_core14error_reporterNtB2_13ErrorReporter15generate_report
FN:349,_RNvMNtCs1OT1nrWj27a_13copybook_core14error_reporterNtB2_13ErrorReporter17update_statistics
FN:284,_RNvMNtCs1OT1nrWj27a_13copybook_core14error_reporterNtB2_13ErrorReporter18determine_severity
FN:409,_RNvMNtCs1OT1nrWj27a_13copybook_core14error_reporterNtB2_13ErrorReporter21is_corruption_warning
FN:80,_RNvMNtCs1OT1nrWj27a_13copybook_core14error_reporterNtB2_13ErrorReporter3new
FN:186,_RNvMNtCs1OT1nrWj27a_13copybook_core14error_reporterNtB2_13ErrorReporter7summary
FN:383,_RNvMNtCs1OT1nrWj27a_13copybook_core14error_reporterNtB2_13ErrorReporter9log_error
FN:91,_RNvMNtCs1OT1nrWj27a_13copybook_core14error_reporterNtB2_13ErrorReporter20with_verbose_logging
FN:430,_RNvMs0_NtCs1OT1nrWj27a_13copybook_core14error_reporterNtB5_12ErrorSummary10has_errors
FN:441,_RNvMs0_NtCs1OT1nrWj27a_13copybook_core14error_reporterNtB5_12ErrorSummary11error_count
FN:436,_RNvMs0_NtCs1OT1nrWj27a_13copybook_core14error_reporterNtB5_12ErrorSummary12has_warnings
FN:447,_RNvMs0_NtCs1OT1nrWj27a_13copybook_core14error_reporterNtB5_12ErrorSummary13warning_count
FN:418,_RNvXs_NtCs1OT1nrWj27a_13copybook_core14error_reporterNtB4_13ErrorSeverityNtNtCshnvtj5zUHGu_4core3fmt7Display3fmt
FN:490,_RNvNtNtCs1OT1nrWj27a_13copybook_core14error_reporter5testss_21test_max_errors_limit
FN:503,_RNvNtNtCs1OT1nrWj27a_13copybook_core14error_reporter5testss_22test_warning_reporting
FN:515,_RNvNtNtCs1OT1nrWj27a_13copybook_core14error_reporter5testss_25test_corruption_detection
FN:528,_RNvNtNtCs1OT1nrWj27a_13copybook_core14error_reporter5testss_29test_error_summary_generation
FN:458,_RNvNtNtCs1OT1nrWj27a_13copybook_core14error_reporter5testss_31test_error_reporter_strict_mode
FN:474,_RNvNtNtCs1OT1nrWj27a_13copybook_core14error_reporter5testss_32test_error_reporter_lenient_mode
FNDA:0,_RNvMNtCscjynpR2Nz1w_13copybook_core14error_reporterNtB2_13ErrorReporter10has_errors
FNDA:0,_RNvMNtCscjynpR2Nz1w_13copybook_core14error_reporterNtB2_13ErrorReporter11error_count
FNDA:0,_RNvMNtCscjynpR2Nz1w_13copybook_core14error_reporterNtB2_13ErrorReporter12has_warnings
FNDA:0,_RNvMNtCscjynpR2Nz1w_13copybook_core14error_reporterNtB2_13ErrorReporter12report_error
FNDA:0,_RNvMNtCscjynpR2Nz1w_13copybook_core14error_reporterNtB2_13ErrorReporter12start_record
FNDA:0,_RNvMNtCscjynpR2Nz1w_13copybook_core14error_reporterNtB2_13ErrorReporter13warning_count
FNDA:0,_RNvMNtCscjynpR2Nz1w_13copybook_core14error_reporterNtB2_13ErrorReporter14report_warning
FNDA:0,_RNvMNtCscjynpR2Nz1w_13copybook_core14error_reporterNtB2_13ErrorReporter15generate_report
FNDA:0,_RNvMNtCscjynpR2Nz1w_13copybook_core14error_reporterNtB2_13ErrorReporter17update_statistics
FNDA:0,_RNvMNtCscjynpR2Nz1w_13copybook_core14error_reporterNtB2_13ErrorReporter18determine_severity
FNDA:0,_RNvMNtCscjynpR2Nz1w_13copybook_core14error_reporterNtB2_13ErrorReporter20with_verbose_logging
FNDA:0,_RNvMNtCscjynpR2Nz1w_13copybook_core14error_reporterNtB2_13ErrorReporter21is_corruption_warning
FNDA:0,_RNvMNtCscjynpR2Nz1w_13copybook_core14error_reporterNtB2_13ErrorReporter3new
FNDA:0,_RNvMNtCscjynpR2Nz1w_13copybook_core14error_reporterNtB2_13ErrorReporter7summary
FNDA:0,_RNvMNtCscjynpR2Nz1w_13copybook_core14error_reporterNtB2_13ErrorReporter9log_error
FNDA:0,_RNvMs0_NtCscjynpR2Nz1w_13copybook_core14error_reporterNtB5_12ErrorSummary10has_errors
FNDA:0,_RNvMs0_NtCscjynpR2Nz1w_13copybook_core14error_reporterNtB5_12ErrorSummary11error_count
FNDA:0,_RNvMs0_NtCscjynpR2Nz1w_13copybook_core14error_reporterNtB5_12ErrorSummary12has_warnings
FNDA:0,_RNvMs0_NtCscjynpR2Nz1w_13copybook_core14error_reporterNtB5_12ErrorSummary13warning_count
FNDA:0,_RNvXs_NtCscjynpR2Nz1w_13copybook_core14error_reporterNtB4_13ErrorSeverityNtNtCshnvtj5zUHGu_4core3fmt7Display3fmt
FNDA:3,_RNvMNtCs1OT1nrWj27a_13copybook_core14error_reporterNtB2_13ErrorReporter10has_errors
FNDA:2,_RNvMNtCs1OT1nrWj27a_13copybook_core14error_reporterNtB2_13ErrorReporter11error_count
FNDA:1,_RNvMNtCs1OT1nrWj27a_13copybook_core14error_reporterNtB2_13ErrorReporter12has_warnings
FNDA:5,_RNvMNtCs1OT1nrWj27a_13copybook_core14error_reporterNtB2_13ErrorReporter12report_error
FNDA:1,_RNvMNtCs1OT1nrWj27a_13copybook_core14error_reporterNtB2_13ErrorReporter12start_record
FNDA:1,_RNvMNtCs1OT1nrWj27a_13copybook_core14error_reporterNtB2_13ErrorReporter13warning_count
FNDA:2,_RNvMNtCs1OT1nrWj27a_13copybook_core14error_reporterNtB2_13ErrorReporter14report_warning
FNDA:1,_RNvMNtCs1OT1nrWj27a_13copybook_core14error_reporterNtB2_13ErrorReporter15generate_report
FNDA:7,_RNvMNtCs1OT1nrWj27a_13copybook_core14error_reporterNtB2_13ErrorReporter17update_statistics
FNDA:5,_RNvMNtCs1OT1nrWj27a_13copybook_core14error_reporterNtB2_13ErrorReporter18determine_severity
FNDA:2,_RNvMNtCs1OT1nrWj27a_13copybook_core14error_reporterNtB2_13ErrorReporter21is_corruption_warning
FNDA:6,_RNvMNtCs1OT1nrWj27a_13copybook_core14error_reporterNtB2_13ErrorReporter3new
FNDA:1,_RNvMNtCs1OT1nrWj27a_13copybook_core14error_reporterNtB2_13ErrorReporter7summary
FNDA:7,_RNvMNtCs1OT1nrWj27a_13copybook_core14error_reporterNtB2_13ErrorReporter9log_error
FNDA:0,_RNvMNtCs1OT1nrWj27a_13copybook_core14error_reporterNtB2_13ErrorReporter20with_verbose_logging
FNDA:0,_RNvMs0_NtCs1OT1nrWj27a_13copybook_core14error_reporterNtB5_12ErrorSummary10has_errors
FNDA:0,_RNvMs0_NtCs1OT1nrWj27a_13copybook_core14error_reporterNtB5_12ErrorSummary11error_count
FNDA:0,_RNvMs0_NtCs1OT1nrWj27a_13copybook_core14error_reporterNtB5_12ErrorSummary12has_warnings
FNDA:0,_RNvMs0_NtCs1OT1nrWj27a_13copybook_core14error_reporterNtB5_12ErrorSummary13warning_count
FNDA:0,_RNvXs_NtCs1OT1nrWj27a_13copybook_core14error_reporterNtB4_13ErrorSeverityNtNtCshnvtj5zUHGu_4core3fmt7Display3fmt
FNDA:1,_RNvNtNtCs1OT1nrWj27a_13copybook_core14error_reporter5testss_21test_max_errors_limit
FNDA:1,_RNvNtNtCs1OT1nrWj27a_13copybook_core14error_reporter5testss_22test_warning_reporting
FNDA:1,_RNvNtNtCs1OT1nrWj27a_13copybook_core14error_reporter5testss_25test_corruption_detection
FNDA:1,_RNvNtNtCs1OT1nrWj27a_13copybook_core14error_reporter5testss_29test_error_summary_generation
FNDA:1,_RNvNtNtCs1OT1nrWj27a_13copybook_core14error_reporter5testss_31test_error_reporter_strict_mode
FNDA:1,_RNvNtNtCs1OT1nrWj27a_13copybook_core14error_reporter5testss_32test_error_reporter_lenient_mode
FNF:26
FNH:20
DA:80,6
DA:81,6
DA:82,6
DA:83,6
DA:84,6
DA:85,6
DA:86,6
DA:87,6
DA:91,0
DA:92,0
DA:93,0
DA:94,0
DA:109,5
DA:110,5
DA:111,5
DA:112,5
DA:113,5
DA:114,5
DA:115,5
DA:116,5
DA:119,5
DA:120,0
DA:122,5
DA:123,1
DA:124,4
DA:125,2
DA:126,2
DA:127,2
DA:128,2
DA:129,2
DA:130,2
DA:132,2
DA:135,0
DA:139,5
DA:142,5
DA:145,5
DA:146,3
DA:147,2
DA:148,1
DA:149,1
DA:150,1
DA:151,1
DA:153,1
DA:155,5
DA:158,2
DA:159,2
DA:160,2
DA:161,2
DA:162,2
DA:163,2
DA:164,2
DA:167,2
DA:168,1
DA:169,1
DA:170,1
DA:171,1
DA:172,1
DA:174,2
DA:175,2
DA:176,2
DA:179,1
DA:180,1
DA:181,1
DA:182,1
DA:186,1
DA:187,1
DA:188,1
DA:192,3
DA:193,3
DA:194,3
DA:195,3
DA:196,3
DA:197,3
DA:198,1
DA:199,1
DA:200,1
DA:201,1
DA:202,1
DA:203,1
DA:204,3
DA:207,1
DA:208,1
DA:209,1
DA:210,1
DA:211,1
DA:212,1
DA:213,1
DA:216,2
DA:217,2
DA:218,2
DA:219,2
DA:220,2
DA:221,2
DA:222,2
DA:223,2
DA:224,2
DA:225,2
DA:226,2
DA:229,1
DA:230,1
DA:231,1
DA:232,1
DA:233,1
DA:234,1
DA:235,1
DA:238,1
DA:239,1
DA:241,1
DA:242,1
DA:243,1
DA:244,1
DA:245,1
DA:246,1
DA:247,1
DA:248,1
DA:249,1
DA:251,1
DA:252,1
DA:253,2
DA:254,1
DA:255,1
DA:256,1
